Microsoft (R) COFF/PE Dumper Version 10.00.40219.01
Copyright (C) Microsoft Corporation.  All rights reserved.


Dump of file E:\Code\ProcessDissector\Debug\ProcessDissector.dll

File Type: DLL

  10011000: CC                 int         3
  10011001: CC                 int         3
  10011002: CC                 int         3
  10011003: CC                 int         3
  10011004: CC                 int         3
@ILT+0(__RTC_GetErrDesc):
  10011005: E9 26 4F 00 00     jmp         __RTC_GetErrDesc
@ILT+5(__malloc_dbg):
  1001100A: E9 D1 51 00 00     jmp         __malloc_dbg
@ILT+10(_ParsePEFile):
  1001100F: E9 BC 03 00 00     jmp         _ParsePEFile
@ILT+15(@__security_check_cookie@4):
  10011014: E9 37 3B 00 00     jmp         @__security_check_cookie@4
@ILT+20(_IsDebuggerPresent@0):
  10011019: E9 3E 5E 00 00     jmp         _IsDebuggerPresent@0
@ILT+25(_MapViewOfFile@20):
  1001101E: E9 EB 3A 00 00     jmp         _MapViewOfFile@20
@ILT+30(__RTC_Terminate):
  10011023: E9 88 51 00 00     jmp         __RTC_Terminate
@ILT+35(_WideCharToMultiByte@32):
  10011028: E9 35 5E 00 00     jmp         _WideCharToMultiByte@32
@ILT+40(_DllMain@12):
  1001102D: E9 7E 55 00 00     jmp         _DllMain@12
@ILT+45(@_RTC_AllocaHelper@12):
  10011032: E9 E9 3B 00 00     jmp         @_RTC_AllocaHelper@12
@ILT+50(_CloseHandle@4):
  10011037: E9 D8 3A 00 00     jmp         _CloseHandle@4
@ILT+55(?_RTC_GetErrorFuncW@@YAP6AHHPB_WH00ZZPBX@Z):
  1001103C: E9 AF 4F 00 00     jmp         ?_RTC_GetErrorFuncW@@YAP6AHHPB_WH00ZZPBX@Z
@ILT+60(__RTC_NumErrors):
  10011041: E9 DA 4E 00 00     jmp         __RTC_NumErrors
@ILT+65(__wsplitpath_s):
  10011046: E9 D5 5D 00 00     jmp         __wsplitpath_s
@ILT+70(_DisableThreadLibraryCalls@4):
  1001104B: E9 4E 5E 00 00     jmp         _DisableThreadLibraryCalls@4
@ILT+75(_Sleep@4):
  10011050: E9 E3 5D 00 00     jmp         _Sleep@4
@ILT+80(_GetModuleFileNameW@12):
  10011055: E9 5C 5E 00 00     jmp         _GetModuleFileNameW@12
@ILT+85(___security_init_cookie):
  1001105A: E9 31 54 00 00     jmp         ___security_init_cookie
@ILT+90(_SetUnhandledExceptionFilter@4):
  1001105F: E9 F2 5D 00 00     jmp         _SetUnhandledExceptionFilter@4
@ILT+95(_SetFilePointer@16):
  10011064: E9 99 3A 00 00     jmp         _SetFilePointer@16
@ILT+100(___clean_type_info_names_internal):
  10011069: E9 88 5D 00 00     jmp         ___clean_type_info_names_internal
@ILT+105(_VirtualQuery@12):
  1001106E: E9 49 5E 00 00     jmp         _VirtualQuery@12
@ILT+110(_atexit):
  10011073: E9 D8 50 00 00     jmp         _atexit
@ILT+115(_MultiByteToWideChar@24):
  10011078: E9 A9 3A 00 00     jmp         _MultiByteToWideChar@24
@ILT+120(__RTC_SetErrorType):
  1001107D: E9 CE 4E 00 00     jmp         __RTC_SetErrorType
@ILT+125(_memset):
  10011082: E9 C3 3A 00 00     jmp         _memset
@ILT+130(__except_handler4):
  10011087: E9 54 55 00 00     jmp         __except_handler4
@ILT+135(__lock):
  1001108C: E9 77 5D 00 00     jmp         __lock
@ILT+140(_GetProcAddress@8):
  10011091: E9 DE 5D 00 00     jmp         _GetProcAddress@8
@ILT+145(@_RTC_CheckStackVars@8):
  10011096: E9 05 3B 00 00     jmp         @_RTC_CheckStackVars@8
@ILT+150(___report_gsfailure):
  1001109B: E9 10 44 00 00     jmp         ___report_gsfailure
@ILT+155(_GetCurrentThreadId@0):
  100110A0: E9 E7 5D 00 00     jmp         _GetCurrentThreadId@0
@ILT+160(__initterm):
  100110A5: E9 CC 53 00 00     jmp         __initterm
@ILT+165(_strlen):
  100110AA: E9 95 3A 00 00     jmp         _strlen
@ILT+170(_malloc):
  100110AF: E9 84 3A 00 00     jmp         _malloc
@ILT+175(_GetCurrentProcess@0):
  100110B4: E9 91 5D 00 00     jmp         _GetCurrentProcess@0
@ILT+180(__RTC_UninitUse):
  100110B9: E9 32 4D 00 00     jmp         __RTC_UninitUse
@ILT+185(__RTC_Shutdown):
  100110BE: E9 ED 3C 00 00     jmp         __RTC_Shutdown
@ILT+190(__FindPESection):
  100110C3: E9 B8 51 00 00     jmp         __FindPESection
@ILT+195(_LoadLibraryW@4):
  100110C8: E9 AD 5D 00 00     jmp         _LoadLibraryW@4
@ILT+200(__RTC_InitBase):
  100110CD: E9 9E 3C 00 00     jmp         __RTC_InitBase
@ILT+205(?_RTC_StackFailure@@YAXPAXPBD@Z):
  100110D2: E9 C9 49 00 00     jmp         ?_RTC_StackFailure@@YAXPAXPBD@Z
@ILT+210(__encoded_null):
  100110D7: E9 10 51 00 00     jmp         __encoded_null
@ILT+215(_RaiseException@16):
  100110DC: E9 87 5D 00 00     jmp         _RaiseException@16
@ILT+220(__crt_debugger_hook):
  100110E1: E9 2E 55 00 00     jmp         __crt_debugger_hook
@ILT+225(__ValidateImageBase):
  100110E6: E9 15 51 00 00     jmp         __ValidateImageBase
@ILT+230(_UnmapViewOfFile@4):
  100110EB: E9 18 3A 00 00     jmp         _UnmapViewOfFile@4
@ILT+235(_InterlockedCompareExchange@12):
  100110F0: E9 49 5D 00 00     jmp         _InterlockedCompareExchange@12
@ILT+240(___CppXcptFilter):
  100110F5: E9 AE 54 00 00     jmp         ___CppXcptFilter
@ILT+245(__DllMainCRTStartup@12):
  100110FA: E9 31 41 00 00     jmp         __DllMainCRTStartup@12
@ILT+250(_GetProcessHeap@0):
  100110FF: E9 AC 5D 00 00     jmp         _GetProcessHeap@0
@ILT+255(__RTC_SetErrorFuncW):
  10011104: E9 A7 4E 00 00     jmp         __RTC_SetErrorFuncW
@ILT+260(__onexit):
  10011109: E9 12 4F 00 00     jmp         __onexit
@ILT+265(_NtCurrentTeb):
  1001110E: E9 0D 41 00 00     jmp         _NtCurrentTeb
@ILT+270(_ReadFile@20):
  10011113: E9 E4 39 00 00     jmp         _ReadFile@20
@ILT+275(_HeapFree@12):
  10011118: E9 87 5D 00 00     jmp         _HeapFree@12
@ILT+280(__RTC_SetErrorFunc):
  1001111D: E9 5E 4E 00 00     jmp         __RTC_SetErrorFunc
@ILT+285(_TerminateProcess@8):
  10011122: E9 1D 5D 00 00     jmp         _TerminateProcess@8
@ILT+290(_QueryPerformanceCounter@4):
  10011127: E9 54 5D 00 00     jmp         _QueryPerformanceCounter@4
@ILT+295(__unlock):
  1001112C: E9 CB 5C 00 00     jmp         __unlock
@ILT+300(_GetCurrentProcessId@0):
  10011131: E9 5C 5D 00 00     jmp         _GetCurrentProcessId@0
@ILT+305(@_RTC_CheckStackVars2@12):
  10011136: E9 25 3B 00 00     jmp         @_RTC_CheckStackVars2@12
@ILT+310(__free_dbg):
  1001113B: E9 A6 50 00 00     jmp         __free_dbg
@ILT+315(__RTC_CheckEsp):
  10011140: E9 2B 3A 00 00     jmp         __RTC_CheckEsp
@ILT+320(_EncodePointer@4):
  10011145: E9 DC 5C 00 00     jmp         _EncodePointer@4
@ILT+325(__RTC_Initialize):
  1001114A: E9 31 50 00 00     jmp         __RTC_Initialize
@ILT+330(_sprintf):
  1001114F: E9 DE 39 00 00     jmp         _sprintf
@ILT+335(?RVAToOffset@@YAKPAXK@Z):
  10011154: E9 A7 38 00 00     jmp         ?RVAToOffset@@YAKPAXK@Z
@ILT+340(_GetSystemTimeAsFileTime@4):
  10011159: E9 3A 5D 00 00     jmp         _GetSystemTimeAsFileTime@4
@ILT+345(_DecodePointer@4):
  1001115E: E9 C9 5C 00 00     jmp         _DecodePointer@4
@ILT+350(?_RTC_GetSrcLine@@YAHPAEPA_WKPAH1K@Z):
  10011163: E9 B8 54 00 00     jmp         ?_RTC_GetSrcLine@@YAHPAEPA_WKPAH1K@Z
@ILT+355(__wmakepath_s):
  10011168: E9 A7 5C 00 00     jmp         __wmakepath_s
@ILT+360(__CRT_RTC_INITW):
  1001116D: E9 84 4E 00 00     jmp         __CRT_RTC_INITW
@ILT+365(_GetTickCount@0):
  10011172: E9 0F 5D 00 00     jmp         _GetTickCount@0
@ILT+370(___clean_type_info_names):
  10011177: E9 84 4E 00 00     jmp         ___clean_type_info_names
@ILT+375(__IsNonwritableInCurrentImage):
  1001117C: E9 9F 51 00 00     jmp         __IsNonwritableInCurrentImage
@ILT+380(_HeapAlloc@12):
  10011181: E9 24 5D 00 00     jmp         _HeapAlloc@12
@ILT+385(__amsg_exit):
  10011186: E9 F7 52 00 00     jmp         __amsg_exit
@ILT+390(__CrtSetCheckCount):
  1001118B: E9 62 50 00 00     jmp         __CrtSetCheckCount
@ILT+395(_InterlockedExchange@8):
  10011190: E9 9D 5C 00 00     jmp         _InterlockedExchange@8
@ILT+400(_UnhandledExceptionFilter@4):
  10011195: E9 B6 5C 00 00     jmp         _UnhandledExceptionFilter@4
@ILT+405(_printf):
  1001119A: E9 9F 39 00 00     jmp         _printf
@ILT+410(__except_handler4_common):
  1001119F: E9 6A 5C 00 00     jmp         __except_handler4_common
@ILT+415(_GetModuleHandleW@4):
  100111A4: E9 19 5D 00 00     jmp         _GetModuleHandleW@4
@ILT+420(_CreateFileMappingW@24):
  100111A9: E9 6C 39 00 00     jmp         _CreateFileMappingW@24
@ILT+425(_lstrlenA@4):
  100111AE: E9 BB 5C 00 00     jmp         _lstrlenA@4
@ILT+430(?_RTC_Failure@@YAXPAXH@Z):
  100111B3: E9 58 44 00 00     jmp         ?_RTC_Failure@@YAXPAXH@Z
@ILT+435(_free):
  100111B8: E9 6F 39 00 00     jmp         _free
@ILT+440(?_RTC_AllocaFailure@@YAXPAXPAU_RTC_ALLOCA_NODE@@H@Z):
  100111BD: E9 1E 4A 00 00     jmp         ?_RTC_AllocaFailure@@YAXPAXPAU_RTC_ALLOCA_NODE@@H@Z
@ILT+445(__CRT_INIT@12):
  100111C2: E9 A9 3C 00 00     jmp         __CRT_INIT@12
@ILT+450(___dllonexit):
  100111C7: E9 36 5C 00 00     jmp         ___dllonexit
@ILT+455(_FreeLibrary@4):
  100111CC: E9 F7 5C 00 00     jmp         _FreeLibrary@4
@ILT+460(__initterm_e):
  100111D1: E9 A6 52 00 00     jmp         __initterm_e
@ILT+465(_CreateFileW@28):
  100111D6: E9 45 39 00 00     jmp         _CreateFileW@28
@ILT+470(?_RTC_GetErrorFunc@@YAP6AHHPBDH00ZZPBX@Z):
  100111DB: E9 00 4E 00 00     jmp         ?_RTC_GetErrorFunc@@YAP6AHHPBDH00ZZPBX@Z
@ILT+475(_wcscpy_s):
  100111E0: E9 35 5C 00 00     jmp         _wcscpy_s
  100111E5: CC CC CC CC CC CC CC CC CC CC CC CC CC CC CC CC  лллллллллллллллл
  100111F5: CC CC CC CC CC CC CC CC CC CC CC CC CC CC CC CC  лллллллллллллллл
  10011205: CC CC CC CC CC CC CC CC CC CC CC CC CC CC CC CC  лллллллллллллллл
  10011215: CC CC CC CC CC CC CC CC CC CC CC CC CC CC CC CC  лллллллллллллллл
  10011225: CC CC CC CC CC CC CC CC CC CC CC CC CC CC CC CC  лллллллллллллллл
  10011235: CC CC CC CC CC CC CC CC CC CC CC CC CC CC CC CC  лллллллллллллллл
  10011245: CC CC CC CC CC CC CC CC CC CC CC CC CC CC CC CC  лллллллллллллллл
  10011255: CC CC CC CC CC CC CC CC CC CC CC CC CC CC CC CC  лллллллллллллллл
  10011265: CC CC CC CC CC CC CC CC CC CC CC CC CC CC CC CC  лллллллллллллллл
  10011275: CC CC CC CC CC CC CC CC CC CC CC CC CC CC CC CC  лллллллллллллллл
  10011285: CC CC CC CC CC CC CC CC CC CC CC CC CC CC CC CC  лллллллллллллллл
  10011295: CC CC CC CC CC CC CC CC CC CC CC CC CC CC CC CC  лллллллллллллллл
  100112A5: CC CC CC CC CC CC CC CC CC CC CC CC CC CC CC CC  лллллллллллллллл
  100112B5: CC CC CC CC CC CC CC CC CC CC CC CC CC CC CC CC  лллллллллллллллл
  100112C5: CC CC CC CC CC CC CC CC CC CC CC CC CC CC CC CC  лллллллллллллллл
  100112D5: CC CC CC CC CC CC CC CC CC CC CC CC CC CC CC CC  лллллллллллллллл
  100112E5: CC CC CC CC CC CC CC CC CC CC CC CC CC CC CC CC  лллллллллллллллл
  100112F5: CC CC CC CC CC CC CC CC CC CC CC CC CC CC CC CC  лллллллллллллллл
  10011305: CC CC CC CC CC CC CC CC CC CC CC CC CC CC CC CC  лллллллллллллллл
  10011315: CC CC CC CC CC CC CC CC CC CC CC CC CC CC CC CC  лллллллллллллллл
  10011325: CC CC CC CC CC CC CC CC CC CC CC CC CC CC CC CC  лллллллллллллллл
  10011335: CC CC CC CC CC CC CC CC CC CC CC CC CC CC CC CC  лллллллллллллллл
  10011345: CC CC CC CC CC CC CC CC CC CC CC CC CC CC CC CC  лллллллллллллллл
  10011355: CC CC CC CC CC CC CC CC CC CC CC CC CC CC CC CC  лллллллллллллллл
  10011365: CC CC CC CC CC CC CC CC CC CC CC CC CC CC CC CC  лллллллллллллллл
  10011375: CC CC CC CC CC CC CC CC CC CC CC CC CC CC CC CC  лллллллллллллллл
  10011385: CC CC CC CC CC CC CC CC CC CC CC CC CC CC CC CC  лллллллллллллллл
  10011395: CC CC CC CC CC CC CC CC CC CC CC CC CC CC CC CC  лллллллллллллллл
  100113A5: CC CC CC CC CC CC CC CC CC CC CC CC CC CC CC CC  лллллллллллллллл
  100113B5: CC CC CC CC CC CC CC CC CC CC CC CC CC CC CC CC  лллллллллллллллл
  100113C5: CC CC CC CC CC CC CC CC CC CC CC                 ллллллллллл
_ParsePEFile:
  100113D0: 55                 push        ebp
  100113D1: 8B EC              mov         ebp,esp
  100113D3: 81 EC F4 0A 00 00  sub         esp,0AF4h
  100113D9: 53                 push        ebx
  100113DA: 56                 push        esi
  100113DB: 57                 push        edi
  100113DC: 8D BD 0C F5 FF FF  lea         edi,[ebp-0AF4h]
  100113E2: B9 BD 02 00 00     mov         ecx,2BDh
  100113E7: B8 CC CC CC CC     mov         eax,0CCCCCCCCh
  100113EC: F3 AB              rep stos    dword ptr es:[edi]
  100113EE: A1 00 C0 01 10     mov         eax,dword ptr [___security_cookie]
  100113F3: 33 C5              xor         eax,ebp
  100113F5: 89 45 FC           mov         dword ptr [ebp-4],eax
  100113F8: C7 45 F4 00 00 00  mov         dword ptr [ebp-0Ch],0
            00
  100113FF: C7 45 E8 00 00 00  mov         dword ptr [ebp-18h],0
            00
  10011406: C7 45 DC 00 00 00  mov         dword ptr [ebp-24h],0
            00
  1001140D: C7 45 D0 00 00 00  mov         dword ptr [ebp-30h],0
            00
  10011414: C7 45 C4 00 00 00  mov         dword ptr [ebp-3Ch],0
            00
  1001141B: C6 85 B3 F7 FF FF  mov         byte ptr [ebp-84Dh],0
            00
  10011422: C7 85 A4 F7 FF FF  mov         dword ptr [ebp-85Ch],0
            00 00 00 00
  1001142C: C7 85 98 F7 FF FF  mov         dword ptr [ebp-868h],0
            00 00 00 00
  10011436: C7 85 8C F7 FF FF  mov         dword ptr [ebp-874h],0
            00 00 00 00
  10011440: C6 85 33 F7 FF FF  mov         byte ptr [ebp-8CDh],0
            00
  10011447: C6 85 27 F7 FF FF  mov         byte ptr [ebp-8D9h],2Eh
            2E
  1001144E: C7 85 0C F7 FF FF  mov         dword ptr [ebp-8F4h],0
            00 00 00 00
  10011458: C6 85 03 F7 FF FF  mov         byte ptr [ebp-8FDh],0
            00
  1001145F: C6 85 F7 F6 FF FF  mov         byte ptr [ebp-909h],0
            00
  10011466: C7 85 E8 F6 FF FF  mov         dword ptr [ebp-918h],0
            00 00 00 00
  10011470: C7 85 DC F6 FF FF  mov         dword ptr [ebp-924h],0
            00 00 00 00
  1001147A: C7 85 D0 F6 FF FF  mov         dword ptr [ebp-930h],0
            00 00 00 00
  10011484: C7 85 C4 F6 FF FF  mov         dword ptr [ebp-93Ch],0
            00 00 00 00
  1001148E: C7 85 B8 F6 FF FF  mov         dword ptr [ebp-948h],0
            00 00 00 00
  10011498: C7 85 AC F6 FF FF  mov         dword ptr [ebp-954h],0
            00 00 00 00
  100114A2: C7 85 A0 F6 FF FF  mov         dword ptr [ebp-960h],0
            00 00 00 00
  100114AC: C7 85 94 F6 FF FF  mov         dword ptr [ebp-96Ch],0
            00 00 00 00
  100114B6: C7 85 88 F6 FF FF  mov         dword ptr [ebp-978h],0
            00 00 00 00
  100114C0: C7 85 7C F6 FF FF  mov         dword ptr [ebp-984h],0
            00 00 00 00
  100114CA: C7 85 70 F6 FF FF  mov         dword ptr [ebp-990h],0
            00 00 00 00
  100114D4: C7 85 64 F6 FF FF  mov         dword ptr [ebp-99Ch],0
            00 00 00 00
  100114DE: C7 85 58 F6 FF FF  mov         dword ptr [ebp-9A8h],0
            00 00 00 00
  100114E8: C7 85 4C F6 FF FF  mov         dword ptr [ebp-9B4h],0
            00 00 00 00
  100114F2: C7 85 40 F6 FF FF  mov         dword ptr [ebp-9C0h],0
            00 00 00 00
  100114FC: C7 85 34 F6 FF FF  mov         dword ptr [ebp-9CCh],0
            00 00 00 00
  10011506: C7 85 28 F6 FF FF  mov         dword ptr [ebp-9D8h],0
            00 00 00 00
  10011510: C7 85 1C F6 FF FF  mov         dword ptr [ebp-9E4h],0
            00 00 00 00
  1001151A: C7 85 10 F6 FF FF  mov         dword ptr [ebp-9F0h],0
            00 00 00 00
  10011524: C7 85 04 F6 FF FF  mov         dword ptr [ebp-9FCh],0
            00 00 00 00
  1001152E: C7 85 F8 F5 FF FF  mov         dword ptr [ebp-0A08h],0
            00 00 00 00
  10011538: C7 85 EC F5 FF FF  mov         dword ptr [ebp-0A14h],0
            00 00 00 00
  10011542: C7 85 E0 F5 FF FF  mov         dword ptr [ebp-0A20h],0
            00 00 00 00
  1001154C: C7 85 D4 F5 FF FF  mov         dword ptr [ebp-0A2Ch],0
            00 00 00 00
  10011556: 68 00 04 00 00     push        400h
  1001155B: 6A 00              push        0
  1001155D: 8D 85 BC F7 FF FF  lea         eax,[ebp-844h]
  10011563: 50                 push        eax
  10011564: E8 19 FB FF FF     call        @ILT+125(_memset)
  10011569: 83 C4 0C           add         esp,0Ch
  1001156C: 8B 45 08           mov         eax,dword ptr [ebp+8]
  1001156F: 50                 push        eax
  10011570: E8 35 FB FF FF     call        @ILT+165(_strlen)
  10011575: 83 C4 04           add         esp,4
  10011578: 8B F4              mov         esi,esp
  1001157A: 50                 push        eax
  1001157B: 8D 8D BC F7 FF FF  lea         ecx,[ebp-844h]
  10011581: 51                 push        ecx
  10011582: 6A FF              push        0FFFFFFFFh
  10011584: 8B 55 08           mov         edx,dword ptr [ebp+8]
  10011587: 52                 push        edx
  10011588: 6A 00              push        0
  1001158A: 6A 00              push        0
  1001158C: FF 15 D4 D1 01 10  call        dword ptr [__imp__MultiByteToWideChar@24]
  10011592: 3B F4              cmp         esi,esp
  10011594: E8 A7 FB FF FF     call        @ILT+315(__RTC_CheckEsp)
  10011599: 8B F4              mov         esi,esp
  1001159B: 68 E8 A5 01 10     push        offset ??_C@_0LH@CNPAJHFC@?6?$CK?$CK?$CK?$CK?$CK?$CK?$CK?$CK?$CK?$CK?$CK?$CK?$CK?$CK?$CK?$CK?$CK?$CK?$CK?$CK?$CK?$CK?$CK?$CK?$CK?$CK?$CK?$CK?$CK?$CK?$CK@
  100115A0: FF 15 E0 D2 01 10  call        dword ptr [__imp__printf]
  100115A6: 83 C4 04           add         esp,4
  100115A9: 3B F4              cmp         esi,esp
  100115AB: E8 90 FB FF FF     call        @ILT+315(__RTC_CheckEsp)
  100115B0: 8B F4              mov         esi,esp
  100115B2: 68 08 A5 01 10     push        offset ??_C@_0LI@FLBDNHGK@?6?$CK?$CK?$CK?$CK?$CK?$CK?$CK?$CK?$CK?$CK?$CK?$CK?$CK?$CK?$CK?$CK?$CK?$CK?$CK?$CK?$CK?$CK?$CK?$CK?$CK?$CK?$CK?$CK?$CK?$CK?$CK@
  100115B7: FF 15 E0 D2 01 10  call        dword ptr [__imp__printf]
  100115BD: 83 C4 04           add         esp,4
  100115C0: 3B F4              cmp         esi,esp
  100115C2: E8 79 FB FF FF     call        @ILT+315(__RTC_CheckEsp)
  100115C7: 8B F4              mov         esi,esp
  100115C9: 68 E8 A5 01 10     push        offset ??_C@_0LH@CNPAJHFC@?6?$CK?$CK?$CK?$CK?$CK?$CK?$CK?$CK?$CK?$CK?$CK?$CK?$CK?$CK?$CK?$CK?$CK?$CK?$CK?$CK?$CK?$CK?$CK?$CK?$CK?$CK?$CK?$CK?$CK?$CK?$CK@
  100115CE: FF 15 E0 D2 01 10  call        dword ptr [__imp__printf]
  100115D4: 83 C4 04           add         esp,4
  100115D7: 3B F4              cmp         esi,esp
  100115D9: E8 62 FB FF FF     call        @ILT+315(__RTC_CheckEsp)
  100115DE: 8B F4              mov         esi,esp
  100115E0: 8B 45 08           mov         eax,dword ptr [ebp+8]
  100115E3: 50                 push        eax
  100115E4: 68 E8 A4 01 10     push        offset ??_C@_0BL@NPOHLC@File?5going?5to?5parse?5is?5?$CFs?6?$AA@
  100115E9: FF 15 E0 D2 01 10  call        dword ptr [__imp__printf]
  100115EF: 83 C4 08           add         esp,8
  100115F2: 3B F4              cmp         esi,esp
  100115F4: E8 47 FB FF FF     call        @ILT+315(__RTC_CheckEsp)
  100115F9: 8B F4              mov         esi,esp
  100115FB: 6A 00              push        0
  100115FD: 68 80 00 00 00     push        80h
  10011602: 6A 03              push        3
  10011604: 6A 00              push        0
  10011606: 6A 01              push        1
  10011608: 68 00 00 00 80     push        80000000h
  1001160D: 8D 85 BC F7 FF FF  lea         eax,[ebp-844h]
  10011613: 50                 push        eax
  10011614: FF 15 D0 D1 01 10  call        dword ptr [__imp__CreateFileW@28]
  1001161A: 3B F4              cmp         esi,esp
  1001161C: E8 1F FB FF FF     call        @ILT+315(__RTC_CheckEsp)
  10011621: 89 85 4C F6 FF FF  mov         dword ptr [ebp-9B4h],eax
  10011627: 83 BD 4C F6 FF FF  cmp         dword ptr [ebp-9B4h],0
            00
  1001162E: 75 26              jne         10011656
  10011630: C7 45 F4 FE FF FF  mov         dword ptr [ebp-0Ch],0FFFFFFFEh
            FF
  10011637: 8B F4              mov         esi,esp
  10011639: 68 C0 A4 01 10     push        offset ??_C@_0BP@HLECAICO@Failed?5to?5open?5the?5input?5file?6?$AA@
  1001163E: FF 15 E0 D2 01 10  call        dword ptr [__imp__printf]
  10011644: 83 C4 04           add         esp,4
  10011647: 3B F4              cmp         esi,esp
  10011649: E8 F2 FA FF FF     call        @ILT+315(__RTC_CheckEsp)
  1001164E: 8B 45 F4           mov         eax,dword ptr [ebp-0Ch]
  10011651: E9 65 26 00 00     jmp         10013CBB
  10011656: 8B F4              mov         esi,esp
  10011658: 6A 00              push        0
  1001165A: 6A 00              push        0
  1001165C: 6A 00              push        0
  1001165E: 6A 02              push        2
  10011660: 6A 00              push        0
  10011662: 8B 85 4C F6 FF FF  mov         eax,dword ptr [ebp-9B4h]
  10011668: 50                 push        eax
  10011669: FF 15 CC D1 01 10  call        dword ptr [__imp__CreateFileMappingW@24]
  1001166F: 3B F4              cmp         esi,esp
  10011671: E8 CA FA FF FF     call        @ILT+315(__RTC_CheckEsp)
  10011676: 89 85 40 F6 FF FF  mov         dword ptr [ebp-9C0h],eax
  1001167C: 83 BD 40 F6 FF FF  cmp         dword ptr [ebp-9C0h],0
            00
  10011683: 75 3C              jne         100116C1
  10011685: C7 45 F4 FD FF FF  mov         dword ptr [ebp-0Ch],0FFFFFFFDh
            FF
  1001168C: 8B F4              mov         esi,esp
  1001168E: 68 98 A4 01 10     push        offset ??_C@_0CA@GDINAJHL@Failed?5to?5map?5the?5openned?5file?6?$AA@
  10011693: FF 15 E0 D2 01 10  call        dword ptr [__imp__printf]
  10011699: 83 C4 04           add         esp,4
  1001169C: 3B F4              cmp         esi,esp
  1001169E: E8 9D FA FF FF     call        @ILT+315(__RTC_CheckEsp)
  100116A3: 8B F4              mov         esi,esp
  100116A5: 8B 85 4C F6 FF FF  mov         eax,dword ptr [ebp-9B4h]
  100116AB: 50                 push        eax
  100116AC: FF 15 C8 D1 01 10  call        dword ptr [__imp__CloseHandle@4]
  100116B2: 3B F4              cmp         esi,esp
  100116B4: E8 87 FA FF FF     call        @ILT+315(__RTC_CheckEsp)
  100116B9: 8B 45 F4           mov         eax,dword ptr [ebp-0Ch]
  100116BC: E9 FA 25 00 00     jmp         10013CBB
  100116C1: 8B F4              mov         esi,esp
  100116C3: 6A 00              push        0
  100116C5: 6A 00              push        0
  100116C7: 6A 00              push        0
  100116C9: 6A 04              push        4
  100116CB: 8B 85 40 F6 FF FF  mov         eax,dword ptr [ebp-9C0h]
  100116D1: 50                 push        eax
  100116D2: FF 15 C4 D1 01 10  call        dword ptr [__imp__MapViewOfFile@20]
  100116D8: 3B F4              cmp         esi,esp
  100116DA: E8 61 FA FF FF     call        @ILT+315(__RTC_CheckEsp)
  100116DF: 89 85 34 F6 FF FF  mov         dword ptr [ebp-9CCh],eax
  100116E5: 83 BD 34 F6 FF FF  cmp         dword ptr [ebp-9CCh],0
            00
  100116EC: 75 52              jne         10011740
  100116EE: C7 45 F4 FC FF FF  mov         dword ptr [ebp-0Ch],0FFFFFFFCh
            FF
  100116F5: 8B F4              mov         esi,esp
  100116F7: 68 68 A4 01 10     push        offset ??_C@_0CH@MODAHAJI@Failed?5to?5get?5the?5mapped?5view?5of@
  100116FC: FF 15 E0 D2 01 10  call        dword ptr [__imp__printf]
  10011702: 83 C4 04           add         esp,4
  10011705: 3B F4              cmp         esi,esp
  10011707: E8 34 FA FF FF     call        @ILT+315(__RTC_CheckEsp)
  1001170C: 8B F4              mov         esi,esp
  1001170E: 8B 85 40 F6 FF FF  mov         eax,dword ptr [ebp-9C0h]
  10011714: 50                 push        eax
  10011715: FF 15 C8 D1 01 10  call        dword ptr [__imp__CloseHandle@4]
  1001171B: 3B F4              cmp         esi,esp
  1001171D: E8 1E FA FF FF     call        @ILT+315(__RTC_CheckEsp)
  10011722: 8B F4              mov         esi,esp
  10011724: 8B 85 4C F6 FF FF  mov         eax,dword ptr [ebp-9B4h]
  1001172A: 50                 push        eax
  1001172B: FF 15 C8 D1 01 10  call        dword ptr [__imp__CloseHandle@4]
  10011731: 3B F4              cmp         esi,esp
  10011733: E8 08 FA FF FF     call        @ILT+315(__RTC_CheckEsp)
  10011738: 8B 45 F4           mov         eax,dword ptr [ebp-0Ch]
  1001173B: E9 7B 25 00 00     jmp         10013CBB
  10011740: 8B 85 34 F6 FF FF  mov         eax,dword ptr [ebp-9CCh]
  10011746: 89 85 28 F6 FF FF  mov         dword ptr [ebp-9D8h],eax
  1001174C: 8B 85 28 F6 FF FF  mov         eax,dword ptr [ebp-9D8h]
  10011752: 0F B7 08           movzx       ecx,word ptr [eax]
  10011755: 81 F9 4D 5A 00 00  cmp         ecx,5A4Dh
  1001175B: 0F 85 B0 24 00 00  jne         10013C11
  10011761: 8B 85 28 F6 FF FF  mov         eax,dword ptr [ebp-9D8h]
  10011767: 8B 8D 28 F6 FF FF  mov         ecx,dword ptr [ebp-9D8h]
  1001176D: 03 48 3C           add         ecx,dword ptr [eax+3Ch]
  10011770: 89 8D 1C F6 FF FF  mov         dword ptr [ebp-9E4h],ecx
  10011776: 8B 85 1C F6 FF FF  mov         eax,dword ptr [ebp-9E4h]
  1001177C: 81 38 50 45 00 00  cmp         dword ptr [eax],4550h
  10011782: 0F 84 88 00 00 00  je          10011810
  10011788: 8B F4              mov         esi,esp
  1001178A: 68 4C A4 01 10     push        offset ??_C@_0BH@EIHPMLCJ@This?5is?5not?5a?5PE?5file?6?$AA@
  1001178F: FF 15 E0 D2 01 10  call        dword ptr [__imp__printf]
  10011795: 83 C4 04           add         esp,4
  10011798: 3B F4              cmp         esi,esp
  1001179A: E8 A1 F9 FF FF     call        @ILT+315(__RTC_CheckEsp)
  1001179F: 8B F4              mov         esi,esp
  100117A1: 8B 85 1C F6 FF FF  mov         eax,dword ptr [ebp-9E4h]
  100117A7: 8B 08              mov         ecx,dword ptr [eax]
  100117A9: 51                 push        ecx
  100117AA: 68 30 A4 01 10     push        offset ??_C@_0BF@NEOCJEEC@Got?5signature?5as?5?$CFd?6?$AA@
  100117AF: FF 15 E0 D2 01 10  call        dword ptr [__imp__printf]
  100117B5: 83 C4 08           add         esp,8
  100117B8: 3B F4              cmp         esi,esp
  100117BA: E8 81 F9 FF FF     call        @ILT+315(__RTC_CheckEsp)
  100117BF: C7 45 F4 FA FF FF  mov         dword ptr [ebp-0Ch],0FFFFFFFAh
            FF
  100117C6: 8B F4              mov         esi,esp
  100117C8: 8B 85 34 F6 FF FF  mov         eax,dword ptr [ebp-9CCh]
  100117CE: 50                 push        eax
  100117CF: FF 15 C0 D1 01 10  call        dword ptr [__imp__UnmapViewOfFile@4]
  100117D5: 3B F4              cmp         esi,esp
  100117D7: E8 64 F9 FF FF     call        @ILT+315(__RTC_CheckEsp)
  100117DC: 8B F4              mov         esi,esp
  100117DE: 8B 85 40 F6 FF FF  mov         eax,dword ptr [ebp-9C0h]
  100117E4: 50                 push        eax
  100117E5: FF 15 C8 D1 01 10  call        dword ptr [__imp__CloseHandle@4]
  100117EB: 3B F4              cmp         esi,esp
  100117ED: E8 4E F9 FF FF     call        @ILT+315(__RTC_CheckEsp)
  100117F2: 8B F4              mov         esi,esp
  100117F4: 8B 85 4C F6 FF FF  mov         eax,dword ptr [ebp-9B4h]
  100117FA: 50                 push        eax
  100117FB: FF 15 C8 D1 01 10  call        dword ptr [__imp__CloseHandle@4]
  10011801: 3B F4              cmp         esi,esp
  10011803: E8 38 F9 FF FF     call        @ILT+315(__RTC_CheckEsp)
  10011808: 8B 45 F4           mov         eax,dword ptr [ebp-0Ch]
  1001180B: E9 AB 24 00 00     jmp         10013CBB
  10011810: 8B 85 1C F6 FF FF  mov         eax,dword ptr [ebp-9E4h]
  10011816: 0F B7 48 04        movzx       ecx,word ptr [eax+4]
  1001181A: 89 8D 0C F5 FF FF  mov         dword ptr [ebp-0AF4h],ecx
  10011820: 81 BD 0C F5 FF FF  cmp         dword ptr [ebp-0AF4h],266h
            66 02 00 00
  1001182A: 7F 46              jg          10011872
  1001182C: 81 BD 0C F5 FF FF  cmp         dword ptr [ebp-0AF4h],266h
            66 02 00 00
  10011836: 0F 84 DA 02 00 00  je          10011B16
  1001183C: 8B 95 0C F5 FF FF  mov         edx,dword ptr [ebp-0AF4h]
  10011842: 81 EA 4C 01 00 00  sub         edx,14Ch
  10011848: 89 95 0C F5 FF FF  mov         dword ptr [ebp-0AF4h],edx
  1001184E: 81 BD 0C F5 FF FF  cmp         dword ptr [ebp-0AF4h],0B4h
            B4 00 00 00
  10011858: 0F 87 C1 03 00 00  ja          10011C1F
  1001185E: 8B 85 0C F5 FF FF  mov         eax,dword ptr [ebp-0AF4h]
  10011864: 0F B6 88 A8 3D 01  movzx       ecx,byte ptr [eax+10013DA8h]
            10
  1001186B: FF 24 8D 60 3D 01  jmp         dword ptr [ecx*4+10013D60h]
            10
  10011872: 81 BD 0C F5 FF FF  cmp         dword ptr [ebp-0AF4h],0CEFh
            EF 0C 00 00
  1001187C: 7F 66              jg          100118E4
  1001187E: 81 BD 0C F5 FF FF  cmp         dword ptr [ebp-0AF4h],0CEFh
            EF 0C 00 00
  10011888: 0F 84 14 03 00 00  je          10011BA2
  1001188E: 81 BD 0C F5 FF FF  cmp         dword ptr [ebp-0AF4h],466h
            66 04 00 00
  10011898: 7F 35              jg          100118CF
  1001189A: 81 BD 0C F5 FF FF  cmp         dword ptr [ebp-0AF4h],466h
            66 04 00 00
  100118A4: 0F 84 C0 02 00 00  je          10011B6A
  100118AA: 81 BD 0C F5 FF FF  cmp         dword ptr [ebp-0AF4h],284h
            84 02 00 00
  100118B4: 0F 84 78 02 00 00  je          10011B32
  100118BA: 81 BD 0C F5 FF FF  cmp         dword ptr [ebp-0AF4h],366h
            66 03 00 00
  100118C4: 0F 84 84 02 00 00  je          10011B4E
  100118CA: E9 50 03 00 00     jmp         10011C1F
  100118CF: 81 BD 0C F5 FF FF  cmp         dword ptr [ebp-0AF4h],520h
            20 05 00 00
  100118D9: 0F 84 A7 02 00 00  je          10011B86
  100118DF: E9 3B 03 00 00     jmp         10011C1F
  100118E4: 81 BD 0C F5 FF FF  cmp         dword ptr [ebp-0AF4h],9041h
            41 90 00 00
  100118EE: 7F 35              jg          10011925
  100118F0: 81 BD 0C F5 FF FF  cmp         dword ptr [ebp-0AF4h],9041h
            41 90 00 00
  100118FA: 0F 84 ED 02 00 00  je          10011BED
  10011900: 81 BD 0C F5 FF FF  cmp         dword ptr [ebp-0AF4h],0EBCh
            BC 0E 00 00
  1001190A: 0F 84 AB 02 00 00  je          10011BBB
  10011910: 81 BD 0C F5 FF FF  cmp         dword ptr [ebp-0AF4h],8664h
            64 86 00 00
  1001191A: 0F 84 B4 02 00 00  je          10011BD4
  10011920: E9 FA 02 00 00     jmp         10011C1F
  10011925: 81 BD 0C F5 FF FF  cmp         dword ptr [ebp-0AF4h],0C0EEh
            EE C0 00 00
  1001192F: 0F 84 D1 02 00 00  je          10011C06
  10011935: E9 E5 02 00 00     jmp         10011C1F
  1001193A: 8B F4              mov         esi,esp
  1001193C: 68 FC A3 01 10     push        offset ??_C@_0CM@CHNOCDGF@This?5PE?5File?5executes?5in?5Intel?53@
  10011941: FF 15 E0 D2 01 10  call        dword ptr [__imp__printf]
  10011947: 83 C4 04           add         esp,4
  1001194A: 3B F4              cmp         esi,esp
  1001194C: E8 EF F7 FF FF     call        @ILT+315(__RTC_CheckEsp)
  10011951: E9 E0 02 00 00     jmp         10011C36
  10011956: 8B F4              mov         esi,esp
  10011958: 68 B0 A3 01 10     push        offset ??_C@_0DP@PDBAIKPI@This?5PE?5File?5executes?5in?5MIPS?5li@
  1001195D: FF 15 E0 D2 01 10  call        dword ptr [__imp__printf]
  10011963: 83 C4 04           add         esp,4
  10011966: 3B F4              cmp         esi,esp
  10011968: E8 D3 F7 FF FF     call        @ILT+315(__RTC_CheckEsp)
  1001196D: E9 C4 02 00 00     jmp         10011C36
  10011972: 8B F4              mov         esi,esp
  10011974: 68 78 A3 01 10     push        offset ??_C@_0CN@LJPABNEE@This?5PE?5File?5executes?5in?5MIPS?5li@
  10011979: FF 15 E0 D2 01 10  call        dword ptr [__imp__printf]
  1001197F: 83 C4 04           add         esp,4
  10011982: 3B F4              cmp         esi,esp
  10011984: E8 B7 F7 FF FF     call        @ILT+315(__RTC_CheckEsp)
  10011989: E9 A8 02 00 00     jmp         10011C36
  1001198E: 8B F4              mov         esi,esp
  10011990: 68 78 A3 01 10     push        offset ??_C@_0CN@LJPABNEE@This?5PE?5File?5executes?5in?5MIPS?5li@
  10011995: FF 15 E0 D2 01 10  call        dword ptr [__imp__printf]
  1001199B: 83 C4 04           add         esp,4
  1001199E: 3B F4              cmp         esi,esp
  100119A0: E8 9B F7 FF FF     call        @ILT+315(__RTC_CheckEsp)
  100119A5: E9 8C 02 00 00     jmp         10011C36
  100119AA: 8B F4              mov         esi,esp
  100119AC: 68 38 A3 01 10     push        offset ??_C@_0DE@BHJNBOIL@This?5PE?5File?5executes?5in?5MIPS?5li@
  100119B1: FF 15 E0 D2 01 10  call        dword ptr [__imp__printf]
  100119B7: 83 C4 04           add         esp,4
  100119BA: 3B F4              cmp         esi,esp
  100119BC: E8 7F F7 FF FF     call        @ILT+315(__RTC_CheckEsp)
  100119C1: E9 70 02 00 00     jmp         10011C36
  100119C6: 8B F4              mov         esi,esp
  100119C8: 68 0C A3 01 10     push        offset ??_C@_0CE@HPOPIJOO@This?5PE?5File?5executes?5in?5Alpha_A@
  100119CD: FF 15 E0 D2 01 10  call        dword ptr [__imp__printf]
  100119D3: 83 C4 04           add         esp,4
  100119D6: 3B F4              cmp         esi,esp
  100119D8: E8 63 F7 FF FF     call        @ILT+315(__RTC_CheckEsp)
  100119DD: E9 54 02 00 00     jmp         10011C36
  100119E2: 8B F4              mov         esi,esp
  100119E4: 68 D8 A2 01 10     push        offset ??_C@_0CM@NDEBEKHL@This?5PE?5File?5executes?5in?5SH3?5lit@
  100119E9: FF 15 E0 D2 01 10  call        dword ptr [__imp__printf]
  100119EF: 83 C4 04           add         esp,4
  100119F2: 3B F4              cmp         esi,esp
  100119F4: E8 47 F7 FF FF     call        @ILT+315(__RTC_CheckEsp)
  100119F9: E9 38 02 00 00     jmp         10011C36
  100119FE: 8B F4              mov         esi,esp
  10011A00: 68 B0 A2 01 10     push        offset ??_C@_0CC@DFHCMNEP@This?5PE?5File?5executes?5in?5SH3?5DSP@
  10011A05: FF 15 E0 D2 01 10  call        dword ptr [__imp__printf]
  10011A0B: 83 C4 04           add         esp,4
  10011A0E: 3B F4              cmp         esi,esp
  10011A10: E8 2B F7 FF FF     call        @ILT+315(__RTC_CheckEsp)
  10011A15: E9 1C 02 00 00     jmp         10011C36
  10011A1A: 8B F4              mov         esi,esp
  10011A1C: 68 78 A2 01 10     push        offset ??_C@_0CN@CKAEEGBJ@This?5PE?5File?5executes?5in?5SH3E?5li@
  10011A21: FF 15 E0 D2 01 10  call        dword ptr [__imp__printf]
  10011A27: 83 C4 04           add         esp,4
  10011A2A: 3B F4              cmp         esi,esp
  10011A2C: E8 0F F7 FF FF     call        @ILT+315(__RTC_CheckEsp)
  10011A31: E9 00 02 00 00     jmp         10011C36
  10011A36: 8B F4              mov         esi,esp
  10011A38: 68 44 A2 01 10     push        offset ??_C@_0CM@PDNDDGDA@This?5PE?5File?5executes?5in?5SH4?5lit@
  10011A3D: FF 15 E0 D2 01 10  call        dword ptr [__imp__printf]
  10011A43: 83 C4 04           add         esp,4
  10011A46: 3B F4              cmp         esi,esp
  10011A48: E8 F3 F6 FF FF     call        @ILT+315(__RTC_CheckEsp)
  10011A4D: E9 E4 01 00 00     jmp         10011C36
  10011A52: 8B F4              mov         esi,esp
  10011A54: 68 20 A2 01 10     push        offset ??_C@_0BO@IHOMKEKA@This?5PE?5File?5executes?5in?5SH5?6?$AA@
  10011A59: FF 15 E0 D2 01 10  call        dword ptr [__imp__printf]
  10011A5F: 83 C4 04           add         esp,4
  10011A62: 3B F4              cmp         esi,esp
  10011A64: E8 D7 F6 FF FF     call        @ILT+315(__RTC_CheckEsp)
  10011A69: E9 C8 01 00 00     jmp         10011C36
  10011A6E: 8B F4              mov         esi,esp
  10011A70: 68 EC A1 01 10     push        offset ??_C@_0CM@NMLCIEDK@This?5PE?5File?5executes?5in?5ARM?5Lit@
  10011A75: FF 15 E0 D2 01 10  call        dword ptr [__imp__printf]
  10011A7B: 83 C4 04           add         esp,4
  10011A7E: 3B F4              cmp         esi,esp
  10011A80: E8 BB F6 FF FF     call        @ILT+315(__RTC_CheckEsp)
  10011A85: E9 AC 01 00 00     jmp         10011C36
  10011A8A: 8B F4              mov         esi,esp
  10011A8C: 68 C4 A1 01 10     push        offset ??_C@_0CA@PCAJAHHL@This?5PE?5File?5executes?5in?5Thumb?6?$AA@
  10011A91: FF 15 E0 D2 01 10  call        dword ptr [__imp__printf]
  10011A97: 83 C4 04           add         esp,4
  10011A9A: 3B F4              cmp         esi,esp
  10011A9C: E8 9F F6 FF FF     call        @ILT+315(__RTC_CheckEsp)
  10011AA1: E9 90 01 00 00     jmp         10011C36
  10011AA6: 8B F4              mov         esi,esp
  10011AA8: 68 9C A1 01 10     push        offset ??_C@_0BP@KEJBAKOF@This?5PE?5File?5executes?5in?5AM33?6?$AA@
  10011AAD: FF 15 E0 D2 01 10  call        dword ptr [__imp__printf]
  10011AB3: 83 C4 04           add         esp,4
  10011AB6: 3B F4              cmp         esi,esp
  10011AB8: E8 83 F6 FF FF     call        @ILT+315(__RTC_CheckEsp)
  10011ABD: E9 74 01 00 00     jmp         10011C36
  10011AC2: 8B F4              mov         esi,esp
  10011AC4: 68 5C A1 01 10     push        offset ??_C@_0DE@IKDLEKHA@This?5PE?5File?5executes?5in?5IBM?5Pow@
  10011AC9: FF 15 E0 D2 01 10  call        dword ptr [__imp__printf]
  10011ACF: 83 C4 04           add         esp,4
  10011AD2: 3B F4              cmp         esi,esp
  10011AD4: E8 67 F6 FF FF     call        @ILT+315(__RTC_CheckEsp)
  10011AD9: E9 58 01 00 00     jmp         10011C36
  10011ADE: 8B F4              mov         esi,esp
  10011AE0: 68 30 A1 01 10     push        offset ??_C@_0CF@DBFPNNLA@This?5PE?5File?5executes?5in?5POWER?5P@
  10011AE5: FF 15 E0 D2 01 10  call        dword ptr [__imp__printf]
  10011AEB: 83 C4 04           add         esp,4
  10011AEE: 3B F4              cmp         esi,esp
  10011AF0: E8 4B F6 FF FF     call        @ILT+315(__RTC_CheckEsp)
  10011AF5: E9 3C 01 00 00     jmp         10011C36
  10011AFA: 8B F4              mov         esi,esp
  10011AFC: 68 04 A1 01 10     push        offset ??_C@_0CD@INIAMAGF@This?5PE?5File?5executes?5in?5Intel?56@
  10011B01: FF 15 E0 D2 01 10  call        dword ptr [__imp__printf]
  10011B07: 83 C4 04           add         esp,4
  10011B0A: 3B F4              cmp         esi,esp
  10011B0C: E8 2F F6 FF FF     call        @ILT+315(__RTC_CheckEsp)
  10011B11: E9 20 01 00 00     jmp         10011C36
  10011B16: 8B F4              mov         esi,esp
  10011B18: 68 DC A0 01 10     push        offset ??_C@_0BP@EHJHPPJD@This?5PE?5File?5executes?5in?5MIPS?6?$AA@
  10011B1D: FF 15 E0 D2 01 10  call        dword ptr [__imp__printf]
  10011B23: 83 C4 04           add         esp,4
  10011B26: 3B F4              cmp         esi,esp
  10011B28: E8 13 F6 FF FF     call        @ILT+315(__RTC_CheckEsp)
  10011B2D: E9 04 01 00 00     jmp         10011C36
  10011B32: 8B F4              mov         esi,esp
  10011B34: 68 B4 A0 01 10     push        offset ??_C@_0CC@OGDBJJLA@This?5PE?5File?5executes?5in?5ALPHA64@
  10011B39: FF 15 E0 D2 01 10  call        dword ptr [__imp__printf]
  10011B3F: 83 C4 04           add         esp,4
  10011B42: 3B F4              cmp         esi,esp
  10011B44: E8 F7 F5 FF FF     call        @ILT+315(__RTC_CheckEsp)
  10011B49: E9 E8 00 00 00     jmp         10011C36
  10011B4E: 8B F4              mov         esi,esp
  10011B50: 68 DC A0 01 10     push        offset ??_C@_0BP@EHJHPPJD@This?5PE?5File?5executes?5in?5MIPS?6?$AA@
  10011B55: FF 15 E0 D2 01 10  call        dword ptr [__imp__printf]
  10011B5B: 83 C4 04           add         esp,4
  10011B5E: 3B F4              cmp         esi,esp
  10011B60: E8 DB F5 FF FF     call        @ILT+315(__RTC_CheckEsp)
  10011B65: E9 CC 00 00 00     jmp         10011C36
  10011B6A: 8B F4              mov         esi,esp
  10011B6C: 68 DC A0 01 10     push        offset ??_C@_0BP@EHJHPPJD@This?5PE?5File?5executes?5in?5MIPS?6?$AA@
  10011B71: FF 15 E0 D2 01 10  call        dword ptr [__imp__printf]
  10011B77: 83 C4 04           add         esp,4
  10011B7A: 3B F4              cmp         esi,esp
  10011B7C: E8 BF F5 FF FF     call        @ILT+315(__RTC_CheckEsp)
  10011B81: E9 B0 00 00 00     jmp         10011C36
  10011B86: 8B F4              mov         esi,esp
  10011B88: 68 88 A0 01 10     push        offset ??_C@_0CD@HOELABDL@This?5PE?5File?5executes?5in?5Infineo@
  10011B8D: FF 15 E0 D2 01 10  call        dword ptr [__imp__printf]
  10011B93: 83 C4 04           add         esp,4
  10011B96: 3B F4              cmp         esi,esp
  10011B98: E8 A3 F5 FF FF     call        @ILT+315(__RTC_CheckEsp)
  10011B9D: E9 94 00 00 00     jmp         10011C36
  10011BA2: 8B F4              mov         esi,esp
  10011BA4: 68 64 A0 01 10     push        offset ??_C@_0BO@EDNBDNPG@This?5PE?5File?5executes?5in?5CEF?6?$AA@
  10011BA9: FF 15 E0 D2 01 10  call        dword ptr [__imp__printf]
  10011BAF: 83 C4 04           add         esp,4
  10011BB2: 3B F4              cmp         esi,esp
  10011BB4: E8 87 F5 FF FF     call        @ILT+315(__RTC_CheckEsp)
  10011BB9: EB 7B              jmp         10011C36
  10011BBB: 8B F4              mov         esi,esp
  10011BBD: 68 34 A0 01 10     push        offset ??_C@_0CI@BKANMHBF@This?5PE?5File?5executes?5in?5EFI?5Byt@
  10011BC2: FF 15 E0 D2 01 10  call        dword ptr [__imp__printf]
  10011BC8: 83 C4 04           add         esp,4
  10011BCB: 3B F4              cmp         esi,esp
  10011BCD: E8 6E F5 FF FF     call        @ILT+315(__RTC_CheckEsp)
  10011BD2: EB 62              jmp         10011C36
  10011BD4: 8B F4              mov         esi,esp
  10011BD6: 68 08 A0 01 10     push        offset ??_C@_0CF@OKHMOJDI@This?5PE?5File?5executes?5in?5AMD64?5?$CI@
  10011BDB: FF 15 E0 D2 01 10  call        dword ptr [__imp__printf]
  10011BE1: 83 C4 04           add         esp,4
  10011BE4: 3B F4              cmp         esi,esp
  10011BE6: E8 55 F5 FF FF     call        @ILT+315(__RTC_CheckEsp)
  10011BEB: EB 49              jmp         10011C36
  10011BED: 8B F4              mov         esi,esp
  10011BEF: 68 D0 9F 01 10     push        offset ??_C@_0CN@NJJCMPJG@This?5PE?5File?5executes?5in?5M32R?5li@
  10011BF4: FF 15 E0 D2 01 10  call        dword ptr [__imp__printf]
  10011BFA: 83 C4 04           add         esp,4
  10011BFD: 3B F4              cmp         esi,esp
  10011BFF: E8 3C F5 FF FF     call        @ILT+315(__RTC_CheckEsp)
  10011C04: EB 30              jmp         10011C36
  10011C06: 8B F4              mov         esi,esp
  10011C08: 68 AC 9F 01 10     push        offset ??_C@_0BO@EBJHIDKP@This?5PE?5File?5executes?5in?5CEE?6?$AA@
  10011C0D: FF 15 E0 D2 01 10  call        dword ptr [__imp__printf]
  10011C13: 83 C4 04           add         esp,4
  10011C16: 3B F4              cmp         esi,esp
  10011C18: E8 23 F5 FF FF     call        @ILT+315(__RTC_CheckEsp)
  10011C1D: EB 17              jmp         10011C36
  10011C1F: 8B F4              mov         esi,esp
  10011C21: 68 70 9F 01 10     push        offset ??_C@_0DB@BMDGKFLA@This?5PE?5File?5executes?5in?5UNKOWN?5@
  10011C26: FF 15 E0 D2 01 10  call        dword ptr [__imp__printf]
  10011C2C: 83 C4 04           add         esp,4
  10011C2F: 3B F4              cmp         esi,esp
  10011C31: E8 0A F5 FF FF     call        @ILT+315(__RTC_CheckEsp)
  10011C36: 8B 85 1C F6 FF FF  mov         eax,dword ptr [ebp-9E4h]
  10011C3C: 0F B7 48 16        movzx       ecx,word ptr [eax+16h]
  10011C40: 83 E1 02           and         ecx,2
  10011C43: 74 17              je          10011C5C
  10011C45: 8B F4              mov         esi,esp
  10011C47: 68 54 9F 01 10     push        offset ??_C@_0BH@GCBNCBAI@This?5is?5an?5executable?6?$AA@
  10011C4C: FF 15 E0 D2 01 10  call        dword ptr [__imp__printf]
  10011C52: 83 C4 04           add         esp,4
  10011C55: 3B F4              cmp         esi,esp
  10011C57: E8 E4 F4 FF FF     call        @ILT+315(__RTC_CheckEsp)
  10011C5C: 8B 85 1C F6 FF FF  mov         eax,dword ptr [ebp-9E4h]
  10011C62: 0F B7 48 16        movzx       ecx,word ptr [eax+16h]
  10011C66: 81 E1 00 20 00 00  and         ecx,2000h
  10011C6C: 74 1E              je          10011C8C
  10011C6E: 8B F4              mov         esi,esp
  10011C70: 68 44 9F 01 10     push        offset ??_C@_0N@EJKGBLNL@This?5is?5DLL?6?$AA@
  10011C75: FF 15 E0 D2 01 10  call        dword ptr [__imp__printf]
  10011C7B: 83 C4 04           add         esp,4
  10011C7E: 3B F4              cmp         esi,esp
  10011C80: E8 BB F4 FF FF     call        @ILT+315(__RTC_CheckEsp)
  10011C85: C6 85 03 F7 FF FF  mov         byte ptr [ebp-8FDh],1
            01
  10011C8C: 8B 85 1C F6 FF FF  mov         eax,dword ptr [ebp-9E4h]
  10011C92: 0F B7 48 16        movzx       ecx,word ptr [eax+16h]
  10011C96: 83 E1 01           and         ecx,1
  10011C99: 74 17              je          10011CB2
  10011C9B: 8B F4              mov         esi,esp
  10011C9D: 68 10 9F 01 10     push        offset ??_C@_0CK@EIAFLIFH@In?5this?5file?5Relocation?5info?5is?5@
  10011CA2: FF 15 E0 D2 01 10  call        dword ptr [__imp__printf]
  10011CA8: 83 C4 04           add         esp,4
  10011CAB: 3B F4              cmp         esi,esp
  10011CAD: E8 8E F4 FF FF     call        @ILT+315(__RTC_CheckEsp)
  10011CB2: 8B 85 1C F6 FF FF  mov         eax,dword ptr [ebp-9E4h]
  10011CB8: 0F B7 48 16        movzx       ecx,word ptr [eax+16h]
  10011CBC: 83 E1 04           and         ecx,4
  10011CBF: 74 17              je          10011CD8
  10011CC1: 8B F4              mov         esi,esp
  10011CC3: 68 E0 9E 01 10     push        offset ??_C@_0CI@MFLGOIND@In?5this?5file?5Line?5nunbers?5are?5st@
  10011CC8: FF 15 E0 D2 01 10  call        dword ptr [__imp__printf]
  10011CCE: 83 C4 04           add         esp,4
  10011CD1: 3B F4              cmp         esi,esp
  10011CD3: E8 68 F4 FF FF     call        @ILT+315(__RTC_CheckEsp)
  10011CD8: 8B 85 1C F6 FF FF  mov         eax,dword ptr [ebp-9E4h]
  10011CDE: 0F B7 48 16        movzx       ecx,word ptr [eax+16h]
  10011CE2: 83 E1 08           and         ecx,8
  10011CE5: 74 17              je          10011CFE
  10011CE7: 8B F4              mov         esi,esp
  10011CE9: 68 AC 9E 01 10     push        offset ??_C@_0CJ@DNFMLKCF@In?5this?5file?5Local?5symbols?5are?5s@
  10011CEE: FF 15 E0 D2 01 10  call        dword ptr [__imp__printf]
  10011CF4: 83 C4 04           add         esp,4
  10011CF7: 3B F4              cmp         esi,esp
  10011CF9: E8 42 F4 FF FF     call        @ILT+315(__RTC_CheckEsp)
  10011CFE: 8B 85 1C F6 FF FF  mov         eax,dword ptr [ebp-9E4h]
  10011D04: 0F B7 48 16        movzx       ecx,word ptr [eax+16h]
  10011D08: 83 E1 10           and         ecx,10h
  10011D0B: 74 17              je          10011D24
  10011D0D: 8B F4              mov         esi,esp
  10011D0F: 68 78 9E 01 10     push        offset ??_C@_0CL@KIHDKEFO@In?5this?5file?5Agressively?5trim?5wo@
  10011D14: FF 15 E0 D2 01 10  call        dword ptr [__imp__printf]
  10011D1A: 83 C4 04           add         esp,4
  10011D1D: 3B F4              cmp         esi,esp
  10011D1F: E8 1C F4 FF FF     call        @ILT+315(__RTC_CheckEsp)
  10011D24: 8B 85 1C F6 FF FF  mov         eax,dword ptr [ebp-9E4h]
  10011D2A: 0F B7 48 16        movzx       ecx,word ptr [eax+16h]
  10011D2E: 83 E1 20           and         ecx,20h
  10011D31: 74 17              je          10011D4A
  10011D33: 8B F4              mov         esi,esp
  10011D35: 68 4C 9E 01 10     push        offset ??_C@_0CE@BKFPLBC@This?5App?5can?5handle?5?$DO2gb?5address@
  10011D3A: FF 15 E0 D2 01 10  call        dword ptr [__imp__printf]
  10011D40: 83 C4 04           add         esp,4
  10011D43: 3B F4              cmp         esi,esp
  10011D45: E8 F6 F3 FF FF     call        @ILT+315(__RTC_CheckEsp)
  10011D4A: 8B 85 1C F6 FF FF  mov         eax,dword ptr [ebp-9E4h]
  10011D50: 0F B7 48 16        movzx       ecx,word ptr [eax+16h]
  10011D54: 81 E1 80 00 00 00  and         ecx,80h
  10011D5A: 74 17              je          10011D73
  10011D5C: 8B F4              mov         esi,esp
  10011D5E: 68 20 9E 01 10     push        offset ??_C@_0CE@POBNOM@Bytes?5of?5machine?5word?5are?5revers@
  10011D63: FF 15 E0 D2 01 10  call        dword ptr [__imp__printf]
  10011D69: 83 C4 04           add         esp,4
  10011D6C: 3B F4              cmp         esi,esp
  10011D6E: E8 CD F3 FF FF     call        @ILT+315(__RTC_CheckEsp)
  10011D73: 8B 85 1C F6 FF FF  mov         eax,dword ptr [ebp-9E4h]
  10011D79: 0F B7 48 16        movzx       ecx,word ptr [eax+16h]
  10011D7D: 81 E1 00 01 00 00  and         ecx,100h
  10011D83: 74 17              je          10011D9C
  10011D85: 8B F4              mov         esi,esp
  10011D87: 68 04 9E 01 10     push        offset ??_C@_0BF@KJNLEDCO@32?5bit?5word?5machine?6?$AA@
  10011D8C: FF 15 E0 D2 01 10  call        dword ptr [__imp__printf]
  10011D92: 83 C4 04           add         esp,4
  10011D95: 3B F4              cmp         esi,esp
  10011D97: E8 A4 F3 FF FF     call        @ILT+315(__RTC_CheckEsp)
  10011D9C: 8B 85 1C F6 FF FF  mov         eax,dword ptr [ebp-9E4h]
  10011DA2: 0F B7 48 16        movzx       ecx,word ptr [eax+16h]
  10011DA6: 81 E1 00 02 00 00  and         ecx,200h
  10011DAC: 74 17              je          10011DC5
  10011DAE: 8B F4              mov         esi,esp
  10011DB0: 68 C8 9D 01 10     push        offset ??_C@_0DA@JPEFNOLC@Debugging?5info?5stripped?5from?5fil@
  10011DB5: FF 15 E0 D2 01 10  call        dword ptr [__imp__printf]
  10011DBB: 83 C4 04           add         esp,4
  10011DBE: 3B F4              cmp         esi,esp
  10011DC0: E8 7B F3 FF FF     call        @ILT+315(__RTC_CheckEsp)
  10011DC5: 8B 85 1C F6 FF FF  mov         eax,dword ptr [ebp-9E4h]
  10011DCB: 0F B7 48 16        movzx       ecx,word ptr [eax+16h]
  10011DCF: 81 E1 00 04 00 00  and         ecx,400h
  10011DD5: 74 17              je          10011DEE
  10011DD7: 8B F4              mov         esi,esp
  10011DD9: 68 78 9D 01 10     push        offset ??_C@_0EB@FBDHLOBE@If?5Image?5is?5on?5removable?5media?0?5@
  10011DDE: FF 15 E0 D2 01 10  call        dword ptr [__imp__printf]
  10011DE4: 83 C4 04           add         esp,4
  10011DE7: 3B F4              cmp         esi,esp
  10011DE9: E8 52 F3 FF FF     call        @ILT+315(__RTC_CheckEsp)
  10011DEE: 8B 85 1C F6 FF FF  mov         eax,dword ptr [ebp-9E4h]
  10011DF4: 0F B7 48 16        movzx       ecx,word ptr [eax+16h]
  10011DF8: 81 E1 00 08 00 00  and         ecx,800h
  10011DFE: 74 17              je          10011E17
  10011E00: 8B F4              mov         esi,esp
  10011E02: 68 38 9D 01 10     push        offset ??_C@_0DF@LICEMCGD@If?5Image?5is?5on?5Net?0?5copy?5and?5run@
  10011E07: FF 15 E0 D2 01 10  call        dword ptr [__imp__printf]
  10011E0D: 83 C4 04           add         esp,4
  10011E10: 3B F4              cmp         esi,esp
  10011E12: E8 29 F3 FF FF     call        @ILT+315(__RTC_CheckEsp)
  10011E17: 8B 85 1C F6 FF FF  mov         eax,dword ptr [ebp-9E4h]
  10011E1D: 0F B7 48 16        movzx       ecx,word ptr [eax+16h]
  10011E21: 81 E1 00 10 00 00  and         ecx,1000h
  10011E27: 74 17              je          10011E40
  10011E29: 8B F4              mov         esi,esp
  10011E2B: 68 1C 9D 01 10     push        offset ??_C@_0BH@GLPJMEPD@This?5is?5a?5System?5File?6?$AA@
  10011E30: FF 15 E0 D2 01 10  call        dword ptr [__imp__printf]
  10011E36: 83 C4 04           add         esp,4
  10011E39: 3B F4              cmp         esi,esp
  10011E3B: E8 00 F3 FF FF     call        @ILT+315(__RTC_CheckEsp)
  10011E40: 8B 85 1C F6 FF FF  mov         eax,dword ptr [ebp-9E4h]
  10011E46: 0F B7 48 16        movzx       ecx,word ptr [eax+16h]
  10011E4A: 81 E1 00 40 00 00  and         ecx,4000h
  10011E50: 74 17              je          10011E69
  10011E52: 8B F4              mov         esi,esp
  10011E54: 68 E8 9C 01 10     push        offset ??_C@_0CJ@NIIGDAHC@File?5should?5only?5be?5run?5on?5a?5UP?5@
  10011E59: FF 15 E0 D2 01 10  call        dword ptr [__imp__printf]
  10011E5F: 83 C4 04           add         esp,4
  10011E62: 3B F4              cmp         esi,esp
  10011E64: E8 D7 F2 FF FF     call        @ILT+315(__RTC_CheckEsp)
  10011E69: 8B 85 1C F6 FF FF  mov         eax,dword ptr [ebp-9E4h]
  10011E6F: 0F B7 48 16        movzx       ecx,word ptr [eax+16h]
  10011E73: 81 E1 00 80 00 00  and         ecx,8000h
  10011E79: 74 17              je          10011E92
  10011E7B: 8B F4              mov         esi,esp
  10011E7D: 68 20 9E 01 10     push        offset ??_C@_0CE@POBNOM@Bytes?5of?5machine?5word?5are?5revers@
  10011E82: FF 15 E0 D2 01 10  call        dword ptr [__imp__printf]
  10011E88: 83 C4 04           add         esp,4
  10011E8B: 3B F4              cmp         esi,esp
  10011E8D: E8 AE F2 FF FF     call        @ILT+315(__RTC_CheckEsp)
  10011E92: 8B 85 1C F6 FF FF  mov         eax,dword ptr [ebp-9E4h]
  10011E98: 0F B7 48 06        movzx       ecx,word ptr [eax+6]
  10011E9C: 8B F4              mov         esi,esp
  10011E9E: 51                 push        ecx
  10011E9F: 68 CC 9C 01 10     push        offset ??_C@_0BI@FMFKPJKF@Number?5of?5sections?5?3?$CFd?6?$AA@
  10011EA4: FF 15 E0 D2 01 10  call        dword ptr [__imp__printf]
  10011EAA: 83 C4 08           add         esp,8
  10011EAD: 3B F4              cmp         esi,esp
  10011EAF: E8 8C F2 FF FF     call        @ILT+315(__RTC_CheckEsp)
  10011EB4: 8B 85 1C F6 FF FF  mov         eax,dword ptr [ebp-9E4h]
  10011EBA: 0F B7 48 14        movzx       ecx,word ptr [eax+14h]
  10011EBE: 8B F4              mov         esi,esp
  10011EC0: 51                 push        ecx
  10011EC1: 68 A8 9C 01 10     push        offset ??_C@_0BN@HPLIMNNJ@Size?5of?5optional?5header?3?5?$CFd?6?$AA@
  10011EC6: FF 15 E0 D2 01 10  call        dword ptr [__imp__printf]
  10011ECC: 83 C4 08           add         esp,8
  10011ECF: 3B F4              cmp         esi,esp
  10011ED1: E8 6A F2 FF FF     call        @ILT+315(__RTC_CheckEsp)
  10011ED6: 8B F4              mov         esi,esp
  10011ED8: 8B 85 1C F6 FF FF  mov         eax,dword ptr [ebp-9E4h]
  10011EDE: 8B 48 10           mov         ecx,dword ptr [eax+10h]
  10011EE1: 51                 push        ecx
  10011EE2: 68 8C 9C 01 10     push        offset ??_C@_0BH@CJAFAMKF@Number?5of?5symbols?3?5?$CFd?6?$AA@
  10011EE7: FF 15 E0 D2 01 10  call        dword ptr [__imp__printf]
  10011EED: 83 C4 08           add         esp,8
  10011EF0: 3B F4              cmp         esi,esp
  10011EF2: E8 49 F2 FF FF     call        @ILT+315(__RTC_CheckEsp)
  10011EF7: 8B F4              mov         esi,esp
  10011EF9: 8B 85 1C F6 FF FF  mov         eax,dword ptr [ebp-9E4h]
  10011EFF: 8B 48 0C           mov         ecx,dword ptr [eax+0Ch]
  10011F02: 51                 push        ecx
  10011F03: 68 64 9C 01 10     push        offset ??_C@_0CB@IJFDOKHM@Address?5of?5the?5Symbol?5table?3?5?$CFd?6@
  10011F08: FF 15 E0 D2 01 10  call        dword ptr [__imp__printf]
  10011F0E: 83 C4 08           add         esp,8
  10011F11: 3B F4              cmp         esi,esp
  10011F13: E8 28 F2 FF FF     call        @ILT+315(__RTC_CheckEsp)
  10011F18: 8B 85 1C F6 FF FF  mov         eax,dword ptr [ebp-9E4h]
  10011F1E: 0F B7 48 18        movzx       ecx,word ptr [eax+18h]
  10011F22: 81 F9 0B 01 00 00  cmp         ecx,10Bh
  10011F28: 75 19              jne         10011F43
  10011F2A: 8B F4              mov         esi,esp
  10011F2C: 68 40 9C 01 10     push        offset ??_C@_0BM@LOBGHOON@This?5is?532?5bit?5application?6?$AA@
  10011F31: FF 15 E0 D2 01 10  call        dword ptr [__imp__printf]
  10011F37: 83 C4 04           add         esp,4
  10011F3A: 3B F4              cmp         esi,esp
  10011F3C: E8 FF F1 FF FF     call        @ILT+315(__RTC_CheckEsp)
  10011F41: EB 54              jmp         10011F97
  10011F43: 8B 85 1C F6 FF FF  mov         eax,dword ptr [ebp-9E4h]
  10011F49: 0F B7 48 18        movzx       ecx,word ptr [eax+18h]
  10011F4D: 81 F9 0B 02 00 00  cmp         ecx,20Bh
  10011F53: 75 19              jne         10011F6E
  10011F55: 8B F4              mov         esi,esp
  10011F57: 68 1C 9C 01 10     push        offset ??_C@_0BO@JNMCOPCK@This?5is?5a?564?5bit?5application?6?$AA@
  10011F5C: FF 15 E0 D2 01 10  call        dword ptr [__imp__printf]
  10011F62: 83 C4 04           add         esp,4
  10011F65: 3B F4              cmp         esi,esp
  10011F67: E8 D4 F1 FF FF     call        @ILT+315(__RTC_CheckEsp)
  10011F6C: EB 29              jmp         10011F97
  10011F6E: 8B 85 1C F6 FF FF  mov         eax,dword ptr [ebp-9E4h]
  10011F74: 0F B7 48 18        movzx       ecx,word ptr [eax+18h]
  10011F78: 81 F9 07 01 00 00  cmp         ecx,107h
  10011F7E: 75 17              jne         10011F97
  10011F80: 8B F4              mov         esi,esp
  10011F82: 68 00 9C 01 10     push        offset ??_C@_0BF@GJKNHDEB@This?5is?5a?5ROM?5image?6?$AA@
  10011F87: FF 15 E0 D2 01 10  call        dword ptr [__imp__printf]
  10011F8D: 83 C4 04           add         esp,4
  10011F90: 3B F4              cmp         esi,esp
  10011F92: E8 A9 F1 FF FF     call        @ILT+315(__RTC_CheckEsp)
  10011F97: 8B F4              mov         esi,esp
  10011F99: 8B 85 1C F6 FF FF  mov         eax,dword ptr [ebp-9E4h]
  10011F9F: 8B 48 1C           mov         ecx,dword ptr [eax+1Ch]
  10011FA2: 51                 push        ecx
  10011FA3: 68 E8 9B 01 10     push        offset ??_C@_0BC@HJLPDCBK@Size?5of?5code?3?5?$CFd?6?$AA@
  10011FA8: FF 15 E0 D2 01 10  call        dword ptr [__imp__printf]
  10011FAE: 83 C4 08           add         esp,8
  10011FB1: 3B F4              cmp         esi,esp
  10011FB3: E8 88 F1 FF FF     call        @ILT+315(__RTC_CheckEsp)
  10011FB8: 8B F4              mov         esi,esp
  10011FBA: 8B 85 1C F6 FF FF  mov         eax,dword ptr [ebp-9E4h]
  10011FC0: 8B 48 54           mov         ecx,dword ptr [eax+54h]
  10011FC3: 51                 push        ecx
  10011FC4: 68 CC 9B 01 10     push        offset ??_C@_0BF@OCMPCLDB@Size?5of?5Headers?3?5?$CFd?6?$AA@
  10011FC9: FF 15 E0 D2 01 10  call        dword ptr [__imp__printf]
  10011FCF: 83 C4 08           add         esp,8
  10011FD2: 3B F4              cmp         esi,esp
  10011FD4: E8 67 F1 FF FF     call        @ILT+315(__RTC_CheckEsp)
  10011FD9: 8B F4              mov         esi,esp
  10011FDB: 8B 85 1C F6 FF FF  mov         eax,dword ptr [ebp-9E4h]
  10011FE1: 8B 48 6C           mov         ecx,dword ptr [eax+6Ch]
  10011FE4: 51                 push        ecx
  10011FE5: 68 A4 9B 01 10     push        offset ??_C@_0CC@EIHFHCON@Size?5of?5Heap?5to?5be?5committed?3?5?$CFd@
  10011FEA: FF 15 E0 D2 01 10  call        dword ptr [__imp__printf]
  10011FF0: 83 C4 08           add         esp,8
  10011FF3: 3B F4              cmp         esi,esp
  10011FF5: E8 46 F1 FF FF     call        @ILT+315(__RTC_CheckEsp)
  10011FFA: 8B F4              mov         esi,esp
  10011FFC: 8B 85 1C F6 FF FF  mov         eax,dword ptr [ebp-9E4h]
  10012002: 8B 48 68           mov         ecx,dword ptr [eax+68h]
  10012005: 51                 push        ecx
  10012006: 68 7C 9B 01 10     push        offset ??_C@_0CB@PPGLPEPC@Size?5of?5Heap?5to?5be?5reserved?3?5?$CFd?6@
  1001200B: FF 15 E0 D2 01 10  call        dword ptr [__imp__printf]
  10012011: 83 C4 08           add         esp,8
  10012014: 3B F4              cmp         esi,esp
  10012016: E8 25 F1 FF FF     call        @ILT+315(__RTC_CheckEsp)
  1001201B: 8B F4              mov         esi,esp
  1001201D: 8B 85 1C F6 FF FF  mov         eax,dword ptr [ebp-9E4h]
  10012023: 8B 48 50           mov         ecx,dword ptr [eax+50h]
  10012026: 51                 push        ecx
  10012027: 68 64 9B 01 10     push        offset ??_C@_0BD@LBFBAFDP@Size?5of?5Image?3?5?$CFd?6?$AA@
  1001202C: FF 15 E0 D2 01 10  call        dword ptr [__imp__printf]
  10012032: 83 C4 08           add         esp,8
  10012035: 3B F4              cmp         esi,esp
  10012037: E8 04 F1 FF FF     call        @ILT+315(__RTC_CheckEsp)
  1001203C: 8B F4              mov         esi,esp
  1001203E: 8B 85 1C F6 FF FF  mov         eax,dword ptr [ebp-9E4h]
  10012044: 8B 48 20           mov         ecx,dword ptr [eax+20h]
  10012047: 51                 push        ecx
  10012048: 68 40 9B 01 10     push        offset ??_C@_0BO@KPLLGBAF@Size?5of?5initialized?5Data?3?5?$CFd?6?$AA@
  1001204D: FF 15 E0 D2 01 10  call        dword ptr [__imp__printf]
  10012053: 83 C4 08           add         esp,8
  10012056: 3B F4              cmp         esi,esp
  10012058: E8 E3 F0 FF FF     call        @ILT+315(__RTC_CheckEsp)
  1001205D: 8B F4              mov         esi,esp
  1001205F: 8B 85 1C F6 FF FF  mov         eax,dword ptr [ebp-9E4h]
  10012065: 8B 48 64           mov         ecx,dword ptr [eax+64h]
  10012068: 51                 push        ecx
  10012069: 68 14 9B 01 10     push        offset ??_C@_0CD@MKCBOPLG@Size?5of?5Stack?5to?5be?5committed?3?5?$CF@
  1001206E: FF 15 E0 D2 01 10  call        dword ptr [__imp__printf]
  10012074: 83 C4 08           add         esp,8
  10012077: 3B F4              cmp         esi,esp
  10012079: E8 C2 F0 FF FF     call        @ILT+315(__RTC_CheckEsp)
  1001207E: 8B F4              mov         esi,esp
  10012080: 8B 85 1C F6 FF FF  mov         eax,dword ptr [ebp-9E4h]
  10012086: 8B 48 60           mov         ecx,dword ptr [eax+60h]
  10012089: 51                 push        ecx
  1001208A: 68 EC 9A 01 10     push        offset ??_C@_0CC@KDACGOKE@Size?5of?5Stack?5to?5be?5reserved?3?5?$CFd@
  1001208F: FF 15 E0 D2 01 10  call        dword ptr [__imp__printf]
  10012095: 83 C4 08           add         esp,8
  10012098: 3B F4              cmp         esi,esp
  1001209A: E8 A1 F0 FF FF     call        @ILT+315(__RTC_CheckEsp)
  1001209F: 8B F4              mov         esi,esp
  100120A1: 8B 85 1C F6 FF FF  mov         eax,dword ptr [ebp-9E4h]
  100120A7: 8B 48 24           mov         ecx,dword ptr [eax+24h]
  100120AA: 51                 push        ecx
  100120AB: 68 C4 9A 01 10     push        offset ??_C@_0CA@DPDLKIPM@Size?5of?5uninitialized?5data?3?5?$CFd?6?$AA@
  100120B0: FF 15 E0 D2 01 10  call        dword ptr [__imp__printf]
  100120B6: 83 C4 08           add         esp,8
  100120B9: 3B F4              cmp         esi,esp
  100120BB: E8 80 F0 FF FF     call        @ILT+315(__RTC_CheckEsp)
  100120C0: 8B F4              mov         esi,esp
  100120C2: 8B 85 1C F6 FF FF  mov         eax,dword ptr [ebp-9E4h]
  100120C8: 8B 48 28           mov         ecx,dword ptr [eax+28h]
  100120CB: 51                 push        ecx
  100120CC: 68 A0 9A 01 10     push        offset ??_C@_0BM@JEMCIKGJ@Address?5of?5Entry?5point?3?5?$CFd?6?$AA@
  100120D1: FF 15 E0 D2 01 10  call        dword ptr [__imp__printf]
  100120D7: 83 C4 08           add         esp,8
  100120DA: 3B F4              cmp         esi,esp
  100120DC: E8 5F F0 FF FF     call        @ILT+315(__RTC_CheckEsp)
  100120E1: 8B F4              mov         esi,esp
  100120E3: 8B 85 1C F6 FF FF  mov         eax,dword ptr [ebp-9E4h]
  100120E9: 8B 48 30           mov         ecx,dword ptr [eax+30h]
  100120EC: 51                 push        ecx
  100120ED: 68 88 9A 01 10     push        offset ??_C@_0BC@GOJCEPKA@Base?5of?5Data?3?5?$CFd?6?$AA@
  100120F2: FF 15 E0 D2 01 10  call        dword ptr [__imp__printf]
  100120F8: 83 C4 08           add         esp,8
  100120FB: 3B F4              cmp         esi,esp
  100120FD: E8 3E F0 FF FF     call        @ILT+315(__RTC_CheckEsp)
  10012102: 8B F4              mov         esi,esp
  10012104: 8B 85 1C F6 FF FF  mov         eax,dword ptr [ebp-9E4h]
  1001210A: 8B 48 2C           mov         ecx,dword ptr [eax+2Ch]
  1001210D: 51                 push        ecx
  1001210E: 68 70 9A 01 10     push        offset ??_C@_0BC@MMHIJKHD@Base?5of?5Code?3?5?$CFd?6?$AA@
  10012113: FF 15 E0 D2 01 10  call        dword ptr [__imp__printf]
  10012119: 83 C4 08           add         esp,8
  1001211C: 3B F4              cmp         esi,esp
  1001211E: E8 1D F0 FF FF     call        @ILT+315(__RTC_CheckEsp)
  10012123: 8B F4              mov         esi,esp
  10012125: 8B 85 1C F6 FF FF  mov         eax,dword ptr [ebp-9E4h]
  1001212B: 8B 48 34           mov         ecx,dword ptr [eax+34h]
  1001212E: 51                 push        ecx
  1001212F: 68 5C 9A 01 10     push        offset ??_C@_0BA@GGLFDFAJ@Image?5Base?3?5?$CFd?6?$AA@
  10012134: FF 15 E0 D2 01 10  call        dword ptr [__imp__printf]
  1001213A: 83 C4 08           add         esp,8
  1001213D: 3B F4              cmp         esi,esp
  1001213F: E8 FC EF FF FF     call        @ILT+315(__RTC_CheckEsp)
  10012144: 8B 85 1C F6 FF FF  mov         eax,dword ptr [ebp-9E4h]
  1001214A: 0F B7 48 5C        movzx       ecx,word ptr [eax+5Ch]
  1001214E: 89 8D 0C F5 FF FF  mov         dword ptr [ebp-0AF4h],ecx
  10012154: 8B 95 0C F5 FF FF  mov         edx,dword ptr [ebp-0AF4h]
  1001215A: 83 EA 01           sub         edx,1
  1001215D: 89 95 0C F5 FF FF  mov         dword ptr [ebp-0AF4h],edx
  10012163: 83 BD 0C F5 FF FF  cmp         dword ptr [ebp-0AF4h],0Fh
            0F
  1001216A: 0F 87 4E 01 00 00  ja          100122BE
  10012170: 8B 85 0C F5 FF FF  mov         eax,dword ptr [ebp-0AF4h]
  10012176: FF 24 85 60 3E 01  jmp         dword ptr [eax*4+10013E60h]
            10
  1001217D: 8B F4              mov         esi,esp
  1001217F: 68 30 9A 01 10     push        offset ??_C@_0CD@MALJMBB@This?5doesnt?5require?5any?5subsyste@
  10012184: FF 15 E0 D2 01 10  call        dword ptr [__imp__printf]
  1001218A: 83 C4 04           add         esp,4
  1001218D: 3B F4              cmp         esi,esp
  1001218F: E8 AC EF FF FF     call        @ILT+315(__RTC_CheckEsp)
  10012194: E9 3C 01 00 00     jmp         100122D5
  10012199: 8B F4              mov         esi,esp
  1001219B: 68 10 9A 01 10     push        offset ??_C@_0BL@HNGJIFMJ@This?5is?5a?5GUI?5application?6?$AA@
  100121A0: FF 15 E0 D2 01 10  call        dword ptr [__imp__printf]
  100121A6: 83 C4 04           add         esp,4
  100121A9: 3B F4              cmp         esi,esp
  100121AB: E8 90 EF FF FF     call        @ILT+315(__RTC_CheckEsp)
  100121B0: E9 20 01 00 00     jmp         100122D5
  100121B5: 8B F4              mov         esi,esp
  100121B7: 68 D8 99 01 10     push        offset ??_C@_0CO@OMDNEPBH@This?5is?5a?5command?5line?5interface@
  100121BC: FF 15 E0 D2 01 10  call        dword ptr [__imp__printf]
  100121C2: 83 C4 04           add         esp,4
  100121C5: 3B F4              cmp         esi,esp
  100121C7: E8 74 EF FF FF     call        @ILT+315(__RTC_CheckEsp)
  100121CC: E9 04 01 00 00     jmp         100122D5
  100121D1: 8B F4              mov         esi,esp
  100121D3: 68 B0 99 01 10     push        offset ??_C@_0CC@EOGJKPGC@This?5requires?5OS?12?5CUI?5subsystem@
  100121D8: FF 15 E0 D2 01 10  call        dword ptr [__imp__printf]
  100121DE: 83 C4 04           add         esp,4
  100121E1: 3B F4              cmp         esi,esp
  100121E3: E8 58 EF FF FF     call        @ILT+315(__RTC_CheckEsp)
  100121E8: E9 E8 00 00 00     jmp         100122D5
  100121ED: 8B F4              mov         esi,esp
  100121EF: 68 84 99 01 10     push        offset ??_C@_0CD@NALAOEKC@This?5requires?5POSIX?5CUI?5subsyste@
  100121F4: FF 15 E0 D2 01 10  call        dword ptr [__imp__printf]
  100121FA: 83 C4 04           add         esp,4
  100121FD: 3B F4              cmp         esi,esp
  100121FF: E8 3C EF FF FF     call        @ILT+315(__RTC_CheckEsp)
  10012204: E9 CC 00 00 00     jmp         100122D5
  10012209: 8B F4              mov         esi,esp
  1001220B: 68 5C 99 01 10     push        offset ??_C@_0CB@GCPFGNMN@This?5requires?5Windows?5CE?5system?6@
  10012210: FF 15 E0 D2 01 10  call        dword ptr [__imp__printf]
  10012216: 83 C4 04           add         esp,4
  10012219: 3B F4              cmp         esi,esp
  1001221B: E8 20 EF FF FF     call        @ILT+315(__RTC_CheckEsp)
  10012220: E9 B0 00 00 00     jmp         100122D5
  10012225: 8B F4              mov         esi,esp
  10012227: 68 14 99 01 10     push        offset ??_C@_0DM@DOPPGHEE@This?5is?5an?5Extensible?5Firmware?5I@
  1001222C: FF 15 E0 D2 01 10  call        dword ptr [__imp__printf]
  10012232: 83 C4 04           add         esp,4
  10012235: 3B F4              cmp         esi,esp
  10012237: E8 04 EF FF FF     call        @ILT+315(__RTC_CheckEsp)
  1001223C: E9 94 00 00 00     jmp         100122D5
  10012241: 8B F4              mov         esi,esp
  10012243: 68 E0 98 01 10     push        offset ??_C@_0CK@LPBFFME@This?5is?5an?5EFI?5driver?5with?5boot?5@
  10012248: FF 15 E0 D2 01 10  call        dword ptr [__imp__printf]
  1001224E: 83 C4 04           add         esp,4
  10012251: 3B F4              cmp         esi,esp
  10012253: E8 E8 EE FF FF     call        @ILT+315(__RTC_CheckEsp)
  10012258: EB 7B              jmp         100122D5
  1001225A: 8B F4              mov         esi,esp
  1001225C: 68 A8 98 01 10     push        offset ??_C@_0CO@CBKHKCCA@This?5is?5an?5EFI?5driver?5with?5run?9t@
  10012261: FF 15 E0 D2 01 10  call        dword ptr [__imp__printf]
  10012267: 83 C4 04           add         esp,4
  1001226A: 3B F4              cmp         esi,esp
  1001226C: E8 CF EE FF FF     call        @ILT+315(__RTC_CheckEsp)
  10012271: EB 62              jmp         100122D5
  10012273: 8B F4              mov         esi,esp
  10012275: 68 88 98 01 10     push        offset ??_C@_0BK@BFHJACJF@This?5is?5an?5EFI?5ROM?5image?6?$AA@
  1001227A: FF 15 E0 D2 01 10  call        dword ptr [__imp__printf]
  10012280: 83 C4 04           add         esp,4
  10012283: 3B F4              cmp         esi,esp
  10012285: E8 B6 EE FF FF     call        @ILT+315(__RTC_CheckEsp)
  1001228A: EB 49              jmp         100122D5
  1001228C: 8B F4              mov         esi,esp
  1001228E: 68 68 98 01 10     push        offset ??_C@_0BL@LHNMANIO@This?5requires?5Xbox?5system?6?$AA@
  10012293: FF 15 E0 D2 01 10  call        dword ptr [__imp__printf]
  10012299: 83 C4 04           add         esp,4
  1001229C: 3B F4              cmp         esi,esp
  1001229E: E8 9D EE FF FF     call        @ILT+315(__RTC_CheckEsp)
  100122A3: EB 30              jmp         100122D5
  100122A5: 8B F4              mov         esi,esp
  100122A7: 68 44 98 01 10     push        offset ??_C@_0BM@GFCAFHIM@This?5is?5a?5Boot?5application?6?$AA@
  100122AC: FF 15 E0 D2 01 10  call        dword ptr [__imp__printf]
  100122B2: 83 C4 04           add         esp,4
  100122B5: 3B F4              cmp         esi,esp
  100122B7: E8 84 EE FF FF     call        @ILT+315(__RTC_CheckEsp)
  100122BC: EB 17              jmp         100122D5
  100122BE: 8B F4              mov         esi,esp
  100122C0: 68 18 98 01 10     push        offset ??_C@_0CD@JNANCGJC@This?5requires?5an?5unkown?5subsyste@
  100122C5: FF 15 E0 D2 01 10  call        dword ptr [__imp__printf]
  100122CB: 83 C4 04           add         esp,4
  100122CE: 3B F4              cmp         esi,esp
  100122D0: E8 6B EE FF FF     call        @ILT+315(__RTC_CheckEsp)
  100122D5: 0F B6 85 03 F7 FF  movzx       eax,byte ptr [ebp-8FDh]
            FF
  100122DC: 85 C0              test        eax,eax
  100122DE: 0F 84 C8 01 00 00  je          100124AC
  100122E4: C6 85 F7 F6 FF FF  mov         byte ptr [ebp-909h],0
            00
  100122EB: 8B 85 1C F6 FF FF  mov         eax,dword ptr [ebp-9E4h]
  100122F1: 0F B7 48 5E        movzx       ecx,word ptr [eax+5Eh]
  100122F5: 83 E1 40           and         ecx,40h
  100122F8: 74 1E              je          10012318
  100122FA: 8B F4              mov         esi,esp
  100122FC: 68 E8 97 01 10     push        offset ??_C@_0CH@CADABFNO@The?5DLL?5can?5be?5relocated?5at?5load@
  10012301: FF 15 E0 D2 01 10  call        dword ptr [__imp__printf]
  10012307: 83 C4 04           add         esp,4
  1001230A: 3B F4              cmp         esi,esp
  1001230C: E8 2F EE FF FF     call        @ILT+315(__RTC_CheckEsp)
  10012311: C6 85 F7 F6 FF FF  mov         byte ptr [ebp-909h],1
            01
  10012318: 8B 85 1C F6 FF FF  mov         eax,dword ptr [ebp-9E4h]
  1001231E: 0F B7 48 5E        movzx       ecx,word ptr [eax+5Eh]
  10012322: 81 E1 80 00 00 00  and         ecx,80h
  10012328: 74 1E              je          10012348
  1001232A: 8B F4              mov         esi,esp
  1001232C: 68 C0 97 01 10     push        offset ??_C@_0CC@IPAPOJMJ@Code?5integrity?5checks?5are?5forced@
  10012331: FF 15 E0 D2 01 10  call        dword ptr [__imp__printf]
  10012337: 83 C4 04           add         esp,4
  1001233A: 3B F4              cmp         esi,esp
  1001233C: E8 FF ED FF FF     call        @ILT+315(__RTC_CheckEsp)
  10012341: C6 85 F7 F6 FF FF  mov         byte ptr [ebp-909h],1
            01
  10012348: 8B 85 1C F6 FF FF  mov         eax,dword ptr [ebp-9E4h]
  1001234E: 0F B7 48 5E        movzx       ecx,word ptr [eax+5Eh]
  10012352: 81 E1 00 01 00 00  and         ecx,100h
  10012358: 74 1E              je          10012378
  1001235A: 8B F4              mov         esi,esp
  1001235C: 68 74 97 01 10     push        offset ??_C@_0DO@MLFIFJPK@The?5image?5is?5compatible?5with?5dat@
  10012361: FF 15 E0 D2 01 10  call        dword ptr [__imp__printf]
  10012367: 83 C4 04           add         esp,4
  1001236A: 3B F4              cmp         esi,esp
  1001236C: E8 CF ED FF FF     call        @ILT+315(__RTC_CheckEsp)
  10012371: C6 85 F7 F6 FF FF  mov         byte ptr [ebp-909h],1
            01
  10012378: 8B 85 1C F6 FF FF  mov         eax,dword ptr [ebp-9E4h]
  1001237E: 0F B7 48 5E        movzx       ecx,word ptr [eax+5Eh]
  10012382: 81 E1 00 02 00 00  and         ecx,200h
  10012388: 74 1E              je          100123A8
  1001238A: 8B F4              mov         esi,esp
  1001238C: 68 2C 97 01 10     push        offset ??_C@_0DK@OLHKPCBL@The?5image?5is?5isolation?5aware?0?5bu@
  10012391: FF 15 E0 D2 01 10  call        dword ptr [__imp__printf]
  10012397: 83 C4 04           add         esp,4
  1001239A: 3B F4              cmp         esi,esp
  1001239C: E8 9F ED FF FF     call        @ILT+315(__RTC_CheckEsp)
  100123A1: C6 85 F7 F6 FF FF  mov         byte ptr [ebp-909h],1
            01
  100123A8: 8B 85 1C F6 FF FF  mov         eax,dword ptr [ebp-9E4h]
  100123AE: 0F B7 48 5E        movzx       ecx,word ptr [eax+5Eh]
  100123B2: 81 E1 00 04 00 00  and         ecx,400h
  100123B8: 74 1E              je          100123D8
  100123BA: 8B F4              mov         esi,esp
  100123BC: 68 B0 96 01 10     push        offset ??_C@_0GF@BBGBPBGI@The?5image?5does?5not?5use?5structure@
  100123C1: FF 15 E0 D2 01 10  call        dword ptr [__imp__printf]
  100123C7: 83 C4 04           add         esp,4
  100123CA: 3B F4              cmp         esi,esp
  100123CC: E8 6F ED FF FF     call        @ILT+315(__RTC_CheckEsp)
  100123D1: C6 85 F7 F6 FF FF  mov         byte ptr [ebp-909h],1
            01
  100123D8: 8B 85 1C F6 FF FF  mov         eax,dword ptr [ebp-9E4h]
  100123DE: 0F B7 48 5E        movzx       ecx,word ptr [eax+5Eh]
  100123E2: 81 E1 00 08 00 00  and         ecx,800h
  100123E8: 74 1E              je          10012408
  100123EA: 8B F4              mov         esi,esp
  100123EC: 68 94 96 01 10     push        offset ??_C@_0BH@BHALMELF@Do?5not?5bind?5the?5image?6?$AA@
  100123F1: FF 15 E0 D2 01 10  call        dword ptr [__imp__printf]
  100123F7: 83 C4 04           add         esp,4
  100123FA: 3B F4              cmp         esi,esp
  100123FC: E8 3F ED FF FF     call        @ILT+315(__RTC_CheckEsp)
  10012401: C6 85 F7 F6 FF FF  mov         byte ptr [ebp-909h],1
            01
  10012408: 8B 85 1C F6 FF FF  mov         eax,dword ptr [ebp-9E4h]
  1001240E: 0F B7 48 5E        movzx       ecx,word ptr [eax+5Eh]
  10012412: 81 E1 00 20 00 00  and         ecx,2000h
  10012418: 74 1E              je          10012438
  1001241A: 8B F4              mov         esi,esp
  1001241C: 68 84 96 01 10     push        offset ??_C@_0O@FBBGHLCM@A?5WDM?5driver?6?$AA@
  10012421: FF 15 E0 D2 01 10  call        dword ptr [__imp__printf]
  10012427: 83 C4 04           add         esp,4
  1001242A: 3B F4              cmp         esi,esp
  1001242C: E8 0F ED FF FF     call        @ILT+315(__RTC_CheckEsp)
  10012431: C6 85 F7 F6 FF FF  mov         byte ptr [ebp-909h],1
            01
  10012438: 8B 85 1C F6 FF FF  mov         eax,dword ptr [ebp-9E4h]
  1001243E: 0F B7 48 5E        movzx       ecx,word ptr [eax+5Eh]
  10012442: 81 E1 00 80 00 00  and         ecx,8000h
  10012448: 74 1E              je          10012468
  1001244A: 8B F4              mov         esi,esp
  1001244C: 68 58 96 01 10     push        offset ??_C@_0CE@JOPEKDOD@The?5image?5is?5terminal?5server?5awa@
  10012451: FF 15 E0 D2 01 10  call        dword ptr [__imp__printf]
  10012457: 83 C4 04           add         esp,4
  1001245A: 3B F4              cmp         esi,esp
  1001245C: E8 DF EC FF FF     call        @ILT+315(__RTC_CheckEsp)
  10012461: C6 85 F7 F6 FF FF  mov         byte ptr [ebp-909h],1
            01
  10012468: 0F B6 85 F7 F6 FF  movzx       eax,byte ptr [ebp-909h]
            FF
  1001246F: 85 C0              test        eax,eax
  10012471: 75 39              jne         100124AC
  10012473: 8B F4              mov         esi,esp
  10012475: 68 1C 96 01 10     push        offset ??_C@_0DB@DCPOICII@Found?5a?5reserved?5or?5unkown?5dll?5c@
  1001247A: FF 15 E0 D2 01 10  call        dword ptr [__imp__printf]
  10012480: 83 C4 04           add         esp,4
  10012483: 3B F4              cmp         esi,esp
  10012485: E8 B6 EC FF FF     call        @ILT+315(__RTC_CheckEsp)
  1001248A: 8B 85 1C F6 FF FF  mov         eax,dword ptr [ebp-9E4h]
  10012490: 0F B7 48 5E        movzx       ecx,word ptr [eax+5Eh]
  10012494: 8B F4              mov         esi,esp
  10012496: 51                 push        ecx
  10012497: 68 FC 95 01 10     push        offset ??_C@_0BJ@FFHKBPMB@Dll?5Characteristics?3?5?$CFd?6?$AA@
  1001249C: FF 15 E0 D2 01 10  call        dword ptr [__imp__printf]
  100124A2: 83 C4 08           add         esp,8
  100124A5: 3B F4              cmp         esi,esp
  100124A7: E8 94 EC FF FF     call        @ILT+315(__RTC_CheckEsp)
  100124AC: 8B F4              mov         esi,esp
  100124AE: 8B 85 1C F6 FF FF  mov         eax,dword ptr [ebp-9E4h]
  100124B4: 8B 48 74           mov         ecx,dword ptr [eax+74h]
  100124B7: 51                 push        ecx
  100124B8: 68 D8 95 01 10     push        offset ??_C@_0BN@IBAIJNAB@Number?5of?5Rva?5and?5Sizes?3?5?$CFd?6?$AA@
  100124BD: FF 15 E0 D2 01 10  call        dword ptr [__imp__printf]
  100124C3: 83 C4 08           add         esp,8
  100124C6: 3B F4              cmp         esi,esp
  100124C8: E8 73 EC FF FF     call        @ILT+315(__RTC_CheckEsp)
  100124CD: 8B F4              mov         esi,esp
  100124CF: 68 D4 95 01 10     push        offset ??_C@_01EEMJAFIK@?6?$AA@
  100124D4: FF 15 E0 D2 01 10  call        dword ptr [__imp__printf]
  100124DA: 83 C4 04           add         esp,4
  100124DD: 3B F4              cmp         esi,esp
  100124DF: E8 5C EC FF FF     call        @ILT+315(__RTC_CheckEsp)
  100124E4: 8B F4              mov         esi,esp
  100124E6: 8B 85 1C F6 FF FF  mov         eax,dword ptr [ebp-9E4h]
  100124EC: 8B 48 7C           mov         ecx,dword ptr [eax+7Ch]
  100124EF: 51                 push        ecx
  100124F0: 8B 95 1C F6 FF FF  mov         edx,dword ptr [ebp-9E4h]
  100124F6: 8B 42 78           mov         eax,dword ptr [edx+78h]
  100124F9: 50                 push        eax
  100124FA: 68 A4 95 01 10     push        offset ??_C@_0CI@JNKFNIFP@?$CFd?5?$FL?$CFd?$FN?5RVA?5?$FLsize?$FN?5of?5Export?5Dir@
  100124FF: FF 15 E0 D2 01 10  call        dword ptr [__imp__printf]
  10012505: 83 C4 0C           add         esp,0Ch
  10012508: 3B F4              cmp         esi,esp
  1001250A: E8 31 EC FF FF     call        @ILT+315(__RTC_CheckEsp)
  1001250F: 8B F4              mov         esi,esp
  10012511: 8B 85 1C F6 FF FF  mov         eax,dword ptr [ebp-9E4h]
  10012517: 8B 88 84 00 00 00  mov         ecx,dword ptr [eax+84h]
  1001251D: 51                 push        ecx
  1001251E: 8B 95 1C F6 FF FF  mov         edx,dword ptr [ebp-9E4h]
  10012524: 8B 82 80 00 00 00  mov         eax,dword ptr [edx+80h]
  1001252A: 50                 push        eax
  1001252B: 68 74 95 01 10     push        offset ??_C@_0CI@GCKDNEKE@?$CFd?5?$FL?$CFd?$FN?5RVA?5?$FLsize?$FN?5of?5Import?5Dir@
  10012530: FF 15 E0 D2 01 10  call        dword ptr [__imp__printf]
  10012536: 83 C4 0C           add         esp,0Ch
  10012539: 3B F4              cmp         esi,esp
  1001253B: E8 00 EC FF FF     call        @ILT+315(__RTC_CheckEsp)
  10012540: 8B F4              mov         esi,esp
  10012542: 8B 85 1C F6 FF FF  mov         eax,dword ptr [ebp-9E4h]
  10012548: 8B 88 8C 00 00 00  mov         ecx,dword ptr [eax+8Ch]
  1001254E: 51                 push        ecx
  1001254F: 8B 95 1C F6 FF FF  mov         edx,dword ptr [ebp-9E4h]
  10012555: 8B 82 88 00 00 00  mov         eax,dword ptr [edx+88h]
  1001255B: 50                 push        eax
  1001255C: 68 40 95 01 10     push        offset ??_C@_0CK@HLOLMCLO@?$CFd?5?$FL?$CFd?$FN?5RVA?5?$FLsize?$FN?5of?5Resource?5D@
  10012561: FF 15 E0 D2 01 10  call        dword ptr [__imp__printf]
  10012567: 83 C4 0C           add         esp,0Ch
  1001256A: 3B F4              cmp         esi,esp
  1001256C: E8 CF EB FF FF     call        @ILT+315(__RTC_CheckEsp)
  10012571: 8B F4              mov         esi,esp
  10012573: 8B 85 1C F6 FF FF  mov         eax,dword ptr [ebp-9E4h]
  10012579: 8B 88 94 00 00 00  mov         ecx,dword ptr [eax+94h]
  1001257F: 51                 push        ecx
  10012580: 8B 95 1C F6 FF FF  mov         edx,dword ptr [ebp-9E4h]
  10012586: 8B 82 90 00 00 00  mov         eax,dword ptr [edx+90h]
  1001258C: 50                 push        eax
  1001258D: 68 0C 95 01 10     push        offset ??_C@_0CL@JDAAHOCA@?$CFd?5?$FL?$CFd?$FN?5RVA?5?$FLsize?$FN?5of?5Exception?5@
  10012592: FF 15 E0 D2 01 10  call        dword ptr [__imp__printf]
  10012598: 83 C4 0C           add         esp,0Ch
  1001259B: 3B F4              cmp         esi,esp
  1001259D: E8 9E EB FF FF     call        @ILT+315(__RTC_CheckEsp)
  100125A2: 8B F4              mov         esi,esp
  100125A4: 8B 85 1C F6 FF FF  mov         eax,dword ptr [ebp-9E4h]
  100125AA: 8B 88 9C 00 00 00  mov         ecx,dword ptr [eax+9Ch]
  100125B0: 51                 push        ecx
  100125B1: 8B 95 1C F6 FF FF  mov         edx,dword ptr [ebp-9E4h]
  100125B7: 8B 82 98 00 00 00  mov         eax,dword ptr [edx+98h]
  100125BD: 50                 push        eax
  100125BE: 68 D4 94 01 10     push        offset ??_C@_0CO@FJNHBDBD@?$CFd?5?$FL?$CFd?$FN?5RVA?5?$FLsize?$FN?5of?5Certificat@
  100125C3: FF 15 E0 D2 01 10  call        dword ptr [__imp__printf]
  100125C9: 83 C4 0C           add         esp,0Ch
  100125CC: 3B F4              cmp         esi,esp
  100125CE: E8 6D EB FF FF     call        @ILT+315(__RTC_CheckEsp)
  100125D3: 8B F4              mov         esi,esp
  100125D5: 8B 85 1C F6 FF FF  mov         eax,dword ptr [ebp-9E4h]
  100125DB: 8B 88 A4 00 00 00  mov         ecx,dword ptr [eax+0A4h]
  100125E1: 51                 push        ecx
  100125E2: 8B 95 1C F6 FF FF  mov         edx,dword ptr [ebp-9E4h]
  100125E8: 8B 82 A0 00 00 00  mov         eax,dword ptr [edx+0A0h]
  100125EE: 50                 push        eax
  100125EF: 68 98 94 01 10     push        offset ??_C@_0DB@GIKJOCEJ@?$CFd?5?$FL?$CFd?$FN?5RVA?5?$FLsize?$FN?5of?5Base?5Reloc@
  100125F4: FF 15 E0 D2 01 10  call        dword ptr [__imp__printf]
  100125FA: 83 C4 0C           add         esp,0Ch
  100125FD: 3B F4              cmp         esi,esp
  100125FF: E8 3C EB FF FF     call        @ILT+315(__RTC_CheckEsp)
  10012604: 8B F4              mov         esi,esp
  10012606: 8B 85 1C F6 FF FF  mov         eax,dword ptr [ebp-9E4h]
  1001260C: 8B 88 AC 00 00 00  mov         ecx,dword ptr [eax+0ACh]
  10012612: 51                 push        ecx
  10012613: 8B 95 1C F6 FF FF  mov         edx,dword ptr [ebp-9E4h]
  10012619: 8B 82 A8 00 00 00  mov         eax,dword ptr [edx+0A8h]
  1001261F: 50                 push        eax
  10012620: 68 68 94 01 10     push        offset ??_C@_0CH@PDMHHANE@?$CFd?5?$FL?$CFd?$FN?5RVA?5?$FLsize?$FN?5of?5Debug?5Dire@
  10012625: FF 15 E0 D2 01 10  call        dword ptr [__imp__printf]
  1001262B: 83 C4 0C           add         esp,0Ch
  1001262E: 3B F4              cmp         esi,esp
  10012630: E8 0B EB FF FF     call        @ILT+315(__RTC_CheckEsp)
  10012635: 8B F4              mov         esi,esp
  10012637: 8B 85 1C F6 FF FF  mov         eax,dword ptr [ebp-9E4h]
  1001263D: 8B 88 B4 00 00 00  mov         ecx,dword ptr [eax+0B4h]
  10012643: 51                 push        ecx
  10012644: 8B 95 1C F6 FF FF  mov         edx,dword ptr [ebp-9E4h]
  1001264A: 8B 82 B0 00 00 00  mov         eax,dword ptr [edx+0B0h]
  10012650: 50                 push        eax
  10012651: 68 30 94 01 10     push        offset ??_C@_0CO@HMAAGDGE@?$CFd?5?$FL?$CFd?$FN?5RVA?5?$FLsize?$FN?5of?5Architectu@
  10012656: FF 15 E0 D2 01 10  call        dword ptr [__imp__printf]
  1001265C: 83 C4 0C           add         esp,0Ch
  1001265F: 3B F4              cmp         esi,esp
  10012661: E8 DA EA FF FF     call        @ILT+315(__RTC_CheckEsp)
  10012666: 8B F4              mov         esi,esp
  10012668: 8B 85 1C F6 FF FF  mov         eax,dword ptr [ebp-9E4h]
  1001266E: 8B 88 BC 00 00 00  mov         ecx,dword ptr [eax+0BCh]
  10012674: 51                 push        ecx
  10012675: 8B 95 1C F6 FF FF  mov         edx,dword ptr [ebp-9E4h]
  1001267B: 8B 82 B8 00 00 00  mov         eax,dword ptr [edx+0B8h]
  10012681: 50                 push        eax
  10012682: 68 F4 93 01 10     push        offset ??_C@_0DA@POBJNMBK@?$CFd?5?$FL?$CFd?$FN?5RVA?5?$FLsize?$FN?5of?5Global?5Poi@
  10012687: FF 15 E0 D2 01 10  call        dword ptr [__imp__printf]
  1001268D: 83 C4 0C           add         esp,0Ch
  10012690: 3B F4              cmp         esi,esp
  10012692: E8 A9 EA FF FF     call        @ILT+315(__RTC_CheckEsp)
  10012697: 8B F4              mov         esi,esp
  10012699: 8B 85 1C F6 FF FF  mov         eax,dword ptr [ebp-9E4h]
  1001269F: 8B 88 C4 00 00 00  mov         ecx,dword ptr [eax+0C4h]
  100126A5: 51                 push        ecx
  100126A6: 8B 95 1C F6 FF FF  mov         edx,dword ptr [ebp-9E4h]
  100126AC: 8B 82 C0 00 00 00  mov         eax,dword ptr [edx+0C0h]
  100126B2: 50                 push        eax
  100126B3: 68 B8 93 01 10     push        offset ??_C@_0DA@ICEDLPCI@?$CFd?5?$FL?$CFd?$FN?5RVA?5?$FLsize?$FN?5of?5Thread?5Sto@
  100126B8: FF 15 E0 D2 01 10  call        dword ptr [__imp__printf]
  100126BE: 83 C4 0C           add         esp,0Ch
  100126C1: 3B F4              cmp         esi,esp
  100126C3: E8 78 EA FF FF     call        @ILT+315(__RTC_CheckEsp)
  100126C8: 8B F4              mov         esi,esp
  100126CA: 8B 85 1C F6 FF FF  mov         eax,dword ptr [ebp-9E4h]
  100126D0: 8B 88 CC 00 00 00  mov         ecx,dword ptr [eax+0CCh]
  100126D6: 51                 push        ecx
  100126D7: 8B 95 1C F6 FF FF  mov         edx,dword ptr [ebp-9E4h]
  100126DD: 8B 82 C8 00 00 00  mov         eax,dword ptr [edx+0C8h]
  100126E3: 50                 push        eax
  100126E4: 68 78 93 01 10     push        offset ??_C@_0DE@IOEMDKCD@?$CFd?5?$FL?$CFd?$FN?5RVA?5?$FLsize?$FN?5of?5Load?5Confi@
  100126E9: FF 15 E0 D2 01 10  call        dword ptr [__imp__printf]
  100126EF: 83 C4 0C           add         esp,0Ch
  100126F2: 3B F4              cmp         esi,esp
  100126F4: E8 47 EA FF FF     call        @ILT+315(__RTC_CheckEsp)
  100126F9: 8B F4              mov         esi,esp
  100126FB: 8B 85 1C F6 FF FF  mov         eax,dword ptr [ebp-9E4h]
  10012701: 8B 88 D4 00 00 00  mov         ecx,dword ptr [eax+0D4h]
  10012707: 51                 push        ecx
  10012708: 8B 95 1C F6 FF FF  mov         edx,dword ptr [ebp-9E4h]
  1001270E: 8B 82 D0 00 00 00  mov         eax,dword ptr [edx+0D0h]
  10012714: 50                 push        eax
  10012715: 68 40 93 01 10     push        offset ??_C@_0CO@MOEGFCG@?$CFd?5?$FL?$CFd?$FN?5RVA?5?$FLsize?$FN?5of?5Bound?5Impo@
  1001271A: FF 15 E0 D2 01 10  call        dword ptr [__imp__printf]
  10012720: 83 C4 0C           add         esp,0Ch
  10012723: 3B F4              cmp         esi,esp
  10012725: E8 16 EA FF FF     call        @ILT+315(__RTC_CheckEsp)
  1001272A: 8B F4              mov         esi,esp
  1001272C: 8B 85 1C F6 FF FF  mov         eax,dword ptr [ebp-9E4h]
  10012732: 8B 88 DC 00 00 00  mov         ecx,dword ptr [eax+0DCh]
  10012738: 51                 push        ecx
  10012739: 8B 95 1C F6 FF FF  mov         edx,dword ptr [ebp-9E4h]
  1001273F: 8B 82 D8 00 00 00  mov         eax,dword ptr [edx+0D8h]
  10012745: 50                 push        eax
  10012746: 68 00 93 01 10     push        offset ??_C@_0DG@EMAFDODM@?$CFd?5?$FL?$CFd?$FN?5RVA?5?$FLsize?$FN?5of?5Import?5Add@
  1001274B: FF 15 E0 D2 01 10  call        dword ptr [__imp__printf]
  10012751: 83 C4 0C           add         esp,0Ch
  10012754: 3B F4              cmp         esi,esp
  10012756: E8 E5 E9 FF FF     call        @ILT+315(__RTC_CheckEsp)
  1001275B: 8B F4              mov         esi,esp
  1001275D: 8B 85 1C F6 FF FF  mov         eax,dword ptr [ebp-9E4h]
  10012763: 8B 88 E4 00 00 00  mov         ecx,dword ptr [eax+0E4h]
  10012769: 51                 push        ecx
  1001276A: 8B 95 1C F6 FF FF  mov         edx,dword ptr [ebp-9E4h]
  10012770: 8B 82 E0 00 00 00  mov         eax,dword ptr [edx+0E0h]
  10012776: 50                 push        eax
  10012777: 68 C8 92 01 10     push        offset ??_C@_0CO@EMOIINJO@?$CFd?5?$FL?$CFd?$FN?5RVA?5?$FLsize?$FN?5of?5Delay?5Impo@
  1001277C: FF 15 E0 D2 01 10  call        dword ptr [__imp__printf]
  10012782: 83 C4 0C           add         esp,0Ch
  10012785: 3B F4              cmp         esi,esp
  10012787: E8 B4 E9 FF FF     call        @ILT+315(__RTC_CheckEsp)
  1001278C: 8B F4              mov         esi,esp
  1001278E: 8B 85 1C F6 FF FF  mov         eax,dword ptr [ebp-9E4h]
  10012794: 8B 88 EC 00 00 00  mov         ecx,dword ptr [eax+0ECh]
  1001279A: 51                 push        ecx
  1001279B: 8B 95 1C F6 FF FF  mov         edx,dword ptr [ebp-9E4h]
  100127A1: 8B 82 E8 00 00 00  mov         eax,dword ptr [edx+0E8h]
  100127A7: 50                 push        eax
  100127A8: 68 8C 92 01 10     push        offset ??_C@_0DA@MCFMKJBP@?$CFd?5?$FL?$CFd?$FN?5RVA?5?$FLsize?$FN?5of?5COM?5Descri@
  100127AD: FF 15 E0 D2 01 10  call        dword ptr [__imp__printf]
  100127B3: 83 C4 0C           add         esp,0Ch
  100127B6: 3B F4              cmp         esi,esp
  100127B8: E8 83 E9 FF FF     call        @ILT+315(__RTC_CheckEsp)
  100127BD: 8B F4              mov         esi,esp
  100127BF: 8B 85 1C F6 FF FF  mov         eax,dword ptr [ebp-9E4h]
  100127C5: 8B 88 F4 00 00 00  mov         ecx,dword ptr [eax+0F4h]
  100127CB: 51                 push        ecx
  100127CC: 8B 95 1C F6 FF FF  mov         edx,dword ptr [ebp-9E4h]
  100127D2: 8B 82 F0 00 00 00  mov         eax,dword ptr [edx+0F0h]
  100127D8: 50                 push        eax
  100127D9: 68 58 92 01 10     push        offset ??_C@_0CK@BLBGBCMC@?$CFd?5?$FL?$CFd?$FN?5RVA?5?$FLsize?$FN?5of?5Reserved?5D@
  100127DE: FF 15 E0 D2 01 10  call        dword ptr [__imp__printf]
  100127E4: 83 C4 0C           add         esp,0Ch
  100127E7: 3B F4              cmp         esi,esp
  100127E9: E8 52 E9 FF FF     call        @ILT+315(__RTC_CheckEsp)
  100127EE: 8B F4              mov         esi,esp
  100127F0: 68 D4 95 01 10     push        offset ??_C@_01EEMJAFIK@?6?$AA@
  100127F5: FF 15 E0 D2 01 10  call        dword ptr [__imp__printf]
  100127FB: 83 C4 04           add         esp,4
  100127FE: 3B F4              cmp         esi,esp
  10012800: E8 3B E9 FF FF     call        @ILT+315(__RTC_CheckEsp)
  10012805: 8B 85 28 F6 FF FF  mov         eax,dword ptr [ebp-9D8h]
  1001280B: 8B 48 3C           mov         ecx,dword ptr [eax+3Ch]
  1001280E: 8B 95 34 F6 FF FF  mov         edx,dword ptr [ebp-9CCh]
  10012814: 8D 84 0A F8 00 00  lea         eax,[edx+ecx+0F8h]
            00
  1001281B: 89 85 10 F6 FF FF  mov         dword ptr [ebp-9F0h],eax
  10012821: C7 45 E8 00 00 00  mov         dword ptr [ebp-18h],0
            00
  10012828: EB 09              jmp         10012833
  1001282A: 8B 45 E8           mov         eax,dword ptr [ebp-18h]
  1001282D: 83 C0 01           add         eax,1
  10012830: 89 45 E8           mov         dword ptr [ebp-18h],eax
  10012833: 8B 85 1C F6 FF FF  mov         eax,dword ptr [ebp-9E4h]
  10012839: 0F B7 48 06        movzx       ecx,word ptr [eax+6]
  1001283D: 39 4D E8           cmp         dword ptr [ebp-18h],ecx
  10012840: 0F 8D 05 0F 00 00  jge         1001374B
  10012846: 8B F4              mov         esi,esp
  10012848: 8B 85 10 F6 FF FF  mov         eax,dword ptr [ebp-9F0h]
  1001284E: 50                 push        eax
  1001284F: 68 3C 92 01 10     push        offset ??_C@_0BF@FNBLPAMM@?6Section?5Name?3?5?$CF?48s?6?$AA@
  10012854: FF 15 E0 D2 01 10  call        dword ptr [__imp__printf]
  1001285A: 83 C4 08           add         esp,8
  1001285D: 3B F4              cmp         esi,esp
  1001285F: E8 DC E8 FF FF     call        @ILT+315(__RTC_CheckEsp)
  10012864: 8B F4              mov         esi,esp
  10012866: 8B 85 10 F6 FF FF  mov         eax,dword ptr [ebp-9F0h]
  1001286C: 8B 48 08           mov         ecx,dword ptr [eax+8]
  1001286F: 51                 push        ecx
  10012870: 68 24 92 01 10     push        offset ??_C@_0BC@NCGOBBJP@Virtual?5Size?3?5?$CFd?6?$AA@
  10012875: FF 15 E0 D2 01 10  call        dword ptr [__imp__printf]
  1001287B: 83 C4 08           add         esp,8
  1001287E: 3B F4              cmp         esi,esp
  10012880: E8 BB E8 FF FF     call        @ILT+315(__RTC_CheckEsp)
  10012885: 8B F4              mov         esi,esp
  10012887: 8B 85 10 F6 FF FF  mov         eax,dword ptr [ebp-9F0h]
  1001288D: 8B 48 0C           mov         ecx,dword ptr [eax+0Ch]
  10012890: 51                 push        ecx
  10012891: 68 08 92 01 10     push        offset ??_C@_0BF@NFPFNLCE@Virtual?5Address?3?5?$CFd?6?$AA@
  10012896: FF 15 E0 D2 01 10  call        dword ptr [__imp__printf]
  1001289C: 83 C4 08           add         esp,8
  1001289F: 3B F4              cmp         esi,esp
  100128A1: E8 9A E8 FF FF     call        @ILT+315(__RTC_CheckEsp)
  100128A6: 8B F4              mov         esi,esp
  100128A8: 8B 85 10 F6 FF FF  mov         eax,dword ptr [ebp-9F0h]
  100128AE: 8B 48 10           mov         ecx,dword ptr [eax+10h]
  100128B1: 51                 push        ecx
  100128B2: 68 EC 91 01 10     push        offset ??_C@_0BG@MNOLCHHC@Size?5of?5raw?5data?3?5?$CFd?6?$AA@
  100128B7: FF 15 E0 D2 01 10  call        dword ptr [__imp__printf]
  100128BD: 83 C4 08           add         esp,8
  100128C0: 3B F4              cmp         esi,esp
  100128C2: E8 79 E8 FF FF     call        @ILT+315(__RTC_CheckEsp)
  100128C7: 8B F4              mov         esi,esp
  100128C9: 8B 85 10 F6 FF FF  mov         eax,dword ptr [ebp-9F0h]
  100128CF: 8B 48 14           mov         ecx,dword ptr [eax+14h]
  100128D2: 51                 push        ecx
  100128D3: 68 C8 91 01 10     push        offset ??_C@_0BN@DDAHOMAJ@Pointer?5to?5the?5raw?5data?3?5?$CFd?6?$AA@
  100128D8: FF 15 E0 D2 01 10  call        dword ptr [__imp__printf]
  100128DE: 83 C4 08           add         esp,8
  100128E1: 3B F4              cmp         esi,esp
  100128E3: E8 58 E8 FF FF     call        @ILT+315(__RTC_CheckEsp)
  100128E8: 8B F4              mov         esi,esp
  100128EA: 8B 85 10 F6 FF FF  mov         eax,dword ptr [ebp-9F0h]
  100128F0: 8B 48 18           mov         ecx,dword ptr [eax+18h]
  100128F3: 51                 push        ecx
  100128F4: 68 A8 91 01 10     push        offset ??_C@_0BL@GDIMPONF@Pointer?5to?5relocation?3?5?$CFd?6?$AA@
  100128F9: FF 15 E0 D2 01 10  call        dword ptr [__imp__printf]
  100128FF: 83 C4 08           add         esp,8
  10012902: 3B F4              cmp         esi,esp
  10012904: E8 37 E8 FF FF     call        @ILT+315(__RTC_CheckEsp)
  10012909: 8B F4              mov         esi,esp
  1001290B: 8B 85 10 F6 FF FF  mov         eax,dword ptr [ebp-9F0h]
  10012911: 8B 48 1C           mov         ecx,dword ptr [eax+1Ch]
  10012914: 51                 push        ecx
  10012915: 68 84 91 01 10     push        offset ??_C@_0BM@BLICLMOC@Pointer?5to?5LineNumbers?3?5?$CFd?6?$AA@
  1001291A: FF 15 E0 D2 01 10  call        dword ptr [__imp__printf]
  10012920: 83 C4 08           add         esp,8
  10012923: 3B F4              cmp         esi,esp
  10012925: E8 16 E8 FF FF     call        @ILT+315(__RTC_CheckEsp)
  1001292A: 8B 85 10 F6 FF FF  mov         eax,dword ptr [ebp-9F0h]
  10012930: 0F B7 48 20        movzx       ecx,word ptr [eax+20h]
  10012934: 8B F4              mov         esi,esp
  10012936: 51                 push        ecx
  10012937: 68 50 91 01 10     push        offset ??_C@_0CL@DGHKOLPJ@Number?5of?5relocations?5in?5this?5se@
  1001293C: FF 15 E0 D2 01 10  call        dword ptr [__imp__printf]
  10012942: 83 C4 08           add         esp,8
  10012945: 3B F4              cmp         esi,esp
  10012947: E8 F4 E7 FF FF     call        @ILT+315(__RTC_CheckEsp)
  1001294C: 8B 85 10 F6 FF FF  mov         eax,dword ptr [ebp-9F0h]
  10012952: 0F B7 48 22        movzx       ecx,word ptr [eax+22h]
  10012956: 8B F4              mov         esi,esp
  10012958: 51                 push        ecx
  10012959: 68 2C 91 01 10     push        offset ??_C@_0BM@MFBFBFML@Number?5of?5line?5numbers?3?5?$CFd?6?$AA@
  1001295E: FF 15 E0 D2 01 10  call        dword ptr [__imp__printf]
  10012964: 83 C4 08           add         esp,8
  10012967: 3B F4              cmp         esi,esp
  10012969: E8 D2 E7 FF FF     call        @ILT+315(__RTC_CheckEsp)
  1001296E: C6 85 B3 F7 FF FF  mov         byte ptr [ebp-84Dh],0
            00
  10012975: 8B 85 10 F6 FF FF  mov         eax,dword ptr [ebp-9F0h]
  1001297B: 8B 48 24           mov         ecx,dword ptr [eax+24h]
  1001297E: 83 E1 20           and         ecx,20h
  10012981: 74 1E              je          100129A1
  10012983: 8B F4              mov         esi,esp
  10012985: 68 FC 90 01 10     push        offset ??_C@_0CH@JGFBJCFG@This?5section?5contains?5executable@
  1001298A: FF 15 E0 D2 01 10  call        dword ptr [__imp__printf]
  10012990: 83 C4 04           add         esp,4
  10012993: 3B F4              cmp         esi,esp
  10012995: E8 A6 E7 FF FF     call        @ILT+315(__RTC_CheckEsp)
  1001299A: C6 85 B3 F7 FF FF  mov         byte ptr [ebp-84Dh],1
            01
  100129A1: 8B 85 10 F6 FF FF  mov         eax,dword ptr [ebp-9F0h]
  100129A7: 8B 48 24           mov         ecx,dword ptr [eax+24h]
  100129AA: 83 E1 40           and         ecx,40h
  100129AD: 74 1E              je          100129CD
  100129AF: 8B F4              mov         esi,esp
  100129B1: 68 CC 90 01 10     push        offset ??_C@_0CI@IMJFOMN@This?5section?5contains?5initialize@
  100129B6: FF 15 E0 D2 01 10  call        dword ptr [__imp__printf]
  100129BC: 83 C4 04           add         esp,4
  100129BF: 3B F4              cmp         esi,esp
  100129C1: E8 7A E7 FF FF     call        @ILT+315(__RTC_CheckEsp)
  100129C6: C6 85 B3 F7 FF FF  mov         byte ptr [ebp-84Dh],1
            01
  100129CD: 8B 85 10 F6 FF FF  mov         eax,dword ptr [ebp-9F0h]
  100129D3: 8B 48 24           mov         ecx,dword ptr [eax+24h]
  100129D6: 81 E1 80 00 00 00  and         ecx,80h
  100129DC: 74 1E              je          100129FC
  100129DE: 8B F4              mov         esi,esp
  100129E0: 68 98 90 01 10     push        offset ??_C@_0CJ@CCJNKFPL@This?5section?5contains?5uninitiali@
  100129E5: FF 15 E0 D2 01 10  call        dword ptr [__imp__printf]
  100129EB: 83 C4 04           add         esp,4
  100129EE: 3B F4              cmp         esi,esp
  100129F0: E8 4B E7 FF FF     call        @ILT+315(__RTC_CheckEsp)
  100129F5: C6 85 B3 F7 FF FF  mov         byte ptr [ebp-84Dh],1
            01
  100129FC: 8B 85 10 F6 FF FF  mov         eax,dword ptr [ebp-9F0h]
  10012A02: 8B 48 24           mov         ecx,dword ptr [eax+24h]
  10012A05: 81 E1 00 02 00 00  and         ecx,200h
  10012A0B: 74 1E              je          10012A2B
  10012A0D: 8B F4              mov         esi,esp
  10012A0F: 68 38 90 01 10     push        offset ??_C@_0FA@DMIAOMJ@This?5section?5contains?5comments?5a@
  10012A14: FF 15 E0 D2 01 10  call        dword ptr [__imp__printf]
  10012A1A: 83 C4 04           add         esp,4
  10012A1D: 3B F4              cmp         esi,esp
  10012A1F: E8 1C E7 FF FF     call        @ILT+315(__RTC_CheckEsp)
  10012A24: C6 85 B3 F7 FF FF  mov         byte ptr [ebp-84Dh],1
            01
  10012A2B: 8B 85 10 F6 FF FF  mov         eax,dword ptr [ebp-9F0h]
  10012A31: 8B 48 24           mov         ecx,dword ptr [eax+24h]
  10012A34: 81 E1 00 08 00 00  and         ecx,800h
  10012A3A: 74 1E              je          10012A5A
  10012A3C: 8B F4              mov         esi,esp
  10012A3E: 68 E0 8F 01 10     push        offset ??_C@_0EG@IBNBGCGN@This?5section?5will?5not?5be?5part?5of@
  10012A43: FF 15 E0 D2 01 10  call        dword ptr [__imp__printf]
  10012A49: 83 C4 04           add         esp,4
  10012A4C: 3B F4              cmp         esi,esp
  10012A4E: E8 ED E6 FF FF     call        @ILT+315(__RTC_CheckEsp)
  10012A53: C6 85 B3 F7 FF FF  mov         byte ptr [ebp-84Dh],1
            01
  10012A5A: 8B 85 10 F6 FF FF  mov         eax,dword ptr [ebp-9F0h]
  10012A60: 8B 48 24           mov         ecx,dword ptr [eax+24h]
  10012A63: 81 E1 00 10 00 00  and         ecx,1000h
  10012A69: 74 1E              je          10012A89
  10012A6B: 8B F4              mov         esi,esp
  10012A6D: 68 B0 8F 01 10     push        offset ??_C@_0CD@FEKMEGGE@This?5section?5contains?5COMDAT?5dat@
  10012A72: FF 15 E0 D2 01 10  call        dword ptr [__imp__printf]
  10012A78: 83 C4 04           add         esp,4
  10012A7B: 3B F4              cmp         esi,esp
  10012A7D: E8 BE E6 FF FF     call        @ILT+315(__RTC_CheckEsp)
  10012A82: C6 85 B3 F7 FF FF  mov         byte ptr [ebp-84Dh],1
            01
  10012A89: 8B 85 10 F6 FF FF  mov         eax,dword ptr [ebp-9F0h]
  10012A8F: 8B 48 24           mov         ecx,dword ptr [eax+24h]
  10012A92: 81 E1 00 40 00 00  and         ecx,4000h
  10012A98: 74 1E              je          10012AB8
  10012A9A: 8B F4              mov         esi,esp
  10012A9C: 68 50 8F 01 10     push        offset ??_C@_0FA@BMLMALBP@Reset?5speculative?5exceptions?5han@
  10012AA1: FF 15 E0 D2 01 10  call        dword ptr [__imp__printf]
  10012AA7: 83 C4 04           add         esp,4
  10012AAA: 3B F4              cmp         esi,esp
  10012AAC: E8 8F E6 FF FF     call        @ILT+315(__RTC_CheckEsp)
  10012AB1: C6 85 B3 F7 FF FF  mov         byte ptr [ebp-84Dh],1
            01
  10012AB8: 8B 85 10 F6 FF FF  mov         eax,dword ptr [ebp-9F0h]
  10012ABE: 8B 48 24           mov         ecx,dword ptr [eax+24h]
  10012AC1: 81 E1 00 80 00 00  and         ecx,8000h
  10012AC7: 74 1E              je          10012AE7
  10012AC9: 8B F4              mov         esi,esp
  10012ACB: 68 00 8F 01 10     push        offset ??_C@_0EB@JONHMEEB@The?5section?5contains?5data?5refere@
  10012AD0: FF 15 E0 D2 01 10  call        dword ptr [__imp__printf]
  10012AD6: 83 C4 04           add         esp,4
  10012AD9: 3B F4              cmp         esi,esp
  10012ADB: E8 60 E6 FF FF     call        @ILT+315(__RTC_CheckEsp)
  10012AE0: C6 85 B3 F7 FF FF  mov         byte ptr [ebp-84Dh],1
            01
  10012AE7: 8B 85 10 F6 FF FF  mov         eax,dword ptr [ebp-9F0h]
  10012AED: 8B 48 24           mov         ecx,dword ptr [eax+24h]
  10012AF0: 81 E1 00 00 10 00  and         ecx,100000h
  10012AF6: 74 1E              je          10012B16
  10012AF8: 8B F4              mov         esi,esp
  10012AFA: 68 A8 8E 01 10     push        offset ??_C@_0EG@NKDPMOPL@Align?5data?5on?5a?51?9byte?5boundary?4@
  10012AFF: FF 15 E0 D2 01 10  call        dword ptr [__imp__printf]
  10012B05: 83 C4 04           add         esp,4
  10012B08: 3B F4              cmp         esi,esp
  10012B0A: E8 31 E6 FF FF     call        @ILT+315(__RTC_CheckEsp)
  10012B0F: C6 85 B3 F7 FF FF  mov         byte ptr [ebp-84Dh],1
            01
  10012B16: 8B 85 10 F6 FF FF  mov         eax,dword ptr [ebp-9F0h]
  10012B1C: 8B 48 24           mov         ecx,dword ptr [eax+24h]
  10012B1F: 81 E1 00 00 20 00  and         ecx,200000h
  10012B25: 74 1E              je          10012B45
  10012B27: 8B F4              mov         esi,esp
  10012B29: 68 50 8E 01 10     push        offset ??_C@_0EG@NINBDECB@Align?5data?5on?5a?52?9byte?5boundary?4@
  10012B2E: FF 15 E0 D2 01 10  call        dword ptr [__imp__printf]
  10012B34: 83 C4 04           add         esp,4
  10012B37: 3B F4              cmp         esi,esp
  10012B39: E8 02 E6 FF FF     call        @ILT+315(__RTC_CheckEsp)
  10012B3E: C6 85 B3 F7 FF FF  mov         byte ptr [ebp-84Dh],1
            01
  10012B45: 8B 85 10 F6 FF FF  mov         eax,dword ptr [ebp-9F0h]
  10012B4B: 8B 48 24           mov         ecx,dword ptr [eax+24h]
  10012B4E: 81 E1 00 00 30 00  and         ecx,300000h
  10012B54: 81 F9 00 00 30 00  cmp         ecx,300000h
  10012B5A: 75 1E              jne         10012B7A
  10012B5C: 8B F4              mov         esi,esp
  10012B5E: 68 F8 8D 01 10     push        offset ??_C@_0EG@NNAMMBJF@Align?5data?5on?5a?54?9byte?5boundary?4@
  10012B63: FF 15 E0 D2 01 10  call        dword ptr [__imp__printf]
  10012B69: 83 C4 04           add         esp,4
  10012B6C: 3B F4              cmp         esi,esp
  10012B6E: E8 CD E5 FF FF     call        @ILT+315(__RTC_CheckEsp)
  10012B73: C6 85 B3 F7 FF FF  mov         byte ptr [ebp-84Dh],1
            01
  10012B7A: 8B 85 10 F6 FF FF  mov         eax,dword ptr [ebp-9F0h]
  10012B80: 8B 48 24           mov         ecx,dword ptr [eax+24h]
  10012B83: 81 E1 00 00 40 00  and         ecx,400000h
  10012B89: 74 1E              je          10012BA9
  10012B8B: 8B F4              mov         esi,esp
  10012B8D: 68 A0 8D 01 10     push        offset ??_C@_0EG@NGLHCKPN@Align?5data?5on?5a?58?9byte?5boundary?4@
  10012B92: FF 15 E0 D2 01 10  call        dword ptr [__imp__printf]
  10012B98: 83 C4 04           add         esp,4
  10012B9B: 3B F4              cmp         esi,esp
  10012B9D: E8 9E E5 FF FF     call        @ILT+315(__RTC_CheckEsp)
  10012BA2: C6 85 B3 F7 FF FF  mov         byte ptr [ebp-84Dh],1
            01
  10012BA9: 8B 85 10 F6 FF FF  mov         eax,dword ptr [ebp-9F0h]
  10012BAF: 8B 48 24           mov         ecx,dword ptr [eax+24h]
  10012BB2: 81 E1 00 00 50 00  and         ecx,500000h
  10012BB8: 81 F9 00 00 50 00  cmp         ecx,500000h
  10012BBE: 75 1E              jne         10012BDE
  10012BC0: 8B F4              mov         esi,esp
  10012BC2: 68 48 8D 01 10     push        offset ??_C@_0EH@IDIMDNIL@Align?5data?5on?5a?516?9byte?5boundary@
  10012BC7: FF 15 E0 D2 01 10  call        dword ptr [__imp__printf]
  10012BCD: 83 C4 04           add         esp,4
  10012BD0: 3B F4              cmp         esi,esp
  10012BD2: E8 69 E5 FF FF     call        @ILT+315(__RTC_CheckEsp)
  10012BD7: C6 85 B3 F7 FF FF  mov         byte ptr [ebp-84Dh],1
            01
  10012BDE: 8B 85 10 F6 FF FF  mov         eax,dword ptr [ebp-9F0h]
  10012BE4: 8B 48 24           mov         ecx,dword ptr [eax+24h]
  10012BE7: 81 E1 00 00 60 00  and         ecx,600000h
  10012BED: 81 F9 00 00 60 00  cmp         ecx,600000h
  10012BF3: 75 1E              jne         10012C13
  10012BF5: 8B F4              mov         esi,esp
  10012BF7: 68 F0 8C 01 10     push        offset ??_C@_0EH@MBBNPNHD@Align?5data?5on?5a?532?9byte?5boundary@
  10012BFC: FF 15 E0 D2 01 10  call        dword ptr [__imp__printf]
  10012C02: 83 C4 04           add         esp,4
  10012C05: 3B F4              cmp         esi,esp
  10012C07: E8 34 E5 FF FF     call        @ILT+315(__RTC_CheckEsp)
  10012C0C: C6 85 B3 F7 FF FF  mov         byte ptr [ebp-84Dh],1
            01
  10012C13: 8B 85 10 F6 FF FF  mov         eax,dword ptr [ebp-9F0h]
  10012C19: 8B 48 24           mov         ecx,dword ptr [eax+24h]
  10012C1C: 81 E1 00 00 70 00  and         ecx,700000h
  10012C22: 81 F9 00 00 70 00  cmp         ecx,700000h
  10012C28: 75 1E              jne         10012C48
  10012C2A: 8B F4              mov         esi,esp
  10012C2C: 68 98 8C 01 10     push        offset ??_C@_0EH@GOMNHHJH@Align?5data?5on?5a?564?9byte?5boundary@
  10012C31: FF 15 E0 D2 01 10  call        dword ptr [__imp__printf]
  10012C37: 83 C4 04           add         esp,4
  10012C3A: 3B F4              cmp         esi,esp
  10012C3C: E8 FF E4 FF FF     call        @ILT+315(__RTC_CheckEsp)
  10012C41: C6 85 B3 F7 FF FF  mov         byte ptr [ebp-84Dh],1
            01
  10012C48: 8B 85 10 F6 FF FF  mov         eax,dword ptr [ebp-9F0h]
  10012C4E: 8B 48 24           mov         ecx,dword ptr [eax+24h]
  10012C51: 81 E1 00 00 80 00  and         ecx,800000h
  10012C57: 74 1E              je          10012C77
  10012C59: 8B F4              mov         esi,esp
  10012C5B: 68 40 8C 01 10     push        offset ??_C@_0EI@FDCOILAA@Align?5data?5on?5a?5128?9byte?5boundar@
  10012C60: FF 15 E0 D2 01 10  call        dword ptr [__imp__printf]
  10012C66: 83 C4 04           add         esp,4
  10012C69: 3B F4              cmp         esi,esp
  10012C6B: E8 D0 E4 FF FF     call        @ILT+315(__RTC_CheckEsp)
  10012C70: C6 85 B3 F7 FF FF  mov         byte ptr [ebp-84Dh],1
            01
  10012C77: 8B 85 10 F6 FF FF  mov         eax,dword ptr [ebp-9F0h]
  10012C7D: 8B 48 24           mov         ecx,dword ptr [eax+24h]
  10012C80: 81 E1 00 00 90 00  and         ecx,900000h
  10012C86: 81 F9 00 00 90 00  cmp         ecx,900000h
  10012C8C: 75 1E              jne         10012CAC
  10012C8E: 8B F4              mov         esi,esp
  10012C90: 68 E8 8B 01 10     push        offset ??_C@_0EI@JDGLBOAN@Align?5data?5on?5a?5256?9byte?5boundar@
  10012C95: FF 15 E0 D2 01 10  call        dword ptr [__imp__printf]
  10012C9B: 83 C4 04           add         esp,4
  10012C9E: 3B F4              cmp         esi,esp
  10012CA0: E8 9B E4 FF FF     call        @ILT+315(__RTC_CheckEsp)
  10012CA5: C6 85 B3 F7 FF FF  mov         byte ptr [ebp-84Dh],1
            01
  10012CAC: 8B 85 10 F6 FF FF  mov         eax,dword ptr [ebp-9F0h]
  10012CB2: 8B 48 24           mov         ecx,dword ptr [eax+24h]
  10012CB5: 81 E1 00 00 A0 00  and         ecx,0A00000h
  10012CBB: 81 F9 00 00 A0 00  cmp         ecx,0A00000h
  10012CC1: 75 1E              jne         10012CE1
  10012CC3: 8B F4              mov         esi,esp
  10012CC5: 68 90 8B 01 10     push        offset ??_C@_0EI@ENBIAPLA@Align?5data?5on?5a?5512?9byte?5boundar@
  10012CCA: FF 15 E0 D2 01 10  call        dword ptr [__imp__printf]
  10012CD0: 83 C4 04           add         esp,4
  10012CD3: 3B F4              cmp         esi,esp
  10012CD5: E8 66 E4 FF FF     call        @ILT+315(__RTC_CheckEsp)
  10012CDA: C6 85 B3 F7 FF FF  mov         byte ptr [ebp-84Dh],1
            01
  10012CE1: 8B 85 10 F6 FF FF  mov         eax,dword ptr [ebp-9F0h]
  10012CE7: 8B 48 24           mov         ecx,dword ptr [eax+24h]
  10012CEA: 81 E1 00 00 B0 00  and         ecx,0B00000h
  10012CF0: 81 F9 00 00 B0 00  cmp         ecx,0B00000h
  10012CF6: 75 1E              jne         10012D16
  10012CF8: 8B F4              mov         esi,esp
  10012CFA: 68 38 8B 01 10     push        offset ??_C@_0EJ@BOGAILHJ@Align?5data?5on?5a?51024?9byte?5bounda@
  10012CFF: FF 15 E0 D2 01 10  call        dword ptr [__imp__printf]
  10012D05: 83 C4 04           add         esp,4
  10012D08: 3B F4              cmp         esi,esp
  10012D0A: E8 31 E4 FF FF     call        @ILT+315(__RTC_CheckEsp)
  10012D0F: C6 85 B3 F7 FF FF  mov         byte ptr [ebp-84Dh],1
            01
  10012D16: 8B 85 10 F6 FF FF  mov         eax,dword ptr [ebp-9F0h]
  10012D1C: 8B 48 24           mov         ecx,dword ptr [eax+24h]
  10012D1F: 81 E1 00 00 C0 00  and         ecx,0C00000h
  10012D25: 81 F9 00 00 C0 00  cmp         ecx,0C00000h
  10012D2B: 75 1E              jne         10012D4B
  10012D2D: 8B F4              mov         esi,esp
  10012D2F: 68 E0 8A 01 10     push        offset ??_C@_0EJ@PACNLMNN@Align?5data?5on?5a?52048?9byte?5bounda@
  10012D34: FF 15 E0 D2 01 10  call        dword ptr [__imp__printf]
  10012D3A: 83 C4 04           add         esp,4
  10012D3D: 3B F4              cmp         esi,esp
  10012D3F: E8 FC E3 FF FF     call        @ILT+315(__RTC_CheckEsp)
  10012D44: C6 85 B3 F7 FF FF  mov         byte ptr [ebp-84Dh],1
            01
  10012D4B: 8B 85 10 F6 FF FF  mov         eax,dword ptr [ebp-9F0h]
  10012D51: 8B 48 24           mov         ecx,dword ptr [eax+24h]
  10012D54: 81 E1 00 00 D0 00  and         ecx,0D00000h
  10012D5A: 81 F9 00 00 D0 00  cmp         ecx,0D00000h
  10012D60: 75 1E              jne         10012D80
  10012D62: 8B F4              mov         esi,esp
  10012D64: 68 88 8A 01 10     push        offset ??_C@_0EJ@MKECAIBA@Align?5data?5on?5a?54096?9byte?5bounda@
  10012D69: FF 15 E0 D2 01 10  call        dword ptr [__imp__printf]
  10012D6F: 83 C4 04           add         esp,4
  10012D72: 3B F4              cmp         esi,esp
  10012D74: E8 C7 E3 FF FF     call        @ILT+315(__RTC_CheckEsp)
  10012D79: C6 85 B3 F7 FF FF  mov         byte ptr [ebp-84Dh],1
            01
  10012D80: 8B 85 10 F6 FF FF  mov         eax,dword ptr [ebp-9F0h]
  10012D86: 8B 48 24           mov         ecx,dword ptr [eax+24h]
  10012D89: 81 E1 00 00 E0 00  and         ecx,0E00000h
  10012D8F: 81 F9 00 00 E0 00  cmp         ecx,0E00000h
  10012D95: 75 1E              jne         10012DB5
  10012D97: 8B F4              mov         esi,esp
  10012D99: 68 30 8A 01 10     push        offset ??_C@_0EJ@HGLMGHKP@Align?5data?5on?5a?58192?9byte?5bounda@
  10012D9E: FF 15 E0 D2 01 10  call        dword ptr [__imp__printf]
  10012DA4: 83 C4 04           add         esp,4
  10012DA7: 3B F4              cmp         esi,esp
  10012DA9: E8 92 E3 FF FF     call        @ILT+315(__RTC_CheckEsp)
  10012DAE: C6 85 B3 F7 FF FF  mov         byte ptr [ebp-84Dh],1
            01
  10012DB5: 8B 85 10 F6 FF FF  mov         eax,dword ptr [ebp-9F0h]
  10012DBB: 8B 48 24           mov         ecx,dword ptr [eax+24h]
  10012DBE: 81 E1 00 00 00 01  and         ecx,1000000h
  10012DC4: 74 1E              je          10012DE4
  10012DC6: 8B F4              mov         esi,esp
  10012DC8: 68 F8 89 01 10     push        offset ??_C@_0CM@EGKIPFNB@This?5section?5contains?5extended?5r@
  10012DCD: FF 15 E0 D2 01 10  call        dword ptr [__imp__printf]
  10012DD3: 83 C4 04           add         esp,4
  10012DD6: 3B F4              cmp         esi,esp
  10012DD8: E8 63 E3 FF FF     call        @ILT+315(__RTC_CheckEsp)
  10012DDD: C6 85 B3 F7 FF FF  mov         byte ptr [ebp-84Dh],1
            01
  10012DE4: 8B 85 10 F6 FF FF  mov         eax,dword ptr [ebp-9F0h]
  10012DEA: 8B 48 24           mov         ecx,dword ptr [eax+24h]
  10012DED: 81 E1 00 00 00 02  and         ecx,2000000h
  10012DF3: 74 1E              je          10012E13
  10012DF5: 8B F4              mov         esi,esp
  10012DF7: 68 C4 89 01 10     push        offset ??_C@_0CJ@HNBLNKCJ@This?5section?5can?5be?5discarded?5as@
  10012DFC: FF 15 E0 D2 01 10  call        dword ptr [__imp__printf]
  10012E02: 83 C4 04           add         esp,4
  10012E05: 3B F4              cmp         esi,esp
  10012E07: E8 34 E3 FF FF     call        @ILT+315(__RTC_CheckEsp)
  10012E0C: C6 85 B3 F7 FF FF  mov         byte ptr [ebp-84Dh],1
            01
  10012E13: 8B 85 10 F6 FF FF  mov         eax,dword ptr [ebp-9F0h]
  10012E19: 8B 48 24           mov         ecx,dword ptr [eax+24h]
  10012E1C: 81 E1 00 00 00 04  and         ecx,4000000h
  10012E22: 74 1E              je          10012E42
  10012E24: 8B F4              mov         esi,esp
  10012E26: 68 9C 89 01 10     push        offset ??_C@_0BP@KKOKLBGF@This?5section?5cannot?5be?5cached?6?$AA@
  10012E2B: FF 15 E0 D2 01 10  call        dword ptr [__imp__printf]
  10012E31: 83 C4 04           add         esp,4
  10012E34: 3B F4              cmp         esi,esp
  10012E36: E8 05 E3 FF FF     call        @ILT+315(__RTC_CheckEsp)
  10012E3B: C6 85 B3 F7 FF FF  mov         byte ptr [ebp-84Dh],1
            01
  10012E42: 8B 85 10 F6 FF FF  mov         eax,dword ptr [ebp-9F0h]
  10012E48: 8B 48 24           mov         ecx,dword ptr [eax+24h]
  10012E4B: 81 E1 00 00 00 08  and         ecx,8000000h
  10012E51: 74 1E              je          10012E71
  10012E53: 8B F4              mov         esi,esp
  10012E55: 68 78 89 01 10     push        offset ??_C@_0BO@KLEIAHCA@This?5section?5cannot?5be?5paged?6?$AA@
  10012E5A: FF 15 E0 D2 01 10  call        dword ptr [__imp__printf]
  10012E60: 83 C4 04           add         esp,4
  10012E63: 3B F4              cmp         esi,esp
  10012E65: E8 D6 E2 FF FF     call        @ILT+315(__RTC_CheckEsp)
  10012E6A: C6 85 B3 F7 FF FF  mov         byte ptr [ebp-84Dh],1
            01
  10012E71: 8B 85 10 F6 FF FF  mov         eax,dword ptr [ebp-9F0h]
  10012E77: 8B 48 24           mov         ecx,dword ptr [eax+24h]
  10012E7A: 81 E1 00 00 00 10  and         ecx,10000000h
  10012E80: 74 1E              je          10012EA0
  10012E82: 8B F4              mov         esi,esp
  10012E84: 68 48 89 01 10     push        offset ??_C@_0CG@MPCABFNB@This?5section?5can?5be?5shared?5in?5me@
  10012E89: FF 15 E0 D2 01 10  call        dword ptr [__imp__printf]
  10012E8F: 83 C4 04           add         esp,4
  10012E92: 3B F4              cmp         esi,esp
  10012E94: E8 A7 E2 FF FF     call        @ILT+315(__RTC_CheckEsp)
  10012E99: C6 85 B3 F7 FF FF  mov         byte ptr [ebp-84Dh],1
            01
  10012EA0: 8B 85 10 F6 FF FF  mov         eax,dword ptr [ebp-9F0h]
  10012EA6: 8B 48 24           mov         ecx,dword ptr [eax+24h]
  10012EA9: 81 E1 00 00 00 20  and         ecx,20000000h
  10012EAF: 74 1E              je          10012ECF
  10012EB1: 8B F4              mov         esi,esp
  10012EB3: 68 18 89 01 10     push        offset ??_C@_0CG@MDLBJPH@This?5section?5can?5be?5executed?5as?5@
  10012EB8: FF 15 E0 D2 01 10  call        dword ptr [__imp__printf]
  10012EBE: 83 C4 04           add         esp,4
  10012EC1: 3B F4              cmp         esi,esp
  10012EC3: E8 78 E2 FF FF     call        @ILT+315(__RTC_CheckEsp)
  10012EC8: C6 85 B3 F7 FF FF  mov         byte ptr [ebp-84Dh],1
            01
  10012ECF: 8B 85 10 F6 FF FF  mov         eax,dword ptr [ebp-9F0h]
  10012ED5: 8B 48 24           mov         ecx,dword ptr [eax+24h]
  10012ED8: 81 E1 00 00 00 40  and         ecx,40000000h
  10012EDE: 74 1E              je          10012EFE
  10012EE0: 8B F4              mov         esi,esp
  10012EE2: 68 F8 88 01 10     push        offset ??_C@_0BK@JDBFAKNG@This?5section?5can?5be?5read?6?$AA@
  10012EE7: FF 15 E0 D2 01 10  call        dword ptr [__imp__printf]
  10012EED: 83 C4 04           add         esp,4
  10012EF0: 3B F4              cmp         esi,esp
  10012EF2: E8 49 E2 FF FF     call        @ILT+315(__RTC_CheckEsp)
  10012EF7: C6 85 B3 F7 FF FF  mov         byte ptr [ebp-84Dh],1
            01
  10012EFE: 8B 85 10 F6 FF FF  mov         eax,dword ptr [ebp-9F0h]
  10012F04: 8B 48 24           mov         ecx,dword ptr [eax+24h]
  10012F07: 81 E1 00 00 00 80  and         ecx,80000000h
  10012F0D: 81 F9 00 00 00 80  cmp         ecx,80000000h
  10012F13: 75 1E              jne         10012F33
  10012F15: 8B F4              mov         esi,esp
  10012F17: 68 D0 88 01 10     push        offset ??_C@_0CA@HIGOBANI@This?5section?5can?5be?5written?5to?6?$AA@
  10012F1C: FF 15 E0 D2 01 10  call        dword ptr [__imp__printf]
  10012F22: 83 C4 04           add         esp,4
  10012F25: 3B F4              cmp         esi,esp
  10012F27: E8 14 E2 FF FF     call        @ILT+315(__RTC_CheckEsp)
  10012F2C: C6 85 B3 F7 FF FF  mov         byte ptr [ebp-84Dh],1
            01
  10012F33: 0F B6 85 B3 F7 FF  movzx       eax,byte ptr [ebp-84Dh]
            FF
  10012F3A: 85 C0              test        eax,eax
  10012F3C: 75 38              jne         10012F76
  10012F3E: 8B F4              mov         esi,esp
  10012F40: 68 98 88 01 10     push        offset ??_C@_0CN@BPFHNAOF@Found?5an?5unkown?5or?5reserved?5char@
  10012F45: FF 15 E0 D2 01 10  call        dword ptr [__imp__printf]
  10012F4B: 83 C4 04           add         esp,4
  10012F4E: 3B F4              cmp         esi,esp
  10012F50: E8 EB E1 FF FF     call        @ILT+315(__RTC_CheckEsp)
  10012F55: 8B F4              mov         esi,esp
  10012F57: 8B 85 10 F6 FF FF  mov         eax,dword ptr [ebp-9F0h]
  10012F5D: 8B 48 24           mov         ecx,dword ptr [eax+24h]
  10012F60: 51                 push        ecx
  10012F61: 68 6C 88 01 10     push        offset ??_C@_0CF@DGHNNMBP@Characteristics?5of?5this?5section?3@
  10012F66: FF 15 E0 D2 01 10  call        dword ptr [__imp__printf]
  10012F6C: 83 C4 08           add         esp,8
  10012F6F: 3B F4              cmp         esi,esp
  10012F71: E8 CA E1 FF FF     call        @ILT+315(__RTC_CheckEsp)
  10012F76: 8B 85 10 F6 FF FF  mov         eax,dword ptr [ebp-9F0h]
  10012F7C: 83 78 10 00        cmp         dword ptr [eax+10h],0
  10012F80: 0F 84 B1 07 00 00  je          10013737
  10012F86: 8B F4              mov         esi,esp
  10012F88: 8B 85 10 F6 FF FF  mov         eax,dword ptr [ebp-9F0h]
  10012F8E: 50                 push        eax
  10012F8F: 68 44 88 01 10     push        offset ??_C@_0CA@FJDPLEON@?6?6Raw?5data?5of?5the?5?$CF?48s?5section?6?$AA@
  10012F94: FF 15 E0 D2 01 10  call        dword ptr [__imp__printf]
  10012F9A: 83 C4 08           add         esp,8
  10012F9D: 3B F4              cmp         esi,esp
  10012F9F: E8 9C E1 FF FF     call        @ILT+315(__RTC_CheckEsp)
  10012FA4: 8B 85 10 F6 FF FF  mov         eax,dword ptr [ebp-9F0h]
  10012FAA: 8B 48 10           mov         ecx,dword ptr [eax+10h]
  10012FAD: 89 8D A4 F7 FF FF  mov         dword ptr [ebp-85Ch],ecx
  10012FB3: 8B F4              mov         esi,esp
  10012FB5: 8B 85 A4 F7 FF FF  mov         eax,dword ptr [ebp-85Ch]
  10012FBB: 50                 push        eax
  10012FBC: FF 15 E4 D2 01 10  call        dword ptr [__imp__malloc]
  10012FC2: 83 C4 04           add         esp,4
  10012FC5: 3B F4              cmp         esi,esp
  10012FC7: E8 74 E1 FF FF     call        @ILT+315(__RTC_CheckEsp)
  10012FCC: 89 85 98 F7 FF FF  mov         dword ptr [ebp-868h],eax
  10012FD2: 8B 85 10 F6 FF FF  mov         eax,dword ptr [ebp-9F0h]
  10012FD8: 8B 48 10           mov         ecx,dword ptr [eax+10h]
  10012FDB: 51                 push        ecx
  10012FDC: 6A 00              push        0
  10012FDE: 8B 95 98 F7 FF FF  mov         edx,dword ptr [ebp-868h]
  10012FE4: 52                 push        edx
  10012FE5: E8 98 E0 FF FF     call        @ILT+125(_memset)
  10012FEA: 83 C4 0C           add         esp,0Ch
  10012FED: 8B F4              mov         esi,esp
  10012FEF: 6A 00              push        0
  10012FF1: 6A 00              push        0
  10012FF3: 8B 85 10 F6 FF FF  mov         eax,dword ptr [ebp-9F0h]
  10012FF9: 8B 48 14           mov         ecx,dword ptr [eax+14h]
  10012FFC: 51                 push        ecx
  10012FFD: 8B 95 4C F6 FF FF  mov         edx,dword ptr [ebp-9B4h]
  10013003: 52                 push        edx
  10013004: FF 15 BC D1 01 10  call        dword ptr [__imp__SetFilePointer@16]
  1001300A: 3B F4              cmp         esi,esp
  1001300C: E8 2F E1 FF FF     call        @ILT+315(__RTC_CheckEsp)
  10013011: 8B F4              mov         esi,esp
  10013013: 6A 00              push        0
  10013015: 8D 85 8C F7 FF FF  lea         eax,[ebp-874h]
  1001301B: 50                 push        eax
  1001301C: 8B 8D 10 F6 FF FF  mov         ecx,dword ptr [ebp-9F0h]
  10013022: 8B 51 10           mov         edx,dword ptr [ecx+10h]
  10013025: 52                 push        edx
  10013026: 8B 85 98 F7 FF FF  mov         eax,dword ptr [ebp-868h]
  1001302C: 50                 push        eax
  1001302D: 8B 8D 4C F6 FF FF  mov         ecx,dword ptr [ebp-9B4h]
  10013033: 51                 push        ecx
  10013034: FF 15 B8 D1 01 10  call        dword ptr [__imp__ReadFile@20]
  1001303A: 3B F4              cmp         esi,esp
  1001303C: E8 FF E0 FF FF     call        @ILT+315(__RTC_CheckEsp)
  10013041: 6A 45              push        45h
  10013043: 6A 00              push        0
  10013045: 8D 85 3C F7 FF FF  lea         eax,[ebp-8C4h]
  1001304B: 50                 push        eax
  1001304C: E8 31 E0 FF FF     call        @ILT+125(_memset)
  10013051: 83 C4 0C           add         esp,0Ch
  10013054: 6A 43              push        43h
  10013056: 6A 20              push        20h
  10013058: 8D 85 3C F7 FF FF  lea         eax,[ebp-8C4h]
  1001305E: 50                 push        eax
  1001305F: E8 1E E0 FF FF     call        @ILT+125(_memset)
  10013064: 83 C4 0C           add         esp,0Ch
  10013067: C7 45 D0 00 00 00  mov         dword ptr [ebp-30h],0
            00
  1001306E: 8B 85 1C F6 FF FF  mov         eax,dword ptr [ebp-9E4h]
  10013074: 8B 48 34           mov         ecx,dword ptr [eax+34h]
  10013077: 8B 95 10 F6 FF FF  mov         edx,dword ptr [ebp-9F0h]
  1001307D: 03 4A 0C           add         ecx,dword ptr [edx+0Ch]
  10013080: 89 8D 0C F7 FF FF  mov         dword ptr [ebp-8F4h],ecx
  10013086: C7 45 DC 00 00 00  mov         dword ptr [ebp-24h],0
            00
  1001308D: EB 09              jmp         10013098
  1001308F: 8B 45 DC           mov         eax,dword ptr [ebp-24h]
  10013092: 83 C0 01           add         eax,1
  10013095: 89 45 DC           mov         dword ptr [ebp-24h],eax
  10013098: 8B 45 DC           mov         eax,dword ptr [ebp-24h]
  1001309B: 3B 85 A4 F7 FF FF  cmp         eax,dword ptr [ebp-85Ch]
  100130A1: 0F 8D 2E 06 00 00  jge         100136D5
  100130A7: 8B 85 98 F7 FF FF  mov         eax,dword ptr [ebp-868h]
  100130AD: 03 45 DC           add         eax,dword ptr [ebp-24h]
  100130B0: 8A 08              mov         cl,byte ptr [eax]
  100130B2: 88 8D 33 F7 FF FF  mov         byte ptr [ebp-8CDh],cl
  100130B8: 6A 03              push        3
  100130BA: 6A 00              push        0
  100130BC: 8D 85 18 F7 FF FF  lea         eax,[ebp-8E8h]
  100130C2: 50                 push        eax
  100130C3: E8 BA DF FF FF     call        @ILT+125(_memset)
  100130C8: 83 C4 0C           add         esp,0Ch
  100130CB: C6 85 18 F7 FF FF  mov         byte ptr [ebp-8E8h],30h
            30
  100130D2: C6 85 19 F7 FF FF  mov         byte ptr [ebp-8E7h],30h
            30
  100130D9: 0F B6 85 33 F7 FF  movzx       eax,byte ptr [ebp-8CDh]
            FF
  100130E0: 89 85 0C F5 FF FF  mov         dword ptr [ebp-0AF4h],eax
  100130E6: 83 BD 0C F5 FF FF  cmp         dword ptr [ebp-0AF4h],0Fh
            0F
  100130ED: 0F 87 2B 01 00 00  ja          1001321E
  100130F3: 8B 8D 0C F5 FF FF  mov         ecx,dword ptr [ebp-0AF4h]
  100130F9: FF 24 8D A0 3E 01  jmp         dword ptr [ecx*4+10013EA0h]
            10
  10013100: C6 85 18 F7 FF FF  mov         byte ptr [ebp-8E8h],30h
            30
  10013107: C6 85 19 F7 FF FF  mov         byte ptr [ebp-8E7h],30h
            30
  1001310E: E9 31 01 00 00     jmp         10013244
  10013113: C6 85 18 F7 FF FF  mov         byte ptr [ebp-8E8h],30h
            30
  1001311A: C6 85 19 F7 FF FF  mov         byte ptr [ebp-8E7h],31h
            31
  10013121: E9 1E 01 00 00     jmp         10013244
  10013126: C6 85 18 F7 FF FF  mov         byte ptr [ebp-8E8h],30h
            30
  1001312D: C6 85 19 F7 FF FF  mov         byte ptr [ebp-8E7h],32h
            32
  10013134: E9 0B 01 00 00     jmp         10013244
  10013139: C6 85 18 F7 FF FF  mov         byte ptr [ebp-8E8h],30h
            30
  10013140: C6 85 19 F7 FF FF  mov         byte ptr [ebp-8E7h],33h
            33
  10013147: E9 F8 00 00 00     jmp         10013244
  1001314C: C6 85 18 F7 FF FF  mov         byte ptr [ebp-8E8h],30h
            30
  10013153: C6 85 19 F7 FF FF  mov         byte ptr [ebp-8E7h],34h
            34
  1001315A: E9 E5 00 00 00     jmp         10013244
  1001315F: C6 85 18 F7 FF FF  mov         byte ptr [ebp-8E8h],30h
            30
  10013166: C6 85 19 F7 FF FF  mov         byte ptr [ebp-8E7h],35h
            35
  1001316D: E9 D2 00 00 00     jmp         10013244
  10013172: C6 85 18 F7 FF FF  mov         byte ptr [ebp-8E8h],30h
            30
  10013179: C6 85 19 F7 FF FF  mov         byte ptr [ebp-8E7h],36h
            36
  10013180: E9 BF 00 00 00     jmp         10013244
  10013185: C6 85 18 F7 FF FF  mov         byte ptr [ebp-8E8h],30h
            30
  1001318C: C6 85 19 F7 FF FF  mov         byte ptr [ebp-8E7h],37h
            37
  10013193: E9 AC 00 00 00     jmp         10013244
  10013198: C6 85 18 F7 FF FF  mov         byte ptr [ebp-8E8h],30h
            30
  1001319F: C6 85 19 F7 FF FF  mov         byte ptr [ebp-8E7h],38h
            38
  100131A6: E9 99 00 00 00     jmp         10013244
  100131AB: C6 85 18 F7 FF FF  mov         byte ptr [ebp-8E8h],30h
            30
  100131B2: C6 85 19 F7 FF FF  mov         byte ptr [ebp-8E7h],39h
            39
  100131B9: E9 86 00 00 00     jmp         10013244
  100131BE: C6 85 18 F7 FF FF  mov         byte ptr [ebp-8E8h],30h
            30
  100131C5: C6 85 19 F7 FF FF  mov         byte ptr [ebp-8E7h],61h
            61
  100131CC: EB 76              jmp         10013244
  100131CE: C6 85 18 F7 FF FF  mov         byte ptr [ebp-8E8h],30h
            30
  100131D5: C6 85 19 F7 FF FF  mov         byte ptr [ebp-8E7h],62h
            62
  100131DC: EB 66              jmp         10013244
  100131DE: C6 85 18 F7 FF FF  mov         byte ptr [ebp-8E8h],30h
            30
  100131E5: C6 85 19 F7 FF FF  mov         byte ptr [ebp-8E7h],63h
            63
  100131EC: EB 56              jmp         10013244
  100131EE: C6 85 18 F7 FF FF  mov         byte ptr [ebp-8E8h],30h
            30
  100131F5: C6 85 19 F7 FF FF  mov         byte ptr [ebp-8E7h],64h
            64
  100131FC: EB 46              jmp         10013244
  100131FE: C6 85 18 F7 FF FF  mov         byte ptr [ebp-8E8h],30h
            30
  10013205: C6 85 19 F7 FF FF  mov         byte ptr [ebp-8E7h],65h
            65
  1001320C: EB 36              jmp         10013244
  1001320E: C6 85 18 F7 FF FF  mov         byte ptr [ebp-8E8h],30h
            30
  10013215: C6 85 19 F7 FF FF  mov         byte ptr [ebp-8E7h],66h
            66
  1001321C: EB 26              jmp         10013244
  1001321E: 0F B6 85 33 F7 FF  movzx       eax,byte ptr [ebp-8CDh]
            FF
  10013225: 8B F4              mov         esi,esp
  10013227: 50                 push        eax
  10013228: 68 40 88 01 10     push        offset ??_C@_02NJNOFBBI@?$CFx?$AA@
  1001322D: 8D 8D 18 F7 FF FF  lea         ecx,[ebp-8E8h]
  10013233: 51                 push        ecx
  10013234: FF 15 E8 D2 01 10  call        dword ptr [__imp__sprintf]
  1001323A: 83 C4 0C           add         esp,0Ch
  1001323D: 3B F4              cmp         esi,esp
  1001323F: E8 FC DE FF FF     call        @ILT+315(__RTC_CheckEsp)
  10013244: 0F B6 85 33 F7 FF  movzx       eax,byte ptr [ebp-8CDh]
            FF
  1001324B: 85 C0              test        eax,eax
  1001324D: 74 0E              je          1001325D
  1001324F: 8A 85 33 F7 FF FF  mov         al,byte ptr [ebp-8CDh]
  10013255: 88 85 27 F7 FF FF  mov         byte ptr [ebp-8D9h],al
  1001325B: EB 07              jmp         10013264
  1001325D: C6 85 27 F7 FF FF  mov         byte ptr [ebp-8D9h],2Eh
            2E
  10013264: 8B 45 D0           mov         eax,dword ptr [ebp-30h]
  10013267: 89 85 0C F5 FF FF  mov         dword ptr [ebp-0AF4h],eax
  1001326D: 83 BD 0C F5 FF FF  cmp         dword ptr [ebp-0AF4h],0Fh
            0F
  10013274: 0F 87 56 04 00 00  ja          100136D0
  1001327A: 8B 8D 0C F5 FF FF  mov         ecx,dword ptr [ebp-0AF4h]
  10013280: FF 24 8D E0 3E 01  jmp         dword ptr [ecx*4+10013EE0h]
            10
  10013287: C6 85 3C F7 FF FF  mov         byte ptr [ebp-8C4h],3Ah
            3A
  1001328E: C6 85 6E F7 FF FF  mov         byte ptr [ebp-892h],20h
            20
  10013295: 8A 85 6E F7 FF FF  mov         al,byte ptr [ebp-892h]
  1001329B: 88 85 6D F7 FF FF  mov         byte ptr [ebp-893h],al
  100132A1: 8A 8D 6D F7 FF FF  mov         cl,byte ptr [ebp-893h]
  100132A7: 88 8D 6A F7 FF FF  mov         byte ptr [ebp-896h],cl
  100132AD: 8A 95 6A F7 FF FF  mov         dl,byte ptr [ebp-896h]
  100132B3: 88 95 67 F7 FF FF  mov         byte ptr [ebp-899h],dl
  100132B9: 8A 85 67 F7 FF FF  mov         al,byte ptr [ebp-899h]
  100132BF: 88 85 64 F7 FF FF  mov         byte ptr [ebp-89Ch],al
  100132C5: 8A 8D 64 F7 FF FF  mov         cl,byte ptr [ebp-89Ch]
  100132CB: 88 8D 61 F7 FF FF  mov         byte ptr [ebp-89Fh],cl
  100132D1: 8A 95 61 F7 FF FF  mov         dl,byte ptr [ebp-89Fh]
  100132D7: 88 95 5E F7 FF FF  mov         byte ptr [ebp-8A2h],dl
  100132DD: 8A 85 5E F7 FF FF  mov         al,byte ptr [ebp-8A2h]
  100132E3: 88 85 5B F7 FF FF  mov         byte ptr [ebp-8A5h],al
  100132E9: 8A 8D 5B F7 FF FF  mov         cl,byte ptr [ebp-8A5h]
  100132EF: 88 8D 58 F7 FF FF  mov         byte ptr [ebp-8A8h],cl
  100132F5: 8A 95 58 F7 FF FF  mov         dl,byte ptr [ebp-8A8h]
  100132FB: 88 95 55 F7 FF FF  mov         byte ptr [ebp-8ABh],dl
  10013301: 8A 85 55 F7 FF FF  mov         al,byte ptr [ebp-8ABh]
  10013307: 88 85 52 F7 FF FF  mov         byte ptr [ebp-8AEh],al
  1001330D: 8A 8D 52 F7 FF FF  mov         cl,byte ptr [ebp-8AEh]
  10013313: 88 8D 4F F7 FF FF  mov         byte ptr [ebp-8B1h],cl
  10013319: 8A 95 4F F7 FF FF  mov         dl,byte ptr [ebp-8B1h]
  1001331F: 88 95 4C F7 FF FF  mov         byte ptr [ebp-8B4h],dl
  10013325: 8A 85 4C F7 FF FF  mov         al,byte ptr [ebp-8B4h]
  1001332B: 88 85 49 F7 FF FF  mov         byte ptr [ebp-8B7h],al
  10013331: 8A 8D 49 F7 FF FF  mov         cl,byte ptr [ebp-8B7h]
  10013337: 88 8D 46 F7 FF FF  mov         byte ptr [ebp-8BAh],cl
  1001333D: 8A 95 46 F7 FF FF  mov         dl,byte ptr [ebp-8BAh]
  10013343: 88 95 43 F7 FF FF  mov         byte ptr [ebp-8BDh],dl
  10013349: 8A 85 43 F7 FF FF  mov         al,byte ptr [ebp-8BDh]
  1001334F: 88 85 40 F7 FF FF  mov         byte ptr [ebp-8C0h],al
  10013355: 8A 8D 40 F7 FF FF  mov         cl,byte ptr [ebp-8C0h]
  1001335B: 88 8D 3D F7 FF FF  mov         byte ptr [ebp-8C3h],cl
  10013361: C7 45 C4 33 00 00  mov         dword ptr [ebp-3Ch],33h
            00
  10013368: EB 09              jmp         10013373
  1001336A: 8B 45 C4           mov         eax,dword ptr [ebp-3Ch]
  1001336D: 83 C0 01           add         eax,1
  10013370: 89 45 C4           mov         dword ptr [ebp-3Ch],eax
  10013373: 83 7D C4 42        cmp         dword ptr [ebp-3Ch],42h
  10013377: 7D 0D              jge         10013386
  10013379: 8B 45 C4           mov         eax,dword ptr [ebp-3Ch]
  1001337C: C6 84 05 3C F7 FF  mov         byte ptr [ebp+eax-8C4h],2Eh
            FF 2E
  10013384: EB E4              jmp         1001336A
  10013386: 8A 85 18 F7 FF FF  mov         al,byte ptr [ebp-8E8h]
  1001338C: 88 85 3E F7 FF FF  mov         byte ptr [ebp-8C2h],al
  10013392: 8A 85 19 F7 FF FF  mov         al,byte ptr [ebp-8E7h]
  10013398: 88 85 3F F7 FF FF  mov         byte ptr [ebp-8C1h],al
  1001339E: 8A 85 27 F7 FF FF  mov         al,byte ptr [ebp-8D9h]
  100133A4: 88 85 6F F7 FF FF  mov         byte ptr [ebp-891h],al
  100133AA: 8B 45 D0           mov         eax,dword ptr [ebp-30h]
  100133AD: 83 C0 01           add         eax,1
  100133B0: 89 45 D0           mov         dword ptr [ebp-30h],eax
  100133B3: E9 18 03 00 00     jmp         100136D0
  100133B8: 8A 85 18 F7 FF FF  mov         al,byte ptr [ebp-8E8h]
  100133BE: 88 85 41 F7 FF FF  mov         byte ptr [ebp-8BFh],al
  100133C4: 8A 85 19 F7 FF FF  mov         al,byte ptr [ebp-8E7h]
  100133CA: 88 85 42 F7 FF FF  mov         byte ptr [ebp-8BEh],al
  100133D0: 8A 85 27 F7 FF FF  mov         al,byte ptr [ebp-8D9h]
  100133D6: 88 85 70 F7 FF FF  mov         byte ptr [ebp-890h],al
  100133DC: 8B 45 D0           mov         eax,dword ptr [ebp-30h]
  100133DF: 83 C0 01           add         eax,1
  100133E2: 89 45 D0           mov         dword ptr [ebp-30h],eax
  100133E5: E9 E6 02 00 00     jmp         100136D0
  100133EA: 8A 85 18 F7 FF FF  mov         al,byte ptr [ebp-8E8h]
  100133F0: 88 85 44 F7 FF FF  mov         byte ptr [ebp-8BCh],al
  100133F6: 8A 85 19 F7 FF FF  mov         al,byte ptr [ebp-8E7h]
  100133FC: 88 85 45 F7 FF FF  mov         byte ptr [ebp-8BBh],al
  10013402: 8A 85 27 F7 FF FF  mov         al,byte ptr [ebp-8D9h]
  10013408: 88 85 71 F7 FF FF  mov         byte ptr [ebp-88Fh],al
  1001340E: 8B 45 D0           mov         eax,dword ptr [ebp-30h]
  10013411: 83 C0 01           add         eax,1
  10013414: 89 45 D0           mov         dword ptr [ebp-30h],eax
  10013417: E9 B4 02 00 00     jmp         100136D0
  1001341C: 8A 85 18 F7 FF FF  mov         al,byte ptr [ebp-8E8h]
  10013422: 88 85 47 F7 FF FF  mov         byte ptr [ebp-8B9h],al
  10013428: 8A 85 19 F7 FF FF  mov         al,byte ptr [ebp-8E7h]
  1001342E: 88 85 48 F7 FF FF  mov         byte ptr [ebp-8B8h],al
  10013434: 8A 85 27 F7 FF FF  mov         al,byte ptr [ebp-8D9h]
  1001343A: 88 85 72 F7 FF FF  mov         byte ptr [ebp-88Eh],al
  10013440: 8B 45 D0           mov         eax,dword ptr [ebp-30h]
  10013443: 83 C0 01           add         eax,1
  10013446: 89 45 D0           mov         dword ptr [ebp-30h],eax
  10013449: E9 82 02 00 00     jmp         100136D0
  1001344E: 8A 85 18 F7 FF FF  mov         al,byte ptr [ebp-8E8h]
  10013454: 88 85 4A F7 FF FF  mov         byte ptr [ebp-8B6h],al
  1001345A: 8A 85 19 F7 FF FF  mov         al,byte ptr [ebp-8E7h]
  10013460: 88 85 4B F7 FF FF  mov         byte ptr [ebp-8B5h],al
  10013466: 8A 85 27 F7 FF FF  mov         al,byte ptr [ebp-8D9h]
  1001346C: 88 85 73 F7 FF FF  mov         byte ptr [ebp-88Dh],al
  10013472: 8B 45 D0           mov         eax,dword ptr [ebp-30h]
  10013475: 83 C0 01           add         eax,1
  10013478: 89 45 D0           mov         dword ptr [ebp-30h],eax
  1001347B: E9 50 02 00 00     jmp         100136D0
  10013480: 8A 85 18 F7 FF FF  mov         al,byte ptr [ebp-8E8h]
  10013486: 88 85 4D F7 FF FF  mov         byte ptr [ebp-8B3h],al
  1001348C: 8A 85 19 F7 FF FF  mov         al,byte ptr [ebp-8E7h]
  10013492: 88 85 4E F7 FF FF  mov         byte ptr [ebp-8B2h],al
  10013498: 8A 85 27 F7 FF FF  mov         al,byte ptr [ebp-8D9h]
  1001349E: 88 85 74 F7 FF FF  mov         byte ptr [ebp-88Ch],al
  100134A4: 8B 45 D0           mov         eax,dword ptr [ebp-30h]
  100134A7: 83 C0 01           add         eax,1
  100134AA: 89 45 D0           mov         dword ptr [ebp-30h],eax
  100134AD: E9 1E 02 00 00     jmp         100136D0
  100134B2: 8A 85 18 F7 FF FF  mov         al,byte ptr [ebp-8E8h]
  100134B8: 88 85 50 F7 FF FF  mov         byte ptr [ebp-8B0h],al
  100134BE: 8A 85 19 F7 FF FF  mov         al,byte ptr [ebp-8E7h]
  100134C4: 88 85 51 F7 FF FF  mov         byte ptr [ebp-8AFh],al
  100134CA: 8A 85 27 F7 FF FF  mov         al,byte ptr [ebp-8D9h]
  100134D0: 88 85 75 F7 FF FF  mov         byte ptr [ebp-88Bh],al
  100134D6: 8B 45 D0           mov         eax,dword ptr [ebp-30h]
  100134D9: 83 C0 01           add         eax,1
  100134DC: 89 45 D0           mov         dword ptr [ebp-30h],eax
  100134DF: E9 EC 01 00 00     jmp         100136D0
  100134E4: 8A 85 18 F7 FF FF  mov         al,byte ptr [ebp-8E8h]
  100134EA: 88 85 53 F7 FF FF  mov         byte ptr [ebp-8ADh],al
  100134F0: 8A 85 19 F7 FF FF  mov         al,byte ptr [ebp-8E7h]
  100134F6: 88 85 54 F7 FF FF  mov         byte ptr [ebp-8ACh],al
  100134FC: 8A 85 27 F7 FF FF  mov         al,byte ptr [ebp-8D9h]
  10013502: 88 85 76 F7 FF FF  mov         byte ptr [ebp-88Ah],al
  10013508: 8B 45 D0           mov         eax,dword ptr [ebp-30h]
  1001350B: 83 C0 01           add         eax,1
  1001350E: 89 45 D0           mov         dword ptr [ebp-30h],eax
  10013511: E9 BA 01 00 00     jmp         100136D0
  10013516: 8A 85 18 F7 FF FF  mov         al,byte ptr [ebp-8E8h]
  1001351C: 88 85 56 F7 FF FF  mov         byte ptr [ebp-8AAh],al
  10013522: 8A 85 19 F7 FF FF  mov         al,byte ptr [ebp-8E7h]
  10013528: 88 85 57 F7 FF FF  mov         byte ptr [ebp-8A9h],al
  1001352E: 8A 85 27 F7 FF FF  mov         al,byte ptr [ebp-8D9h]
  10013534: 88 85 77 F7 FF FF  mov         byte ptr [ebp-889h],al
  1001353A: 8B 45 D0           mov         eax,dword ptr [ebp-30h]
  1001353D: 83 C0 01           add         eax,1
  10013540: 89 45 D0           mov         dword ptr [ebp-30h],eax
  10013543: E9 88 01 00 00     jmp         100136D0
  10013548: 8A 85 18 F7 FF FF  mov         al,byte ptr [ebp-8E8h]
  1001354E: 88 85 59 F7 FF FF  mov         byte ptr [ebp-8A7h],al
  10013554: 8A 85 19 F7 FF FF  mov         al,byte ptr [ebp-8E7h]
  1001355A: 88 85 5A F7 FF FF  mov         byte ptr [ebp-8A6h],al
  10013560: 8A 85 27 F7 FF FF  mov         al,byte ptr [ebp-8D9h]
  10013566: 88 85 78 F7 FF FF  mov         byte ptr [ebp-888h],al
  1001356C: 8B 45 D0           mov         eax,dword ptr [ebp-30h]
  1001356F: 83 C0 01           add         eax,1
  10013572: 89 45 D0           mov         dword ptr [ebp-30h],eax
  10013575: E9 56 01 00 00     jmp         100136D0
  1001357A: 8A 85 18 F7 FF FF  mov         al,byte ptr [ebp-8E8h]
  10013580: 88 85 5C F7 FF FF  mov         byte ptr [ebp-8A4h],al
  10013586: 8A 85 19 F7 FF FF  mov         al,byte ptr [ebp-8E7h]
  1001358C: 88 85 5D F7 FF FF  mov         byte ptr [ebp-8A3h],al
  10013592: 8A 85 27 F7 FF FF  mov         al,byte ptr [ebp-8D9h]
  10013598: 88 85 79 F7 FF FF  mov         byte ptr [ebp-887h],al
  1001359E: 8B 45 D0           mov         eax,dword ptr [ebp-30h]
  100135A1: 83 C0 01           add         eax,1
  100135A4: 89 45 D0           mov         dword ptr [ebp-30h],eax
  100135A7: E9 24 01 00 00     jmp         100136D0
  100135AC: 8A 85 18 F7 FF FF  mov         al,byte ptr [ebp-8E8h]
  100135B2: 88 85 5F F7 FF FF  mov         byte ptr [ebp-8A1h],al
  100135B8: 8A 85 19 F7 FF FF  mov         al,byte ptr [ebp-8E7h]
  100135BE: 88 85 60 F7 FF FF  mov         byte ptr [ebp-8A0h],al
  100135C4: 8A 85 27 F7 FF FF  mov         al,byte ptr [ebp-8D9h]
  100135CA: 88 85 7A F7 FF FF  mov         byte ptr [ebp-886h],al
  100135D0: 8B 45 D0           mov         eax,dword ptr [ebp-30h]
  100135D3: 83 C0 01           add         eax,1
  100135D6: 89 45 D0           mov         dword ptr [ebp-30h],eax
  100135D9: E9 F2 00 00 00     jmp         100136D0
  100135DE: 8A 85 18 F7 FF FF  mov         al,byte ptr [ebp-8E8h]
  100135E4: 88 85 62 F7 FF FF  mov         byte ptr [ebp-89Eh],al
  100135EA: 8A 85 19 F7 FF FF  mov         al,byte ptr [ebp-8E7h]
  100135F0: 88 85 63 F7 FF FF  mov         byte ptr [ebp-89Dh],al
  100135F6: 8A 85 27 F7 FF FF  mov         al,byte ptr [ebp-8D9h]
  100135FC: 88 85 7B F7 FF FF  mov         byte ptr [ebp-885h],al
  10013602: 8B 45 D0           mov         eax,dword ptr [ebp-30h]
  10013605: 83 C0 01           add         eax,1
  10013608: 89 45 D0           mov         dword ptr [ebp-30h],eax
  1001360B: E9 C0 00 00 00     jmp         100136D0
  10013610: 8A 85 18 F7 FF FF  mov         al,byte ptr [ebp-8E8h]
  10013616: 88 85 65 F7 FF FF  mov         byte ptr [ebp-89Bh],al
  1001361C: 8A 85 19 F7 FF FF  mov         al,byte ptr [ebp-8E7h]
  10013622: 88 85 66 F7 FF FF  mov         byte ptr [ebp-89Ah],al
  10013628: 8A 85 27 F7 FF FF  mov         al,byte ptr [ebp-8D9h]
  1001362E: 88 85 7C F7 FF FF  mov         byte ptr [ebp-884h],al
  10013634: 8B 45 D0           mov         eax,dword ptr [ebp-30h]
  10013637: 83 C0 01           add         eax,1
  1001363A: 89 45 D0           mov         dword ptr [ebp-30h],eax
  1001363D: E9 8E 00 00 00     jmp         100136D0
  10013642: 8A 85 18 F7 FF FF  mov         al,byte ptr [ebp-8E8h]
  10013648: 88 85 68 F7 FF FF  mov         byte ptr [ebp-898h],al
  1001364E: 8A 85 19 F7 FF FF  mov         al,byte ptr [ebp-8E7h]
  10013654: 88 85 69 F7 FF FF  mov         byte ptr [ebp-897h],al
  1001365A: 8A 85 27 F7 FF FF  mov         al,byte ptr [ebp-8D9h]
  10013660: 88 85 7D F7 FF FF  mov         byte ptr [ebp-883h],al
  10013666: 8B 45 D0           mov         eax,dword ptr [ebp-30h]
  10013669: 83 C0 01           add         eax,1
  1001366C: 89 45 D0           mov         dword ptr [ebp-30h],eax
  1001366F: EB 5F              jmp         100136D0
  10013671: 8A 85 18 F7 FF FF  mov         al,byte ptr [ebp-8E8h]
  10013677: 88 85 6B F7 FF FF  mov         byte ptr [ebp-895h],al
  1001367D: 8A 85 19 F7 FF FF  mov         al,byte ptr [ebp-8E7h]
  10013683: 88 85 6C F7 FF FF  mov         byte ptr [ebp-894h],al
  10013689: 8A 85 27 F7 FF FF  mov         al,byte ptr [ebp-8D9h]
  1001368F: 88 85 7E F7 FF FF  mov         byte ptr [ebp-882h],al
  10013695: 8B F4              mov         esi,esp
  10013697: 8D 85 3C F7 FF FF  lea         eax,[ebp-8C4h]
  1001369D: 50                 push        eax
  1001369E: 8B 8D 0C F7 FF FF  mov         ecx,dword ptr [ebp-8F4h]
  100136A4: 51                 push        ecx
  100136A5: 68 38 88 01 10     push        offset ??_C@_05OLEKAAFI@?$CFx?$CFs?6?$AA@
  100136AA: FF 15 E0 D2 01 10  call        dword ptr [__imp__printf]
  100136B0: 83 C4 0C           add         esp,0Ch
  100136B3: 3B F4              cmp         esi,esp
  100136B5: E8 86 DA FF FF     call        @ILT+315(__RTC_CheckEsp)
  100136BA: 8B 85 0C F7 FF FF  mov         eax,dword ptr [ebp-8F4h]
  100136C0: 83 C0 10           add         eax,10h
  100136C3: 89 85 0C F7 FF FF  mov         dword ptr [ebp-8F4h],eax
  100136C9: C7 45 D0 00 00 00  mov         dword ptr [ebp-30h],0
            00
  100136D0: E9 BA F9 FF FF     jmp         1001308F
  100136D5: 83 7D D0 0F        cmp         dword ptr [ebp-30h],0Fh
  100136D9: 74 2C              je          10013707
  100136DB: 8B F4              mov         esi,esp
  100136DD: 8D 85 3C F7 FF FF  lea         eax,[ebp-8C4h]
  100136E3: 50                 push        eax
  100136E4: 8B 8D 0C F7 FF FF  mov         ecx,dword ptr [ebp-8F4h]
  100136EA: 51                 push        ecx
  100136EB: 68 38 88 01 10     push        offset ??_C@_05OLEKAAFI@?$CFx?$CFs?6?$AA@
  100136F0: FF 15 E0 D2 01 10  call        dword ptr [__imp__printf]
  100136F6: 83 C4 0C           add         esp,0Ch
  100136F9: 3B F4              cmp         esi,esp
  100136FB: E8 40 DA FF FF     call        @ILT+315(__RTC_CheckEsp)
  10013700: C7 45 D0 00 00 00  mov         dword ptr [ebp-30h],0
            00
  10013707: 8B F4              mov         esi,esp
  10013709: 8B 85 98 F7 FF FF  mov         eax,dword ptr [ebp-868h]
  1001370F: 50                 push        eax
  10013710: FF 15 EC D2 01 10  call        dword ptr [__imp__free]
  10013716: 83 C4 04           add         esp,4
  10013719: 3B F4              cmp         esi,esp
  1001371B: E8 20 DA FF FF     call        @ILT+315(__RTC_CheckEsp)
  10013720: 8B F4              mov         esi,esp
  10013722: 68 34 88 01 10     push        offset ??_C@_02PHMGELLB@?6?6?$AA@
  10013727: FF 15 E0 D2 01 10  call        dword ptr [__imp__printf]
  1001372D: 83 C4 04           add         esp,4
  10013730: 3B F4              cmp         esi,esp
  10013732: E8 09 DA FF FF     call        @ILT+315(__RTC_CheckEsp)
  10013737: 8B 85 10 F6 FF FF  mov         eax,dword ptr [ebp-9F0h]
  1001373D: 83 C0 28           add         eax,28h
  10013740: 89 85 10 F6 FF FF  mov         dword ptr [ebp-9F0h],eax
  10013746: E9 DF F0 FF FF     jmp         1001282A
  1001374B: 8B 85 1C F6 FF FF  mov         eax,dword ptr [ebp-9E4h]
  10013751: 83 78 7C 00        cmp         dword ptr [eax+7Ch],0
  10013755: 0F 84 B3 02 00 00  je          10013A0E
  1001375B: 8B F4              mov         esi,esp
  1001375D: 68 14 88 01 10     push        offset ??_C@_0BL@FDDIAGHO@?6?6Export?5Function?5Details?6?$AA@
  10013762: FF 15 E0 D2 01 10  call        dword ptr [__imp__printf]
  10013768: 83 C4 04           add         esp,4
  1001376B: 3B F4              cmp         esi,esp
  1001376D: E8 CE D9 FF FF     call        @ILT+315(__RTC_CheckEsp)
  10013772: 8B 85 1C F6 FF FF  mov         eax,dword ptr [ebp-9E4h]
  10013778: 8B 48 78           mov         ecx,dword ptr [eax+78h]
  1001377B: 51                 push        ecx
  1001377C: 8B 95 34 F6 FF FF  mov         edx,dword ptr [ebp-9CCh]
  10013782: 52                 push        edx
  10013783: E8 CC D9 FF FF     call        @ILT+335(?RVAToOffset@@YAKPAXK@Z)
  10013788: 83 C4 08           add         esp,8
  1001378B: 89 85 DC F6 FF FF  mov         dword ptr [ebp-924h],eax
  10013791: 8B 85 34 F6 FF FF  mov         eax,dword ptr [ebp-9CCh]
  10013797: 03 85 DC F6 FF FF  add         eax,dword ptr [ebp-924h]
  1001379D: 89 85 D4 F5 FF FF  mov         dword ptr [ebp-0A2Ch],eax
  100137A3: 8B 85 D4 F5 FF FF  mov         eax,dword ptr [ebp-0A2Ch]
  100137A9: 8B 48 0C           mov         ecx,dword ptr [eax+0Ch]
  100137AC: 51                 push        ecx
  100137AD: 8B 95 34 F6 FF FF  mov         edx,dword ptr [ebp-9CCh]
  100137B3: 52                 push        edx
  100137B4: E8 9B D9 FF FF     call        @ILT+335(?RVAToOffset@@YAKPAXK@Z)
  100137B9: 83 C4 08           add         esp,8
  100137BC: 03 85 34 F6 FF FF  add         eax,dword ptr [ebp-9CCh]
  100137C2: 8B F4              mov         esi,esp
  100137C4: 50                 push        eax
  100137C5: 68 F8 87 01 10     push        offset ??_C@_0BI@EDDIGND@Name?5of?5the?5module?3?5?$CFs?6?$AA@
  100137CA: FF 15 E0 D2 01 10  call        dword ptr [__imp__printf]
  100137D0: 83 C4 08           add         esp,8
  100137D3: 3B F4              cmp         esi,esp
  100137D5: E8 66 D9 FF FF     call        @ILT+315(__RTC_CheckEsp)
  100137DA: 8B F4              mov         esi,esp
  100137DC: 8B 85 D4 F5 FF FF  mov         eax,dword ptr [ebp-0A2Ch]
  100137E2: 8B 48 14           mov         ecx,dword ptr [eax+14h]
  100137E5: 51                 push        ecx
  100137E6: 68 DC 87 01 10     push        offset ??_C@_0BI@DPLJFBBL@Number?5of?5Functions?3?$CFd?6?$AA@
  100137EB: FF 15 E0 D2 01 10  call        dword ptr [__imp__printf]
  100137F1: 83 C4 08           add         esp,8
  100137F4: 3B F4              cmp         esi,esp
  100137F6: E8 45 D9 FF FF     call        @ILT+315(__RTC_CheckEsp)
  100137FB: 8B F4              mov         esi,esp
  100137FD: 8B 85 D4 F5 FF FF  mov         eax,dword ptr [ebp-0A2Ch]
  10013803: 8B 48 18           mov         ecx,dword ptr [eax+18h]
  10013806: 51                 push        ecx
  10013807: 68 C0 87 01 10     push        offset ??_C@_0BF@OMECCPII@Number?5of?5Names?3?5?$CFd?6?$AA@
  1001380C: FF 15 E0 D2 01 10  call        dword ptr [__imp__printf]
  10013812: 83 C4 08           add         esp,8
  10013815: 3B F4              cmp         esi,esp
  10013817: E8 24 D9 FF FF     call        @ILT+315(__RTC_CheckEsp)
  1001381C: 8B F4              mov         esi,esp
  1001381E: 8B 85 D4 F5 FF FF  mov         eax,dword ptr [ebp-0A2Ch]
  10013824: 8B 48 10           mov         ecx,dword ptr [eax+10h]
  10013827: 51                 push        ecx
  10013828: 68 B4 87 01 10     push        offset ??_C@_08LJCGEAPH@Base?3?$CFd?6?$AA@
  1001382D: FF 15 E0 D2 01 10  call        dword ptr [__imp__printf]
  10013833: 83 C4 08           add         esp,8
  10013836: 3B F4              cmp         esi,esp
  10013838: E8 03 D9 FF FF     call        @ILT+315(__RTC_CheckEsp)
  1001383D: 8B F4              mov         esi,esp
  1001383F: 8B 85 D4 F5 FF FF  mov         eax,dword ptr [ebp-0A2Ch]
  10013845: 8B 08              mov         ecx,dword ptr [eax]
  10013847: 51                 push        ecx
  10013848: 68 9C 87 01 10     push        offset ??_C@_0BE@PGOLLFMD@Characteristics?3?$CFd?6?$AA@
  1001384D: FF 15 E0 D2 01 10  call        dword ptr [__imp__printf]
  10013853: 83 C4 08           add         esp,8
  10013856: 3B F4              cmp         esi,esp
  10013858: E8 E3 D8 FF FF     call        @ILT+315(__RTC_CheckEsp)
  1001385D: 8B 85 D4 F5 FF FF  mov         eax,dword ptr [ebp-0A2Ch]
  10013863: 0F B7 48 08        movzx       ecx,word ptr [eax+8]
  10013867: 8B F4              mov         esi,esp
  10013869: 51                 push        ecx
  1001386A: 68 84 87 01 10     push        offset ??_C@_0BC@MGAFGMHE@Major?5Version?3?$CFd?6?$AA@
  1001386F: FF 15 E0 D2 01 10  call        dword ptr [__imp__printf]
  10013875: 83 C4 08           add         esp,8
  10013878: 3B F4              cmp         esi,esp
  1001387A: E8 C1 D8 FF FF     call        @ILT+315(__RTC_CheckEsp)
  1001387F: 8B 85 D4 F5 FF FF  mov         eax,dword ptr [ebp-0A2Ch]
  10013885: 0F B7 48 0A        movzx       ecx,word ptr [eax+0Ah]
  10013889: 8B F4              mov         esi,esp
  1001388B: 51                 push        ecx
  1001388C: 68 6C 87 01 10     push        offset ??_C@_0BC@PECEGPGN@Minor?5Version?3?$CFd?6?$AA@
  10013891: FF 15 E0 D2 01 10  call        dword ptr [__imp__printf]
  10013897: 83 C4 08           add         esp,8
  1001389A: 3B F4              cmp         esi,esp
  1001389C: E8 9F D8 FF FF     call        @ILT+315(__RTC_CheckEsp)
  100138A1: 8B F4              mov         esi,esp
  100138A3: 8B 85 D4 F5 FF FF  mov         eax,dword ptr [ebp-0A2Ch]
  100138A9: 8B 48 04           mov         ecx,dword ptr [eax+4]
  100138AC: 51                 push        ecx
  100138AD: 68 54 87 01 10     push        offset ??_C@_0BD@CJCLACPN@TimeDateStamp?3?$CFd?6?6?$AA@
  100138B2: FF 15 E0 D2 01 10  call        dword ptr [__imp__printf]
  100138B8: 83 C4 08           add         esp,8
  100138BB: 3B F4              cmp         esi,esp
  100138BD: E8 7E D8 FF FF     call        @ILT+315(__RTC_CheckEsp)
  100138C2: 8B 85 D4 F5 FF FF  mov         eax,dword ptr [ebp-0A2Ch]
  100138C8: 8B 48 10           mov         ecx,dword ptr [eax+10h]
  100138CB: 89 8D B8 F6 FF FF  mov         dword ptr [ebp-948h],ecx
  100138D1: 8B 85 D4 F5 FF FF  mov         eax,dword ptr [ebp-0A2Ch]
  100138D7: 8B 48 1C           mov         ecx,dword ptr [eax+1Ch]
  100138DA: 51                 push        ecx
  100138DB: 8B 95 34 F6 FF FF  mov         edx,dword ptr [ebp-9CCh]
  100138E1: 52                 push        edx
  100138E2: E8 6D D8 FF FF     call        @ILT+335(?RVAToOffset@@YAKPAXK@Z)
  100138E7: 83 C4 08           add         esp,8
  100138EA: 89 85 AC F6 FF FF  mov         dword ptr [ebp-954h],eax
  100138F0: 8B 85 D4 F5 FF FF  mov         eax,dword ptr [ebp-0A2Ch]
  100138F6: 8B 48 20           mov         ecx,dword ptr [eax+20h]
  100138F9: 51                 push        ecx
  100138FA: 8B 95 34 F6 FF FF  mov         edx,dword ptr [ebp-9CCh]
  10013900: 52                 push        edx
  10013901: E8 4E D8 FF FF     call        @ILT+335(?RVAToOffset@@YAKPAXK@Z)
  10013906: 83 C4 08           add         esp,8
  10013909: 89 85 A0 F6 FF FF  mov         dword ptr [ebp-960h],eax
  1001390F: 8B 85 D4 F5 FF FF  mov         eax,dword ptr [ebp-0A2Ch]
  10013915: 8B 48 24           mov         ecx,dword ptr [eax+24h]
  10013918: 51                 push        ecx
  10013919: 8B 95 34 F6 FF FF  mov         edx,dword ptr [ebp-9CCh]
  1001391F: 52                 push        edx
  10013920: E8 2F D8 FF FF     call        @ILT+335(?RVAToOffset@@YAKPAXK@Z)
  10013925: 83 C4 08           add         esp,8
  10013928: 89 85 94 F6 FF FF  mov         dword ptr [ebp-96Ch],eax
  1001392E: 8B 85 34 F6 FF FF  mov         eax,dword ptr [ebp-9CCh]
  10013934: 03 85 A0 F6 FF FF  add         eax,dword ptr [ebp-960h]
  1001393A: 89 85 7C F6 FF FF  mov         dword ptr [ebp-984h],eax
  10013940: 8B 85 34 F6 FF FF  mov         eax,dword ptr [ebp-9CCh]
  10013946: 03 85 AC F6 FF FF  add         eax,dword ptr [ebp-954h]
  1001394C: 89 85 70 F6 FF FF  mov         dword ptr [ebp-990h],eax
  10013952: 8B 85 34 F6 FF FF  mov         eax,dword ptr [ebp-9CCh]
  10013958: 03 85 94 F6 FF FF  add         eax,dword ptr [ebp-96Ch]
  1001395E: 89 85 64 F6 FF FF  mov         dword ptr [ebp-99Ch],eax
  10013964: 8B 85 64 F6 FF FF  mov         eax,dword ptr [ebp-99Ch]
  1001396A: 89 85 58 F6 FF FF  mov         dword ptr [ebp-9A8h],eax
  10013970: C7 45 E8 00 00 00  mov         dword ptr [ebp-18h],0
            00
  10013977: EB 09              jmp         10013982
  10013979: 8B 45 E8           mov         eax,dword ptr [ebp-18h]
  1001397C: 83 C0 01           add         eax,1
  1001397F: 89 45 E8           mov         dword ptr [ebp-18h],eax
  10013982: 8B 85 D4 F5 FF FF  mov         eax,dword ptr [ebp-0A2Ch]
  10013988: 8B 4D E8           mov         ecx,dword ptr [ebp-18h]
  1001398B: 3B 48 18           cmp         ecx,dword ptr [eax+18h]
  1001398E: 73 67              jae         100139F7
  10013990: 8B 45 E8           mov         eax,dword ptr [ebp-18h]
  10013993: 8B 8D 7C F6 FF FF  mov         ecx,dword ptr [ebp-984h]
  10013999: 8B 14 81           mov         edx,dword ptr [ecx+eax*4]
  1001399C: 52                 push        edx
  1001399D: 8B 85 34 F6 FF FF  mov         eax,dword ptr [ebp-9CCh]
  100139A3: 50                 push        eax
  100139A4: E8 AB D7 FF FF     call        @ILT+335(?RVAToOffset@@YAKPAXK@Z)
  100139A9: 83 C4 08           add         esp,8
  100139AC: 03 85 34 F6 FF FF  add         eax,dword ptr [ebp-9CCh]
  100139B2: 8B F4              mov         esi,esp
  100139B4: 50                 push        eax
  100139B5: 8B 4D E8           mov         ecx,dword ptr [ebp-18h]
  100139B8: 8B 95 58 F6 FF FF  mov         edx,dword ptr [ebp-9A8h]
  100139BE: 0F B7 04 4A        movzx       eax,word ptr [edx+ecx*2]
  100139C2: 8B 8D 70 F6 FF FF  mov         ecx,dword ptr [ebp-990h]
  100139C8: 8B 14 81           mov         edx,dword ptr [ecx+eax*4]
  100139CB: 52                 push        edx
  100139CC: 8B 45 E8           mov         eax,dword ptr [ebp-18h]
  100139CF: 8B 8D 58 F6 FF FF  mov         ecx,dword ptr [ebp-9A8h]
  100139D5: 0F B7 14 41        movzx       edx,word ptr [ecx+eax*2]
  100139D9: 03 95 B8 F6 FF FF  add         edx,dword ptr [ebp-948h]
  100139DF: 52                 push        edx
  100139E0: 68 08 87 01 10     push        offset ??_C@_0DN@NIBHFCGO@Ordinal?5Number?3?$CFd?0?7RVA?5of?5the?5Fu@
  100139E5: FF 15 E0 D2 01 10  call        dword ptr [__imp__printf]
  100139EB: 83 C4 10           add         esp,10h
  100139EE: 3B F4              cmp         esi,esp
  100139F0: E8 4B D7 FF FF     call        @ILT+315(__RTC_CheckEsp)
  100139F5: EB 82              jmp         10013979
  100139F7: 8B F4              mov         esi,esp
  100139F9: 68 34 88 01 10     push        offset ??_C@_02PHMGELLB@?6?6?$AA@
  100139FE: FF 15 E0 D2 01 10  call        dword ptr [__imp__printf]
  10013A04: 83 C4 04           add         esp,4
  10013A07: 3B F4              cmp         esi,esp
  10013A09: E8 32 D7 FF FF     call        @ILT+315(__RTC_CheckEsp)
  10013A0E: 8B 85 1C F6 FF FF  mov         eax,dword ptr [ebp-9E4h]
  10013A14: 83 B8 84 00 00 00  cmp         dword ptr [eax+84h],0
            00
  10013A1B: 0F 84 A9 01 00 00  je          10013BCA
  10013A21: 8B F4              mov         esi,esp
  10013A23: 68 E8 86 01 10     push        offset ??_C@_0BL@KAFDPNMG@?6Import?5Function?5Details?6?6?$AA@
  10013A28: FF 15 E0 D2 01 10  call        dword ptr [__imp__printf]
  10013A2E: 83 C4 04           add         esp,4
  10013A31: 3B F4              cmp         esi,esp
  10013A33: E8 08 D7 FF FF     call        @ILT+315(__RTC_CheckEsp)
  10013A38: 8B 85 1C F6 FF FF  mov         eax,dword ptr [ebp-9E4h]
  10013A3E: 8B 88 80 00 00 00  mov         ecx,dword ptr [eax+80h]
  10013A44: 51                 push        ecx
  10013A45: 8B 95 34 F6 FF FF  mov         edx,dword ptr [ebp-9CCh]
  10013A4B: 52                 push        edx
  10013A4C: E8 03 D7 FF FF     call        @ILT+335(?RVAToOffset@@YAKPAXK@Z)
  10013A51: 83 C4 08           add         esp,8
  10013A54: 89 85 E8 F6 FF FF  mov         dword ptr [ebp-918h],eax
  10013A5A: 8B 85 34 F6 FF FF  mov         eax,dword ptr [ebp-9CCh]
  10013A60: 03 85 E8 F6 FF FF  add         eax,dword ptr [ebp-918h]
  10013A66: 89 85 F8 F5 FF FF  mov         dword ptr [ebp-0A08h],eax
  10013A6C: 8B 85 F8 F5 FF FF  mov         eax,dword ptr [ebp-0A08h]
  10013A72: 83 78 0C 00        cmp         dword ptr [eax+0Ch],0
  10013A76: 0F 84 4E 01 00 00  je          10013BCA
  10013A7C: 8B 85 F8 F5 FF FF  mov         eax,dword ptr [ebp-0A08h]
  10013A82: 8B 48 0C           mov         ecx,dword ptr [eax+0Ch]
  10013A85: 51                 push        ecx
  10013A86: 8B 95 34 F6 FF FF  mov         edx,dword ptr [ebp-9CCh]
  10013A8C: 52                 push        edx
  10013A8D: E8 C2 D6 FF FF     call        @ILT+335(?RVAToOffset@@YAKPAXK@Z)
  10013A92: 83 C4 08           add         esp,8
  10013A95: 03 85 34 F6 FF FF  add         eax,dword ptr [ebp-9CCh]
  10013A9B: 89 85 D0 F6 FF FF  mov         dword ptr [ebp-930h],eax
  10013AA1: 8B F4              mov         esi,esp
  10013AA3: 8B 85 F8 F5 FF FF  mov         eax,dword ptr [ebp-0A08h]
  10013AA9: 8B 48 08           mov         ecx,dword ptr [eax+8]
  10013AAC: 51                 push        ecx
  10013AAD: 8B 95 F8 F5 FF FF  mov         edx,dword ptr [ebp-0A08h]
  10013AB3: 8B 42 04           mov         eax,dword ptr [edx+4]
  10013AB6: 50                 push        eax
  10013AB7: 8B 8D F8 F5 FF FF  mov         ecx,dword ptr [ebp-0A08h]
  10013ABD: 8B 51 0C           mov         edx,dword ptr [ecx+0Ch]
  10013AC0: 52                 push        edx
  10013AC1: 8B 85 D0 F6 FF FF  mov         eax,dword ptr [ebp-930h]
  10013AC7: 50                 push        eax
  10013AC8: 68 70 86 01 10     push        offset ??_C@_0GE@OANNKJCD@Following?5Functions?5imported?5fro@
  10013ACD: FF 15 E0 D2 01 10  call        dword ptr [__imp__printf]
  10013AD3: 83 C4 14           add         esp,14h
  10013AD6: 3B F4              cmp         esi,esp
  10013AD8: E8 63 D6 FF FF     call        @ILT+315(__RTC_CheckEsp)
  10013ADD: 8B 85 F8 F5 FF FF  mov         eax,dword ptr [ebp-0A08h]
  10013AE3: 83 38 00           cmp         dword ptr [eax],0
  10013AE6: 0F 84 CA 00 00 00  je          10013BB6
  10013AEC: 8B 85 F8 F5 FF FF  mov         eax,dword ptr [ebp-0A08h]
  10013AF2: 8B 08              mov         ecx,dword ptr [eax]
  10013AF4: 51                 push        ecx
  10013AF5: 8B 95 34 F6 FF FF  mov         edx,dword ptr [ebp-9CCh]
  10013AFB: 52                 push        edx
  10013AFC: E8 53 D6 FF FF     call        @ILT+335(?RVAToOffset@@YAKPAXK@Z)
  10013B01: 83 C4 08           add         esp,8
  10013B04: 03 85 34 F6 FF FF  add         eax,dword ptr [ebp-9CCh]
  10013B0A: 89 85 EC F5 FF FF  mov         dword ptr [ebp-0A14h],eax
  10013B10: 8B 85 EC F5 FF FF  mov         eax,dword ptr [ebp-0A14h]
  10013B16: 83 38 00           cmp         dword ptr [eax],0
  10013B19: 0F 84 97 00 00 00  je          10013BB6
  10013B1F: 8B 85 EC F5 FF FF  mov         eax,dword ptr [ebp-0A14h]
  10013B25: 8B 08              mov         ecx,dword ptr [eax]
  10013B27: 81 E1 00 00 00 80  and         ecx,80000000h
  10013B2D: 81 F9 00 00 00 80  cmp         ecx,80000000h
  10013B33: 75 28              jne         10013B5D
  10013B35: 8B 85 EC F5 FF FF  mov         eax,dword ptr [ebp-0A14h]
  10013B3B: 8B 08              mov         ecx,dword ptr [eax]
  10013B3D: 81 E1 FF FF FF 7F  and         ecx,7FFFFFFFh
  10013B43: 8B F4              mov         esi,esp
  10013B45: 51                 push        ecx
  10013B46: 68 54 86 01 10     push        offset ??_C@_0BD@CIDNJAED@?7OrdinalNumber?$DN?$CFd?6?$AA@
  10013B4B: FF 15 E0 D2 01 10  call        dword ptr [__imp__printf]
  10013B51: 83 C4 08           add         esp,8
  10013B54: 3B F4              cmp         esi,esp
  10013B56: E8 E5 D5 FF FF     call        @ILT+315(__RTC_CheckEsp)
  10013B5B: EB 45              jmp         10013BA2
  10013B5D: 8B 85 EC F5 FF FF  mov         eax,dword ptr [ebp-0A14h]
  10013B63: 8B 08              mov         ecx,dword ptr [eax]
  10013B65: 51                 push        ecx
  10013B66: 8B 95 34 F6 FF FF  mov         edx,dword ptr [ebp-9CCh]
  10013B6C: 52                 push        edx
  10013B6D: E8 E2 D5 FF FF     call        @ILT+335(?RVAToOffset@@YAKPAXK@Z)
  10013B72: 83 C4 08           add         esp,8
  10013B75: 03 85 34 F6 FF FF  add         eax,dword ptr [ebp-9CCh]
  10013B7B: 89 85 E0 F5 FF FF  mov         dword ptr [ebp-0A20h],eax
  10013B81: 8B 85 E0 F5 FF FF  mov         eax,dword ptr [ebp-0A20h]
  10013B87: 83 C0 02           add         eax,2
  10013B8A: 8B F4              mov         esi,esp
  10013B8C: 50                 push        eax
  10013B8D: 68 4C 86 01 10     push        offset ??_C@_04PHJALBM@?7?$CFs?6?$AA@
  10013B92: FF 15 E0 D2 01 10  call        dword ptr [__imp__printf]
  10013B98: 83 C4 08           add         esp,8
  10013B9B: 3B F4              cmp         esi,esp
  10013B9D: E8 9E D5 FF FF     call        @ILT+315(__RTC_CheckEsp)
  10013BA2: 8B 85 EC F5 FF FF  mov         eax,dword ptr [ebp-0A14h]
  10013BA8: 83 C0 04           add         eax,4
  10013BAB: 89 85 EC F5 FF FF  mov         dword ptr [ebp-0A14h],eax
  10013BB1: E9 5A FF FF FF     jmp         10013B10
  10013BB6: 8B 85 F8 F5 FF FF  mov         eax,dword ptr [ebp-0A08h]
  10013BBC: 83 C0 14           add         eax,14h
  10013BBF: 89 85 F8 F5 FF FF  mov         dword ptr [ebp-0A08h],eax
  10013BC5: E9 A2 FE FF FF     jmp         10013A6C
  10013BCA: 8B F4              mov         esi,esp
  10013BCC: 68 E8 A5 01 10     push        offset ??_C@_0LH@CNPAJHFC@?6?$CK?$CK?$CK?$CK?$CK?$CK?$CK?$CK?$CK?$CK?$CK?$CK?$CK?$CK?$CK?$CK?$CK?$CK?$CK?$CK?$CK?$CK?$CK?$CK?$CK?$CK?$CK?$CK?$CK?$CK?$CK@
  10013BD1: FF 15 E0 D2 01 10  call        dword ptr [__imp__printf]
  10013BD7: 83 C4 04           add         esp,4
  10013BDA: 3B F4              cmp         esi,esp
  10013BDC: E8 5F D5 FF FF     call        @ILT+315(__RTC_CheckEsp)
  10013BE1: 8B F4              mov         esi,esp
  10013BE3: 68 70 85 01 10     push        offset ??_C@_0LH@CNDGMGJM@?6?$CK?$CK?$CK?$CK?$CK?$CK?$CK?$CK?$CK?$CK?$CK?$CK?$CK?$CK?$CK?$CK?$CK?$CK?$CK?$CK?$CK?$CK?$CK?$CK?$CK?$CK?$CK?$CK?$CK?$CK?$CK@
  10013BE8: FF 15 E0 D2 01 10  call        dword ptr [__imp__printf]
  10013BEE: 83 C4 04           add         esp,4
  10013BF1: 3B F4              cmp         esi,esp
  10013BF3: E8 48 D5 FF FF     call        @ILT+315(__RTC_CheckEsp)
  10013BF8: 8B F4              mov         esi,esp
  10013BFA: 68 E8 A5 01 10     push        offset ??_C@_0LH@CNPAJHFC@?6?$CK?$CK?$CK?$CK?$CK?$CK?$CK?$CK?$CK?$CK?$CK?$CK?$CK?$CK?$CK?$CK?$CK?$CK?$CK?$CK?$CK?$CK?$CK?$CK?$CK?$CK?$CK?$CK?$CK?$CK?$CK@
  10013BFF: FF 15 E0 D2 01 10  call        dword ptr [__imp__printf]
  10013C05: 83 C4 04           add         esp,4
  10013C08: 3B F4              cmp         esi,esp
  10013C0A: E8 31 D5 FF FF     call        @ILT+315(__RTC_CheckEsp)
  10013C0F: EB 65              jmp         10013C76
  10013C11: 8B F4              mov         esi,esp
  10013C13: 68 3C 85 01 10     push        offset ??_C@_0CM@FDJBNLOB@Unrecognized?5format?5cannot?5pares@
  10013C18: FF 15 E0 D2 01 10  call        dword ptr [__imp__printf]
  10013C1E: 83 C4 04           add         esp,4
  10013C21: 3B F4              cmp         esi,esp
  10013C23: E8 18 D5 FF FF     call        @ILT+315(__RTC_CheckEsp)
  10013C28: C7 45 F4 FB FF FF  mov         dword ptr [ebp-0Ch],0FFFFFFFBh
            FF
  10013C2F: 8B F4              mov         esi,esp
  10013C31: 8B 85 34 F6 FF FF  mov         eax,dword ptr [ebp-9CCh]
  10013C37: 50                 push        eax
  10013C38: FF 15 C0 D1 01 10  call        dword ptr [__imp__UnmapViewOfFile@4]
  10013C3E: 3B F4              cmp         esi,esp
  10013C40: E8 FB D4 FF FF     call        @ILT+315(__RTC_CheckEsp)
  10013C45: 8B F4              mov         esi,esp
  10013C47: 8B 85 40 F6 FF FF  mov         eax,dword ptr [ebp-9C0h]
  10013C4D: 50                 push        eax
  10013C4E: FF 15 C8 D1 01 10  call        dword ptr [__imp__CloseHandle@4]
  10013C54: 3B F4              cmp         esi,esp
  10013C56: E8 E5 D4 FF FF     call        @ILT+315(__RTC_CheckEsp)
  10013C5B: 8B F4              mov         esi,esp
  10013C5D: 8B 85 4C F6 FF FF  mov         eax,dword ptr [ebp-9B4h]
  10013C63: 50                 push        eax
  10013C64: FF 15 C8 D1 01 10  call        dword ptr [__imp__CloseHandle@4]
  10013C6A: 3B F4              cmp         esi,esp
  10013C6C: E8 CF D4 FF FF     call        @ILT+315(__RTC_CheckEsp)
  10013C71: 8B 45 F4           mov         eax,dword ptr [ebp-0Ch]
  10013C74: EB 45              jmp         10013CBB
  10013C76: 8B F4              mov         esi,esp
  10013C78: 8B 85 34 F6 FF FF  mov         eax,dword ptr [ebp-9CCh]
  10013C7E: 50                 push        eax
  10013C7F: FF 15 C0 D1 01 10  call        dword ptr [__imp__UnmapViewOfFile@4]
  10013C85: 3B F4              cmp         esi,esp
  10013C87: E8 B4 D4 FF FF     call        @ILT+315(__RTC_CheckEsp)
  10013C8C: 8B F4              mov         esi,esp
  10013C8E: 8B 85 40 F6 FF FF  mov         eax,dword ptr [ebp-9C0h]
  10013C94: 50                 push        eax
  10013C95: FF 15 C8 D1 01 10  call        dword ptr [__imp__CloseHandle@4]
  10013C9B: 3B F4              cmp         esi,esp
  10013C9D: E8 9E D4 FF FF     call        @ILT+315(__RTC_CheckEsp)
  10013CA2: 8B F4              mov         esi,esp
  10013CA4: 8B 85 4C F6 FF FF  mov         eax,dword ptr [ebp-9B4h]
  10013CAA: 50                 push        eax
  10013CAB: FF 15 C8 D1 01 10  call        dword ptr [__imp__CloseHandle@4]
  10013CB1: 3B F4              cmp         esi,esp
  10013CB3: E8 88 D4 FF FF     call        @ILT+315(__RTC_CheckEsp)
  10013CB8: 8B 45 F4           mov         eax,dword ptr [ebp-0Ch]
  10013CBB: 52                 push        edx
  10013CBC: 8B CD              mov         ecx,ebp
  10013CBE: 50                 push        eax
  10013CBF: 8D 15 EC 3C 01 10  lea         edx,ds:[10013CECh]
  10013CC5: E8 CC D3 FF FF     call        @ILT+145(@_RTC_CheckStackVars@8)
  10013CCA: 58                 pop         eax
  10013CCB: 5A                 pop         edx
  10013CCC: 5F                 pop         edi
  10013CCD: 5E                 pop         esi
  10013CCE: 5B                 pop         ebx
  10013CCF: 8B 4D FC           mov         ecx,dword ptr [ebp-4]
  10013CD2: 33 CD              xor         ecx,ebp
  10013CD4: E8 3B D3 FF FF     call        @ILT+15(@__security_check_cookie@4)
  10013CD9: 81 C4 F4 0A 00 00  add         esp,0AF4h
  10013CDF: 3B EC              cmp         ebp,esp
  10013CE1: E8 5A D4 FF FF     call        @ILT+315(__RTC_CheckEsp)
  10013CE6: 8B E5              mov         esp,ebp
  10013CE8: 5D                 pop         ebp
  10013CE9: C3                 ret
  10013CEA: 8B FF              mov         edi,edi
  10013CEC: 04 00              add         al,0
  10013CEE: 00 00              add         byte ptr [eax],al
  10013CF0: F4                 hlt
  10013CF1: 3C 01              cmp         al,1
  10013CF3: 10 BC F7 FF FF 00  adc         byte ptr [edi+esi*8+800FFFFh],bh
            08
  10013CFA: 00 00              add         byte ptr [eax],al
  10013CFC: 52                 push        edx
  10013CFD: 3D 01 10 8C F7     cmp         eax,0F78C1001h
  10013D02: FF
  10013D03: FF 04 00           inc         dword ptr [eax+eax]
  10013D06: 00 00              add         byte ptr [eax],al
  10013D08: 46                 inc         esi
  10013D09: 3D 01 10 3C F7     cmp         eax,0F73C1001h
  10013D0E: FF
  10013D0F: FF 45 00           inc         dword ptr [ebp]
  10013D12: 00 00              add         byte ptr [eax],al
  10013D14: 36 3D 01 10 18 F7  cmp         eax,0F7181001h
  10013D1A: FF
  10013D1B: FF 03              inc         dword ptr [ebx]
  10013D1D: 00 00              add         byte ptr [eax],al
  10013D1F: 00 24 3D 01 10 61  add         byte ptr [edi+72611001h],ah
            72
  10013D26: 63 68 74           arpl        word ptr [eax+74h],bp
  10013D29: 65 6D              ins         dword ptr es:[edi],dx
  10013D2B: 70 42              jo          10013D6F
  10013D2D: 79 74              jns         10013DA3
  10013D2F: 65 41              inc         ecx
  10013D31: 72 72              jb          10013DA5
  10013D33: 61                 popad
  10013D34: 79 00              jns         10013D36
  10013D36: 61                 popad
  10013D37: 72 63              jb          10013D9C
  10013D39: 68 53 65 63 74     push        74636553h
  10013D3E: 69 6F 6E 4C 69 6E  imul        ebp,dword ptr [edi+6Eh],656E694Ch
            65
  10013D45: 00 64 77 42        add         byte ptr [edi+esi*2+42h],ah
  10013D49: 79 74              jns         10013DBF
  10013D4B: 65 73 52           jae         10013DA0
  10013D4E: 65 61              popad
  10013D50: 64 00 73 74        add         byte ptr fs:[ebx+74h],dh
  10013D54: 72 46              jb          10013D9C
  10013D56: 69 6C 65 4E 61 6D  imul        ebp,dword ptr [ebp+4Eh],656D61h
            65 00
  10013D5E: 8B FF              mov         edi,edi
  10013D60: 3A 19              cmp         bl,byte ptr [ecx]
  10013D62: 01 10              add         dword ptr [eax],edx
  10013D64: 56                 push        esi
  10013D65: 19 01              sbb         dword ptr [ecx],eax
  10013D67: 10 72 19           adc         byte ptr [edx+19h],dh
  10013D6A: 01 10              add         dword ptr [eax],edx
  10013D6C: 8E 19              mov         ds,word ptr [ecx]
  10013D6E: 01 10              add         dword ptr [eax],edx
  10013D70: AA                 stos        byte ptr es:[edi]
  10013D71: 19 01              sbb         dword ptr [ecx],eax
  10013D73: 10 C6              adc         dh,al
  10013D75: 19 01              sbb         dword ptr [ecx],eax
  10013D77: 10 E2              adc         dl,ah
  10013D79: 19 01              sbb         dword ptr [ecx],eax
  10013D7B: 10 FE              adc         dh,bh
  10013D7D: 19 01              sbb         dword ptr [ecx],eax
  10013D7F: 10 1A              adc         byte ptr [edx],bl
  10013D81: 1A 01              sbb         al,byte ptr [ecx]
  10013D83: 10 36              adc         byte ptr [esi],dh
  10013D85: 1A 01              sbb         al,byte ptr [ecx]
  10013D87: 10 52 1A           adc         byte ptr [edx+1Ah],dl
  10013D8A: 01 10              add         dword ptr [eax],edx
  10013D8C: 6E                 outs        dx,byte ptr [esi]
  10013D8D: 1A 01              sbb         al,byte ptr [ecx]
  10013D8F: 10 8A 1A 01 10 A6  adc         byte ptr [edx-59EFFEE6h],cl
  10013D95: 1A 01              sbb         al,byte ptr [ecx]
  10013D97: 10 C2              adc         dl,al
  10013D99: 1A 01              sbb         al,byte ptr [ecx]
  10013D9B: 10 DE              adc         dh,bl
  10013D9D: 1A 01              sbb         al,byte ptr [ecx]
  10013D9F: 10 FA              adc         dl,bh
  10013DA1: 1A 01              sbb         al,byte ptr [ecx]
  10013DA3: 10 1F              adc         byte ptr [edi],bl
  10013DA5: 1C 01              sbb         al,1
  10013DA7: 10 00              adc         byte ptr [eax],al
  10013DA9: 11 11              adc         dword ptr [ecx],edx
  10013DAB: 11 11              adc         dword ptr [ecx],edx
  10013DAD: 11 11              adc         dword ptr [ecx],edx
  10013DAF: 11 11              adc         dword ptr [ecx],edx
  10013DB1: 11 11              adc         dword ptr [ecx],edx
  10013DB3: 11 11              adc         dword ptr [ecx],edx
  10013DB5: 11 11              adc         dword ptr [ecx],edx
  10013DB7: 11 11              adc         dword ptr [ecx],edx
  10013DB9: 11 11              adc         dword ptr [ecx],edx
  10013DBB: 11 11              adc         dword ptr [ecx],edx
  10013DBD: 11 01              adc         dword ptr [ecx],eax
  10013DBF: 11 11              adc         dword ptr [ecx],edx
  10013DC1: 11 02              adc         dword ptr [edx],eax
  10013DC3: 11 03              adc         dword ptr [ebx],eax
  10013DC5: 04 11              add         al,11h
  10013DC7: 11 11              adc         dword ptr [ecx],edx
  10013DC9: 11 11              adc         dword ptr [ecx],edx
  10013DCB: 11 11              adc         dword ptr [ecx],edx
  10013DCD: 11 11              adc         dword ptr [ecx],edx
  10013DCF: 11 11              adc         dword ptr [ecx],edx
  10013DD1: 11 11              adc         dword ptr [ecx],edx
  10013DD3: 11 11              adc         dword ptr [ecx],edx
  10013DD5: 11 11              adc         dword ptr [ecx],edx
  10013DD7: 11 11              adc         dword ptr [ecx],edx
  10013DD9: 11 11              adc         dword ptr [ecx],edx
  10013DDB: 11 11              adc         dword ptr [ecx],edx
  10013DDD: 11 11              adc         dword ptr [ecx],edx
  10013DDF: 11 05 11 11 11 11  adc         dword ptr ds:[11111111h],eax
  10013DE5: 11 11              adc         dword ptr [ecx],edx
  10013DE7: 11 11              adc         dword ptr [ecx],edx
  10013DE9: 11 11              adc         dword ptr [ecx],edx
  10013DEB: 11 11              adc         dword ptr [ecx],edx
  10013DED: 11 11              adc         dword ptr [ecx],edx
  10013DEF: 11 11              adc         dword ptr [ecx],edx
  10013DF1: 11 11              adc         dword ptr [ecx],edx
  10013DF3: 11 11              adc         dword ptr [ecx],edx
  10013DF5: 11 11              adc         dword ptr [ecx],edx
  10013DF7: 11 11              adc         dword ptr [ecx],edx
  10013DF9: 11 11              adc         dword ptr [ecx],edx
  10013DFB: 11 11              adc         dword ptr [ecx],edx
  10013DFD: 11 06              adc         dword ptr [esi],eax
  10013DFF: 07                 pop         es
  10013E00: 08 11              or          byte ptr [ecx],dl
  10013E02: 09 11              or          dword ptr [ecx],edx
  10013E04: 0A 11              or          dl,byte ptr [ecx]
  10013E06: 11 11              adc         dword ptr [ecx],edx
  10013E08: 11 11              adc         dword ptr [ecx],edx
  10013E0A: 11 11              adc         dword ptr [ecx],edx
  10013E0C: 11 11              adc         dword ptr [ecx],edx
  10013E0E: 11 11              adc         dword ptr [ecx],edx
  10013E10: 11 11              adc         dword ptr [ecx],edx
  10013E12: 11 11              adc         dword ptr [ecx],edx
  10013E14: 11 11              adc         dword ptr [ecx],edx
  10013E16: 11 11              adc         dword ptr [ecx],edx
  10013E18: 11 11              adc         dword ptr [ecx],edx
  10013E1A: 11 11              adc         dword ptr [ecx],edx
  10013E1C: 0B 11              or          edx,dword ptr [ecx]
  10013E1E: 0C 11              or          al,11h
  10013E20: 11 11              adc         dword ptr [ecx],edx
  10013E22: 11 11              adc         dword ptr [ecx],edx
  10013E24: 11 11              adc         dword ptr [ecx],edx
  10013E26: 11 11              adc         dword ptr [ecx],edx
  10013E28: 11 11              adc         dword ptr [ecx],edx
  10013E2A: 11 11              adc         dword ptr [ecx],edx
  10013E2C: 11 11              adc         dword ptr [ecx],edx
  10013E2E: 11 0D 11 11 11 11  adc         dword ptr ds:[11111111h],ecx
  10013E34: 11 11              adc         dword ptr [ecx],edx
  10013E36: 11 11              adc         dword ptr [ecx],edx
  10013E38: 11 11              adc         dword ptr [ecx],edx
  10013E3A: 11 11              adc         dword ptr [ecx],edx
  10013E3C: 11 11              adc         dword ptr [ecx],edx
  10013E3E: 11 11              adc         dword ptr [ecx],edx
  10013E40: 11 11              adc         dword ptr [ecx],edx
  10013E42: 11 11              adc         dword ptr [ecx],edx
  10013E44: 11 11              adc         dword ptr [ecx],edx
  10013E46: 11 11              adc         dword ptr [ecx],edx
  10013E48: 11 11              adc         dword ptr [ecx],edx
  10013E4A: 11 11              adc         dword ptr [ecx],edx
  10013E4C: 0E                 push        cs
  10013E4D: 0F 11 11           movups      xmmword ptr [ecx],xmm2
  10013E50: 11 11              adc         dword ptr [ecx],edx
  10013E52: 11 11              adc         dword ptr [ecx],edx
  10013E54: 11 11              adc         dword ptr [ecx],edx
  10013E56: 11 11              adc         dword ptr [ecx],edx
  10013E58: 11 11              adc         dword ptr [ecx],edx
  10013E5A: 11 11              adc         dword ptr [ecx],edx
  10013E5C: 10 8D 49 00 7D 21  adc         byte ptr [ebp+217D0049h],cl
  10013E62: 01 10              add         dword ptr [eax],edx
  10013E64: 99                 cdq
  10013E65: 21 01              and         dword ptr [ecx],eax
  10013E67: 10 B5 21 01 10 BE  adc         byte ptr [ebp-41EFFEDFh],dh
  10013E6D: 22 01              and         al,byte ptr [ecx]
  10013E6F: 10 D1              adc         cl,dl
  10013E71: 21 01              and         dword ptr [ecx],eax
  10013E73: 10 BE 22 01 10 ED  adc         byte ptr [esi-12EFFEDEh],bh
  10013E79: 21 01              and         dword ptr [ecx],eax
  10013E7B: 10 BE 22 01 10 09  adc         byte ptr [esi+9100122h],bh
  10013E81: 22 01              and         al,byte ptr [ecx]
  10013E83: 10 25 22 01 10 41  adc         byte ptr ds:[41100122h],ah
  10013E89: 22 01              and         al,byte ptr [ecx]
  10013E8B: 10 5A 22           adc         byte ptr [edx+22h],bl
  10013E8E: 01 10              add         dword ptr [eax],edx
  10013E90: 73 22              jae         10013EB4
  10013E92: 01 10              add         dword ptr [eax],edx
  10013E94: 8C 22              mov         word ptr [edx],fs
  10013E96: 01 10              add         dword ptr [eax],edx
  10013E98: BE 22 01 10 A5     mov         esi,0A5100122h
  10013E9D: 22 01              and         al,byte ptr [ecx]
  10013E9F: 10 00              adc         byte ptr [eax],al
  10013EA1: 31 01              xor         dword ptr [ecx],eax
  10013EA3: 10 13              adc         byte ptr [ebx],dl
  10013EA5: 31 01              xor         dword ptr [ecx],eax
  10013EA7: 10 26              adc         byte ptr [esi],ah
  10013EA9: 31 01              xor         dword ptr [ecx],eax
  10013EAB: 10 39              adc         byte ptr [ecx],bh
  10013EAD: 31 01              xor         dword ptr [ecx],eax
  10013EAF: 10 4C 31 01        adc         byte ptr [ecx+esi+1],cl
  10013EB3: 10 5F 31           adc         byte ptr [edi+31h],bl
  10013EB6: 01 10              add         dword ptr [eax],edx
  10013EB8: 72 31              jb          10013EEB
  10013EBA: 01 10              add         dword ptr [eax],edx
  10013EBC: 85 31              test        dword ptr [ecx],esi
  10013EBE: 01 10              add         dword ptr [eax],edx
  10013EC0: 98                 cwde
  10013EC1: 31 01              xor         dword ptr [ecx],eax
  10013EC3: 10 AB 31 01 10 BE  adc         byte ptr [ebx-41EFFECFh],ch
  10013EC9: 31 01              xor         dword ptr [ecx],eax
  10013ECB: 10 CE              adc         dh,cl
  10013ECD: 31 01              xor         dword ptr [ecx],eax
  10013ECF: 10 DE              adc         dh,bl
  10013ED1: 31 01              xor         dword ptr [ecx],eax
  10013ED3: 10 EE              adc         dh,ch
  10013ED5: 31 01              xor         dword ptr [ecx],eax
  10013ED7: 10 FE              adc         dh,bh
  10013ED9: 31 01              xor         dword ptr [ecx],eax
  10013EDB: 10 0E              adc         byte ptr [esi],cl
  10013EDD: 32 01              xor         al,byte ptr [ecx]
  10013EDF: 10 87 32 01 10 B8  adc         byte ptr [edi-47EFFECEh],al
  10013EE5: 33 01              xor         eax,dword ptr [ecx]
  10013EE7: 10 EA              adc         dl,ch
  10013EE9: 33 01              xor         eax,dword ptr [ecx]
  10013EEB: 10 1C 34           adc         byte ptr [esp+esi],bl
  10013EEE: 01 10              add         dword ptr [eax],edx
  10013EF0: 4E                 dec         esi
  10013EF1: 34 01              xor         al,1
  10013EF3: 10 80 34 01 10 B2  adc         byte ptr [eax-4DEFFECCh],al
  10013EF9: 34 01              xor         al,1
  10013EFB: 10 E4              adc         ah,ah
  10013EFD: 34 01              xor         al,1
  10013EFF: 10 16              adc         byte ptr [esi],dl
  10013F01: 35 01 10 48 35     xor         eax,35481001h
  10013F06: 01 10              add         dword ptr [eax],edx
  10013F08: 7A 35              jp          10013F3F
  10013F0A: 01 10              add         dword ptr [eax],edx
  10013F0C: AC                 lods        byte ptr [esi]
  10013F0D: 35 01 10 DE 35     xor         eax,35DE1001h
  10013F12: 01 10              add         dword ptr [eax],edx
  10013F14: 10 36              adc         byte ptr [esi],dh
  10013F16: 01 10              add         dword ptr [eax],edx
  10013F18: 42                 inc         edx
  10013F19: 36 01 10           add         dword ptr ss:[eax],edx
  10013F1C: 71 36              jno         10013F54
  10013F1E: 01 10              add         dword ptr [eax],edx
  10013F20: CC CC CC CC CC CC CC CC CC CC CC CC CC CC CC CC  лллллллллллллллл
  10013F30: CC CC CC CC CC CC CC CC CC CC CC CC CC CC CC CC  лллллллллллллллл
  10013F40: CC CC CC CC CC CC CC CC CC CC CC CC CC CC CC CC  лллллллллллллллл
  10013F50: CC CC CC CC CC CC CC CC CC CC CC CC CC CC CC CC  лллллллллллллллл
  10013F60: CC CC CC CC CC CC CC CC CC CC CC CC CC CC CC CC  лллллллллллллллл
  10013F70: CC CC CC CC CC CC CC CC CC CC CC CC CC CC CC CC  лллллллллллллллл
  10013F80: CC CC CC CC CC CC CC CC CC CC CC CC CC CC CC CC  лллллллллллллллл
  10013F90: CC CC CC CC CC CC CC CC CC CC CC CC CC CC CC CC  лллллллллллллллл
  10013FA0: CC CC CC CC CC CC CC CC CC CC CC CC CC CC CC CC  лллллллллллллллл
  10013FB0: CC CC CC CC CC CC CC CC CC CC CC CC CC CC CC CC  лллллллллллллллл
  10013FC0: CC CC CC CC CC CC CC CC CC CC CC CC CC CC CC CC  лллллллллллллллл
  10013FD0: CC CC CC CC CC CC CC CC CC CC CC CC CC CC CC CC  лллллллллллллллл
  10013FE0: CC CC CC CC CC CC CC CC CC CC CC CC CC CC CC CC  лллллллллллллллл
  10013FF0: CC CC CC CC CC CC CC CC CC CC CC CC CC CC CC CC  лллллллллллллллл
  10014000: CC CC CC CC CC CC CC CC CC CC CC CC CC CC CC CC  лллллллллллллллл
  10014010: CC CC CC CC CC CC CC CC CC CC CC CC CC CC CC CC  лллллллллллллллл
  10014020: CC CC CC CC CC CC CC CC CC CC CC CC CC CC CC CC  лллллллллллллллл
  10014030: CC CC CC CC CC CC CC CC CC CC CC CC CC CC CC CC  лллллллллллллллл
  10014040: CC CC CC CC CC CC CC CC CC CC CC CC CC CC CC CC  лллллллллллллллл
  10014050: CC CC CC CC CC CC CC CC CC CC CC CC CC CC CC CC  лллллллллллллллл
  10014060: CC CC CC CC CC CC CC CC CC CC CC CC CC CC CC CC  лллллллллллллллл
  10014070: CC CC CC CC CC CC CC CC CC CC CC CC CC CC CC CC  лллллллллллллллл
  10014080: CC CC CC CC CC CC CC CC CC CC CC CC CC CC CC CC  лллллллллллллллл
  10014090: CC CC CC CC CC CC CC CC CC CC CC CC CC CC CC CC  лллллллллллллллл
  100140A0: CC CC CC CC CC CC CC CC CC CC CC CC CC CC CC CC  лллллллллллллллл
  100140B0: CC CC CC CC CC CC CC CC CC CC CC CC CC CC CC CC  лллллллллллллллл
  100140C0: CC CC CC CC CC CC CC CC CC CC CC CC CC CC CC CC  лллллллллллллллл
  100140D0: CC CC CC CC CC CC CC CC CC CC CC CC CC CC CC CC  лллллллллллллллл
  100140E0: CC CC CC CC CC CC CC CC CC CC CC CC CC CC CC CC  лллллллллллллллл
  100140F0: CC CC CC CC CC CC CC CC CC CC CC CC CC CC CC CC  лллллллллллллллл
  10014100: CC CC CC CC CC CC CC CC CC CC CC CC CC CC CC CC  лллллллллллллллл
  10014110: CC CC CC CC CC CC CC CC CC CC CC CC CC CC CC CC  лллллллллллллллл
  10014120: CC CC CC CC CC CC CC CC CC CC CC CC CC CC CC CC  лллллллллллллллл
  10014130: CC CC CC CC CC CC CC CC CC CC CC CC CC CC CC CC  лллллллллллллллл
  10014140: CC CC CC CC CC CC CC CC CC CC CC CC CC CC CC CC  лллллллллллллллл
  10014150: CC CC CC CC CC CC CC CC CC CC CC CC CC CC CC CC  лллллллллллллллл
  10014160: CC CC CC CC CC CC CC CC CC CC CC CC CC CC CC CC  лллллллллллллллл
  10014170: CC CC CC CC CC CC CC CC CC CC CC CC CC CC CC CC  лллллллллллллллл
  10014180: CC CC CC CC CC CC CC CC CC CC CC CC CC CC CC CC  лллллллллллллллл
  10014190: CC CC CC CC CC CC CC CC CC CC CC CC CC CC CC CC  лллллллллллллллл
  100141A0: CC CC CC CC CC CC CC CC CC CC CC CC CC CC CC CC  лллллллллллллллл
  100141B0: CC CC CC CC CC CC CC CC CC CC CC CC CC CC CC CC  лллллллллллллллл
  100141C0: CC CC CC CC CC CC CC CC CC CC CC CC CC CC CC CC  лллллллллллллллл
  100141D0: CC CC CC CC CC CC CC CC CC CC CC CC CC CC CC CC  лллллллллллллллл
  100141E0: CC CC CC CC CC CC CC CC CC CC CC CC CC CC CC CC  лллллллллллллллл
  100141F0: CC CC CC CC CC CC CC CC CC CC CC CC CC CC CC CC  лллллллллллллллл
  10014200: CC CC CC CC CC CC CC CC CC CC CC CC CC CC CC CC  лллллллллллллллл
  10014210: CC CC CC CC CC CC CC CC CC CC CC CC CC CC CC CC  лллллллллллллллл
  10014220: CC CC CC CC CC CC CC CC CC CC CC CC CC CC CC CC  лллллллллллллллл
  10014230: CC CC CC CC CC CC CC CC CC CC CC CC CC CC CC CC  лллллллллллллллл
  10014240: CC CC CC CC CC CC CC CC CC CC CC CC CC CC CC CC  лллллллллллллллл
  10014250: CC CC CC CC CC CC CC CC CC CC CC CC CC CC CC CC  лллллллллллллллл
  10014260: CC CC CC CC CC CC CC CC CC CC CC CC CC CC CC CC  лллллллллллллллл
  10014270: CC CC CC CC CC CC CC CC CC CC CC CC CC CC CC CC  лллллллллллллллл
  10014280: CC CC CC CC CC CC CC CC CC CC CC CC CC CC CC CC  лллллллллллллллл
  10014290: CC CC CC CC CC CC CC CC CC CC CC CC CC CC CC CC  лллллллллллллллл
  100142A0: CC CC CC CC CC CC CC CC CC CC CC CC CC CC CC CC  лллллллллллллллл
  100142B0: CC CC CC CC CC CC CC CC CC CC CC CC CC CC CC CC  лллллллллллллллл
  100142C0: CC CC CC CC CC CC CC CC CC CC CC CC CC CC CC CC  лллллллллллллллл
  100142D0: CC CC CC CC CC CC CC CC CC CC CC CC CC CC CC CC  лллллллллллллллл
  100142E0: CC CC CC CC CC CC CC CC CC CC CC CC CC CC CC CC  лллллллллллллллл
  100142F0: CC CC CC CC CC CC CC CC CC CC CC CC CC CC CC CC  лллллллллллллллл
  10014300: CC CC CC CC CC CC CC CC CC CC CC CC CC CC CC CC  лллллллллллллллл
  10014310: CC CC CC CC CC CC CC CC CC CC CC CC CC CC CC CC  лллллллллллллллл
  10014320: CC CC CC CC CC CC CC CC CC CC CC CC CC CC CC CC  лллллллллллллллл
  10014330: CC CC CC CC CC CC CC CC CC CC CC CC CC CC CC CC  лллллллллллллллл
  10014340: CC CC CC CC CC CC CC CC CC CC CC CC CC CC CC CC  лллллллллллллллл
  10014350: CC CC CC CC CC CC CC CC CC CC CC CC CC CC CC CC  лллллллллллллллл
  10014360: CC CC CC CC CC CC CC CC CC CC CC CC CC CC CC CC  лллллллллллллллл
  10014370: CC CC CC CC CC CC CC CC CC CC CC CC CC CC CC CC  лллллллллллллллл
  10014380: CC CC CC CC CC CC CC CC CC CC CC CC CC CC CC CC  лллллллллллллллл
  10014390: CC CC CC CC CC CC CC CC CC CC CC CC CC CC CC CC  лллллллллллллллл
  100143A0: CC CC CC CC CC CC CC CC CC CC CC CC CC CC CC CC  лллллллллллллллл
  100143B0: CC CC CC CC CC CC CC CC CC CC CC CC CC CC CC CC  лллллллллллллллл
  100143C0: CC CC CC CC CC CC CC CC CC CC CC CC CC CC CC CC  лллллллллллллллл
  100143D0: CC CC CC CC CC CC CC CC CC CC CC CC CC CC CC CC  лллллллллллллллл
  100143E0: CC CC CC CC CC CC CC CC CC CC CC CC CC CC CC CC  лллллллллллллллл
  100143F0: CC CC CC CC CC CC CC CC CC CC CC CC CC CC CC CC  лллллллллллллллл
  10014400: CC CC CC CC CC CC CC CC CC CC CC CC CC CC CC CC  лллллллллллллллл
  10014410: CC CC CC CC CC CC CC CC CC CC CC CC CC CC CC CC  лллллллллллллллл
  10014420: CC CC CC CC CC CC CC CC CC CC CC CC CC CC CC CC  лллллллллллллллл
  10014430: CC CC CC CC CC CC CC CC CC CC CC CC CC CC CC CC  лллллллллллллллл
  10014440: CC CC CC CC CC CC CC CC CC CC CC CC CC CC CC CC  лллллллллллллллл
  10014450: CC CC CC CC CC CC CC CC CC CC CC CC CC CC CC CC  лллллллллллллллл
  10014460: CC CC CC CC CC CC CC CC CC CC CC CC CC CC CC CC  лллллллллллллллл
  10014470: CC CC CC CC CC CC CC CC CC CC CC CC CC CC CC CC  лллллллллллллллл
  10014480: CC CC CC CC CC CC CC CC CC CC CC CC CC CC CC CC  лллллллллллллллл
  10014490: CC CC CC CC CC CC CC CC CC CC CC CC CC CC CC CC  лллллллллллллллл
  100144A0: CC CC CC CC CC CC CC CC CC CC CC CC CC CC CC CC  лллллллллллллллл
  100144B0: CC CC CC CC CC CC CC CC CC CC CC CC CC CC CC CC  лллллллллллллллл
  100144C0: CC CC CC CC CC CC CC CC CC CC CC CC CC CC CC CC  лллллллллллллллл
  100144D0: CC CC CC CC CC CC CC CC CC CC CC CC CC CC CC CC  лллллллллллллллл
  100144E0: CC CC CC CC CC CC CC CC CC CC CC CC CC CC CC CC  лллллллллллллллл
  100144F0: CC CC CC CC CC CC CC CC CC CC CC CC CC CC CC CC  лллллллллллллллл
  10014500: CC CC CC CC CC CC CC CC CC CC CC CC CC CC CC CC  лллллллллллллллл
  10014510: CC CC CC CC CC CC CC CC CC CC CC CC CC CC CC CC  лллллллллллллллл
  10014520: CC CC CC CC CC CC CC CC CC CC CC CC CC CC CC CC  лллллллллллллллл
  10014530: CC CC CC CC CC CC CC CC CC CC CC CC CC CC CC CC  лллллллллллллллл
  10014540: CC CC CC CC CC CC CC CC CC CC CC CC CC CC CC CC  лллллллллллллллл
  10014550: CC CC CC CC CC CC CC CC CC CC CC CC CC CC CC CC  лллллллллллллллл
  10014560: CC CC CC CC CC CC CC CC CC CC CC CC CC CC CC CC  лллллллллллллллл
  10014570: CC CC CC CC CC CC CC CC CC CC CC CC CC CC CC CC  лллллллллллллллл
  10014580: CC CC CC CC CC CC CC CC CC CC CC CC CC CC CC CC  лллллллллллллллл
  10014590: CC CC CC CC CC CC CC CC CC CC CC CC CC CC CC CC  лллллллллллллллл
  100145A0: CC CC CC CC CC CC CC CC CC CC CC CC CC CC CC CC  лллллллллллллллл
  100145B0: CC CC CC CC CC CC CC CC CC CC CC CC CC CC CC CC  лллллллллллллллл
  100145C0: CC CC CC CC CC CC CC CC CC CC CC CC CC CC CC CC  лллллллллллллллл
  100145D0: CC CC CC CC CC CC CC CC CC CC CC CC CC CC CC CC  лллллллллллллллл
  100145E0: CC CC CC CC CC CC CC CC CC CC CC CC CC CC CC CC  лллллллллллллллл
  100145F0: CC CC CC CC CC CC CC CC CC CC CC CC CC CC CC CC  лллллллллллллллл
  10014600: CC CC CC CC CC CC CC CC CC CC CC CC CC CC CC CC  лллллллллллллллл
  10014610: CC CC CC CC CC CC CC CC CC CC CC CC CC CC CC CC  лллллллллллллллл
  10014620: CC CC CC CC CC CC CC CC CC CC CC CC CC CC CC CC  лллллллллллллллл
  10014630: CC CC CC CC CC CC CC CC CC CC CC CC CC CC CC CC  лллллллллллллллл
  10014640: CC CC CC CC CC CC CC CC CC CC CC CC CC CC CC CC  лллллллллллллллл
  10014650: CC CC CC CC CC CC CC CC CC CC CC CC CC CC CC CC  лллллллллллллллл
  10014660: CC CC CC CC CC CC CC CC CC CC CC CC CC CC CC CC  лллллллллллллллл
  10014670: CC CC CC CC CC CC CC CC CC CC CC CC CC CC CC CC  лллллллллллллллл
  10014680: CC CC CC CC CC CC CC CC CC CC CC CC CC CC CC CC  лллллллллллллллл
  10014690: CC CC CC CC CC CC CC CC CC CC CC CC CC CC CC CC  лллллллллллллллл
  100146A0: CC CC CC CC CC CC CC CC CC CC CC CC CC CC CC CC  лллллллллллллллл
  100146B0: CC CC CC CC CC CC CC CC CC CC CC CC CC CC CC CC  лллллллллллллллл
  100146C0: CC CC CC CC CC CC CC CC CC CC CC CC CC CC CC CC  лллллллллллллллл
  100146D0: CC CC CC CC CC CC CC CC CC CC CC CC CC CC CC CC  лллллллллллллллл
  100146E0: CC CC CC CC CC CC CC CC CC CC CC CC CC CC CC CC  лллллллллллллллл
  100146F0: CC CC CC CC CC CC CC CC CC CC CC CC CC CC CC CC  лллллллллллллллл
  10014700: CC CC CC CC CC CC CC CC CC CC CC CC CC CC CC CC  лллллллллллллллл
  10014710: CC CC CC CC CC CC CC CC CC CC CC CC CC CC CC CC  лллллллллллллллл
  10014720: CC CC CC CC CC CC CC CC CC CC CC CC CC CC CC CC  лллллллллллллллл
  10014730: CC CC CC CC CC CC CC CC CC CC CC CC CC CC CC CC  лллллллллллллллл
  10014740: CC CC CC CC CC CC CC CC CC CC CC CC CC CC CC CC  лллллллллллллллл
  10014750: CC CC CC CC CC CC CC CC CC CC CC CC CC CC CC CC  лллллллллллллллл
  10014760: CC CC CC CC CC CC CC CC CC CC CC CC CC CC CC CC  лллллллллллллллл
  10014770: CC CC CC CC CC CC CC CC CC CC CC CC CC CC CC CC  лллллллллллллллл
  10014780: CC CC CC CC CC CC CC CC CC CC CC CC CC CC CC CC  лллллллллллллллл
  10014790: CC CC CC CC CC CC CC CC CC CC CC CC CC CC CC CC  лллллллллллллллл
  100147A0: CC CC CC CC CC CC CC CC CC CC CC CC CC CC CC CC  лллллллллллллллл
  100147B0: CC CC CC CC CC CC CC CC CC CC CC CC CC CC CC CC  лллллллллллллллл
  100147C0: CC CC CC CC CC CC CC CC CC CC CC CC CC CC CC CC  лллллллллллллллл
  100147D0: CC CC CC CC CC CC CC CC CC CC CC CC CC CC CC CC  лллллллллллллллл
  100147E0: CC CC CC CC CC CC CC CC CC CC CC CC CC CC CC CC  лллллллллллллллл
  100147F0: CC CC CC CC CC CC CC CC CC CC CC CC CC CC CC CC  лллллллллллллллл
  10014800: CC CC CC CC CC CC CC CC CC CC CC CC CC CC CC CC  лллллллллллллллл
  10014810: CC CC CC CC CC CC CC CC CC CC CC CC CC CC CC CC  лллллллллллллллл
  10014820: CC CC CC CC CC CC CC CC CC CC CC CC CC CC CC CC  лллллллллллллллл
  10014830: CC CC CC CC CC CC CC CC CC CC CC CC CC CC CC CC  лллллллллллллллл
  10014840: CC CC CC CC CC CC CC CC CC CC CC CC CC CC CC CC  лллллллллллллллл
  10014850: CC CC CC CC CC CC CC CC CC CC CC CC CC CC CC CC  лллллллллллллллл
  10014860: CC CC CC CC CC CC CC CC CC CC CC CC CC CC CC CC  лллллллллллллллл
  10014870: CC CC CC CC CC CC CC CC CC CC CC CC CC CC CC CC  лллллллллллллллл
  10014880: CC CC CC CC CC CC CC CC CC CC CC CC CC CC CC CC  лллллллллллллллл
  10014890: CC CC CC CC CC CC CC CC CC CC CC CC CC CC CC CC  лллллллллллллллл
  100148A0: CC CC CC CC CC CC CC CC CC CC CC CC CC CC CC CC  лллллллллллллллл
  100148B0: CC CC CC CC CC CC CC CC CC CC CC CC CC CC CC CC  лллллллллллллллл
  100148C0: CC CC CC CC CC CC CC CC CC CC CC CC CC CC CC CC  лллллллллллллллл
  100148D0: CC CC CC CC CC CC CC CC CC CC CC CC CC CC CC CC  лллллллллллллллл
  100148E0: CC CC CC CC CC CC CC CC CC CC CC CC CC CC CC CC  лллллллллллллллл
  100148F0: CC CC CC CC CC CC CC CC CC CC CC CC CC CC CC CC  лллллллллллллллл
  10014900: CC CC CC CC CC CC CC CC CC CC CC CC CC CC CC CC  лллллллллллллллл
  10014910: CC CC CC CC CC CC CC CC CC CC CC CC CC CC CC CC  лллллллллллллллл
  10014920: CC CC CC CC CC CC CC CC CC CC CC CC CC CC CC CC  лллллллллллллллл
  10014930: CC CC CC CC CC CC CC CC CC CC CC CC CC CC CC CC  лллллллллллллллл
  10014940: CC CC CC CC CC CC CC CC CC CC CC CC CC CC CC CC  лллллллллллллллл
  10014950: CC CC CC CC CC CC CC CC CC CC CC CC CC CC CC CC  лллллллллллллллл
  10014960: CC CC CC CC CC CC CC CC CC CC CC CC CC CC CC CC  лллллллллллллллл
  10014970: CC CC CC CC CC CC CC CC CC CC CC CC CC CC CC CC  лллллллллллллллл
  10014980: CC CC CC CC CC CC CC CC CC CC CC CC CC CC CC CC  лллллллллллллллл
  10014990: CC CC CC CC CC CC CC CC CC CC CC CC CC CC CC CC  лллллллллллллллл
  100149A0: CC CC CC CC CC CC CC CC CC CC CC CC CC CC CC CC  лллллллллллллллл
  100149B0: CC CC CC CC CC CC CC CC CC CC CC CC CC CC CC CC  лллллллллллллллл
  100149C0: CC CC CC CC CC CC CC CC CC CC CC CC CC CC CC CC  лллллллллллллллл
  100149D0: CC CC CC CC CC CC CC CC CC CC CC CC CC CC CC CC  лллллллллллллллл
  100149E0: CC CC CC CC CC CC CC CC CC CC CC CC CC CC CC CC  лллллллллллллллл
  100149F0: CC CC CC CC CC CC CC CC CC CC CC CC CC CC CC CC  лллллллллллллллл
?RVAToOffset@@YAKPAXK@Z:
  10014A00: 55                 push        ebp
  10014A01: 8B EC              mov         ebp,esp
  10014A03: 81 EC FC 00 00 00  sub         esp,0FCh
  10014A09: 53                 push        ebx
  10014A0A: 56                 push        esi
  10014A0B: 57                 push        edi
  10014A0C: 8D BD 04 FF FF FF  lea         edi,[ebp-0FCh]
  10014A12: B9 3F 00 00 00     mov         ecx,3Fh
  10014A17: B8 CC CC CC CC     mov         eax,0CCCCCCCCh
  10014A1C: F3 AB              rep stos    dword ptr es:[edi]
  10014A1E: C7 45 F8 00 00 00  mov         dword ptr [ebp-8],0
            00
  10014A25: C7 45 EC 00 00 00  mov         dword ptr [ebp-14h],0
            00
  10014A2C: C7 45 E0 00 00 00  mov         dword ptr [ebp-20h],0
            00
  10014A33: C7 45 D4 00 00 00  mov         dword ptr [ebp-2Ch],0
            00
  10014A3A: C7 45 C8 00 00 00  mov         dword ptr [ebp-38h],0
            00
  10014A41: 8B 45 08           mov         eax,dword ptr [ebp+8]
  10014A44: 89 45 C8           mov         dword ptr [ebp-38h],eax
  10014A47: 8B 45 C8           mov         eax,dword ptr [ebp-38h]
  10014A4A: 8B 4D C8           mov         ecx,dword ptr [ebp-38h]
  10014A4D: 03 48 3C           add         ecx,dword ptr [eax+3Ch]
  10014A50: 89 4D D4           mov         dword ptr [ebp-2Ch],ecx
  10014A53: 8B 45 C8           mov         eax,dword ptr [ebp-38h]
  10014A56: 8B 48 3C           mov         ecx,dword ptr [eax+3Ch]
  10014A59: 8B 55 08           mov         edx,dword ptr [ebp+8]
  10014A5C: 8D 84 0A F8 00 00  lea         eax,[edx+ecx+0F8h]
            00
  10014A63: 89 45 E0           mov         dword ptr [ebp-20h],eax
  10014A66: C7 45 EC 00 00 00  mov         dword ptr [ebp-14h],0
            00
  10014A6D: EB 09              jmp         10014A78
  10014A6F: 8B 45 EC           mov         eax,dword ptr [ebp-14h]
  10014A72: 83 C0 01           add         eax,1
  10014A75: 89 45 EC           mov         dword ptr [ebp-14h],eax
  10014A78: 8B 45 D4           mov         eax,dword ptr [ebp-2Ch]
  10014A7B: 0F B7 48 06        movzx       ecx,word ptr [eax+6]
  10014A7F: 39 4D EC           cmp         dword ptr [ebp-14h],ecx
  10014A82: 7D 3B              jge         10014ABF
  10014A84: 8B 45 E0           mov         eax,dword ptr [ebp-20h]
  10014A87: 8B 4D 0C           mov         ecx,dword ptr [ebp+0Ch]
  10014A8A: 3B 48 0C           cmp         ecx,dword ptr [eax+0Ch]
  10014A8D: 72 25              jb          10014AB4
  10014A8F: 8B 45 E0           mov         eax,dword ptr [ebp-20h]
  10014A92: 8B 48 0C           mov         ecx,dword ptr [eax+0Ch]
  10014A95: 8B 55 E0           mov         edx,dword ptr [ebp-20h]
  10014A98: 03 4A 10           add         ecx,dword ptr [edx+10h]
  10014A9B: 39 4D 0C           cmp         dword ptr [ebp+0Ch],ecx
  10014A9E: 73 14              jae         10014AB4
  10014AA0: 8B 45 E0           mov         eax,dword ptr [ebp-20h]
  10014AA3: 8B 4D 0C           mov         ecx,dword ptr [ebp+0Ch]
  10014AA6: 03 48 14           add         ecx,dword ptr [eax+14h]
  10014AA9: 8B 55 E0           mov         edx,dword ptr [ebp-20h]
  10014AAC: 2B 4A 0C           sub         ecx,dword ptr [edx+0Ch]
  10014AAF: 89 4D F8           mov         dword ptr [ebp-8],ecx
  10014AB2: EB 0B              jmp         10014ABF
  10014AB4: 8B 45 E0           mov         eax,dword ptr [ebp-20h]
  10014AB7: 83 C0 28           add         eax,28h
  10014ABA: 89 45 E0           mov         dword ptr [ebp-20h],eax
  10014ABD: EB B0              jmp         10014A6F
  10014ABF: 8B 45 F8           mov         eax,dword ptr [ebp-8]
  10014AC2: 5F                 pop         edi
  10014AC3: 5E                 pop         esi
  10014AC4: 5B                 pop         ebx
  10014AC5: 8B E5              mov         esp,ebp
  10014AC7: 5D                 pop         ebp
  10014AC8: C3                 ret
  10014AC9: CC CC CC CC CC CC CC CC CC CC CC CC CC CC CC CC  лллллллллллллллл
  10014AD9: CC CC CC CC CC CC CC CC CC CC CC CC CC CC CC CC  лллллллллллллллл
  10014AE9: CC CC CC CC CC CC CC CC CC CC CC CC CC CC CC CC  лллллллллллллллл
  10014AF9: CC CC CC                                         ллл
_ReadFile@20:
  10014AFC: FF 25 B8 D1 01 10  jmp         dword ptr [__imp__ReadFile@20]
_SetFilePointer@16:
  10014B02: FF 25 BC D1 01 10  jmp         dword ptr [__imp__SetFilePointer@16]
_UnmapViewOfFile@4:
  10014B08: FF 25 C0 D1 01 10  jmp         dword ptr [__imp__UnmapViewOfFile@4]
_MapViewOfFile@20:
  10014B0E: FF 25 C4 D1 01 10  jmp         dword ptr [__imp__MapViewOfFile@20]
_CloseHandle@4:
  10014B14: FF 25 C8 D1 01 10  jmp         dword ptr [__imp__CloseHandle@4]
_CreateFileMappingW@24:
  10014B1A: FF 25 CC D1 01 10  jmp         dword ptr [__imp__CreateFileMappingW@24]
_CreateFileW@28:
  10014B20: FF 25 D0 D1 01 10  jmp         dword ptr [__imp__CreateFileW@28]
_MultiByteToWideChar@24:
  10014B26: FF 25 D4 D1 01 10  jmp         dword ptr [__imp__MultiByteToWideChar@24]
_free:
  10014B2C: FF 25 EC D2 01 10  jmp         dword ptr [__imp__free]
_sprintf:
  10014B32: FF 25 E8 D2 01 10  jmp         dword ptr [__imp__sprintf]
_malloc:
  10014B38: FF 25 E4 D2 01 10  jmp         dword ptr [__imp__malloc]
_printf:
  10014B3E: FF 25 E0 D2 01 10  jmp         dword ptr [__imp__printf]
_strlen:
  10014B44: FF 25 DC D2 01 10  jmp         dword ptr [__imp__strlen]
_memset:
  10014B4A: FF 25 D8 D2 01 10  jmp         dword ptr [__imp__memset]
@__security_check_cookie@4:
  10014B50: 3B 0D 00 C0 01 10  cmp         ecx,dword ptr [___security_cookie]
  10014B56: 75 02              jne         10014B5A
  10014B58: F3 C3              rep ret
  10014B5A: E9 3C C5 FF FF     jmp         @ILT+150(___report_gsfailure)
  10014B5F: CC CC CC CC CC CC CC CC CC CC CC CC CC CC CC CC  лллллллллллллллл
  10014B6F: CC                                               л
__RTC_CheckEsp:
  10014B70: 75 01              jne         10014B73
  10014B72: C3                 ret
  10014B73: 55                 push        ebp
  10014B74: 8B EC              mov         ebp,esp
  10014B76: 83 EC 00           sub         esp,0
  10014B79: 50                 push        eax
  10014B7A: 52                 push        edx
  10014B7B: 53                 push        ebx
  10014B7C: 56                 push        esi
  10014B7D: 57                 push        edi
  10014B7E: 8B 45 04           mov         eax,dword ptr [ebp+4]
  10014B81: 6A 00              push        0
  10014B83: 50                 push        eax
  10014B84: E8 2A C6 FF FF     call        @ILT+430(?_RTC_Failure@@YAXPAXH@Z)
  10014B89: 83 C4 08           add         esp,8
  10014B8C: 5F                 pop         edi
  10014B8D: 5E                 pop         esi
  10014B8E: 5B                 pop         ebx
  10014B8F: 5A                 pop         edx
  10014B90: 58                 pop         eax
  10014B91: 8B E5              mov         esp,ebp
  10014B93: 5D                 pop         ebp
  10014B94: C3                 ret
  10014B95: CC CC CC CC CC CC CC CC CC CC CC                 ллллллллллл
@_RTC_CheckStackVars@8:
  10014BA0: 8B FF              mov         edi,edi
  10014BA2: 55                 push        ebp
  10014BA3: 8B EC              mov         ebp,esp
  10014BA5: 51                 push        ecx
  10014BA6: 53                 push        ebx
  10014BA7: 56                 push        esi
  10014BA8: 57                 push        edi
  10014BA9: 33 FF              xor         edi,edi
  10014BAB: 8B F2              mov         esi,edx
  10014BAD: 8B D9              mov         ebx,ecx
  10014BAF: 89 7D FC           mov         dword ptr [ebp-4],edi
  10014BB2: 39 3E              cmp         dword ptr [esi],edi
  10014BB4: 7E 48              jle         10014BFE
  10014BB6: EB 08              jmp         10014BC0
  10014BB8: 8D A4 24 00 00 00  lea         esp,[esp]
            00
  10014BBF: 90                 nop
  10014BC0: 8B 46 04           mov         eax,dword ptr [esi+4]
  10014BC3: 8B 0C 38           mov         ecx,dword ptr [eax+edi]
  10014BC6: 81 7C 19 FC CC CC  cmp         dword ptr [ecx+ebx-4],0CCCCCCCCh
            CC CC
  10014BCE: 75 0F              jne         10014BDF
  10014BD0: 8B 54 38 04        mov         edx,dword ptr [eax+edi+4]
  10014BD4: 03 D1              add         edx,ecx
  10014BD6: 81 3C 1A CC CC CC  cmp         dword ptr [edx+ebx],0CCCCCCCCh
            CC
  10014BDD: 74 11              je          10014BF0
  10014BDF: 8B 4C 38 08        mov         ecx,dword ptr [eax+edi+8]
  10014BE3: 8B 55 04           mov         edx,dword ptr [ebp+4]
  10014BE6: 51                 push        ecx
  10014BE7: 52                 push        edx
  10014BE8: E8 E5 C4 FF FF     call        @ILT+205(?_RTC_StackFailure@@YAXPAXPBD@Z)
  10014BED: 83 C4 08           add         esp,8
  10014BF0: 8B 45 FC           mov         eax,dword ptr [ebp-4]
  10014BF3: 40                 inc         eax
  10014BF4: 83 C7 0C           add         edi,0Ch
  10014BF7: 89 45 FC           mov         dword ptr [ebp-4],eax
  10014BFA: 3B 06              cmp         eax,dword ptr [esi]
  10014BFC: 7C C2              jl          10014BC0
  10014BFE: 5F                 pop         edi
  10014BFF: 5E                 pop         esi
  10014C00: 5B                 pop         ebx
  10014C01: 8B E5              mov         esp,ebp
  10014C03: 5D                 pop         ebp
  10014C04: C3                 ret
  10014C05: CC CC CC CC CC CC CC CC CC CC CC CC CC CC CC CC  лллллллллллллллл
  10014C15: CC CC CC CC CC CC CC CC CC CC CC                 ллллллллллл
@_RTC_AllocaHelper@12:
  10014C20: 8B FF              mov         edi,edi
  10014C22: 55                 push        ebp
  10014C23: 8B EC              mov         ebp,esp
  10014C25: 56                 push        esi
  10014C26: 8B F1              mov         esi,ecx
  10014C28: 85 F6              test        esi,esi
  10014C2A: 74 21              je          10014C4D
  10014C2C: 85 D2              test        edx,edx
  10014C2E: 74 1D              je          10014C4D
  10014C30: 53                 push        ebx
  10014C31: 8B 5D 08           mov         ebx,dword ptr [ebp+8]
  10014C34: 85 DB              test        ebx,ebx
  10014C36: 74 14              je          10014C4C
  10014C38: 57                 push        edi
  10014C39: B0 CC              mov         al,0CCh
  10014C3B: 8B FE              mov         edi,esi
  10014C3D: 8B CA              mov         ecx,edx
  10014C3F: F3 AA              rep stos    byte ptr es:[edi]
  10014C41: 8B 03              mov         eax,dword ptr [ebx]
  10014C43: 89 46 04           mov         dword ptr [esi+4],eax
  10014C46: 89 56 0C           mov         dword ptr [esi+0Ch],edx
  10014C49: 89 33              mov         dword ptr [ebx],esi
  10014C4B: 5F                 pop         edi
  10014C4C: 5B                 pop         ebx
  10014C4D: 5E                 pop         esi
  10014C4E: 5D                 pop         ebp
  10014C4F: C2 04 00           ret         4
  10014C52: CC CC CC CC CC CC CC CC CC CC CC CC CC CC        лллллллллллллл
@_RTC_CheckStackVars2@12:
  10014C60: 8B FF              mov         edi,edi
  10014C62: 55                 push        ebp
  10014C63: 8B EC              mov         ebp,esp
  10014C65: 51                 push        ecx
  10014C66: 53                 push        ebx
  10014C67: 56                 push        esi
  10014C68: 57                 push        edi
  10014C69: 8B F2              mov         esi,edx
  10014C6B: 33 FF              xor         edi,edi
  10014C6D: 8B D9              mov         ebx,ecx
  10014C6F: 3B F7              cmp         esi,edi
  10014C71: 74 52              je          10014CC5
  10014C73: 89 7D FC           mov         dword ptr [ebp-4],edi
  10014C76: 39 3E              cmp         dword ptr [esi],edi
  10014C78: 7E 4B              jle         10014CC5
  10014C7A: 8D 9B 00 00 00 00  lea         ebx,[ebx]
  10014C80: 8B 46 04           mov         eax,dword ptr [esi+4]
  10014C83: 8B 0C 38           mov         ecx,dword ptr [eax+edi]
  10014C86: BA CC CC CC CC     mov         edx,0CCCCCCCCh
  10014C8B: 39 54 19 FC        cmp         dword ptr [ecx+ebx-4],edx
  10014C8F: 75 0B              jne         10014C9C
  10014C91: 8B 44 38 04        mov         eax,dword ptr [eax+edi+4]
  10014C95: 03 C1              add         eax,ecx
  10014C97: 39 14 18           cmp         dword ptr [eax+ebx],edx
  10014C9A: 74 19              je          10014CB5
  10014C9C: 8B 4E 04           mov         ecx,dword ptr [esi+4]
  10014C9F: 8B 54 0F 08        mov         edx,dword ptr [edi+ecx+8]
  10014CA3: 8B 45 04           mov         eax,dword ptr [ebp+4]
  10014CA6: 52                 push        edx
  10014CA7: 50                 push        eax
  10014CA8: E8 25 C4 FF FF     call        @ILT+205(?_RTC_StackFailure@@YAXPAXPBD@Z)
  10014CAD: 83 C4 08           add         esp,8
  10014CB0: BA CC CC CC CC     mov         edx,0CCCCCCCCh
  10014CB5: 8B 45 FC           mov         eax,dword ptr [ebp-4]
  10014CB8: 40                 inc         eax
  10014CB9: 83 C7 0C           add         edi,0Ch
  10014CBC: 89 45 FC           mov         dword ptr [ebp-4],eax
  10014CBF: 3B 06              cmp         eax,dword ptr [esi]
  10014CC1: 7C BD              jl          10014C80
  10014CC3: EB 05              jmp         10014CCA
  10014CC5: BA CC CC CC CC     mov         edx,0CCCCCCCCh
  10014CCA: 8B 75 08           mov         esi,dword ptr [ebp+8]
  10014CCD: 33 FF              xor         edi,edi
  10014CCF: 8B C6              mov         eax,esi
  10014CD1: 85 F6              test        esi,esi
  10014CD3: 74 56              je          10014D2B
  10014CD5: 8B 40 04           mov         eax,dword ptr [eax+4]
  10014CD8: 47                 inc         edi
  10014CD9: 85 C0              test        eax,eax
  10014CDB: 75 F8              jne         10014CD5
  10014CDD: 85 F6              test        esi,esi
  10014CDF: 74 4A              je          10014D2B
  10014CE1: 39 16              cmp         dword ptr [esi],edx
  10014CE3: 75 0F              jne         10014CF4
  10014CE5: 39 56 14           cmp         dword ptr [esi+14h],edx
  10014CE8: 75 0A              jne         10014CF4
  10014CEA: 39 56 18           cmp         dword ptr [esi+18h],edx
  10014CED: 75 05              jne         10014CF4
  10014CEF: 39 56 1C           cmp         dword ptr [esi+1Ch],edx
  10014CF2: 74 13              je          10014D07
  10014CF4: 8B 4D 04           mov         ecx,dword ptr [ebp+4]
  10014CF7: 57                 push        edi
  10014CF8: 56                 push        esi
  10014CF9: 51                 push        ecx
  10014CFA: E8 BE C4 FF FF     call        @ILT+440(?_RTC_AllocaFailure@@YAXPAXPAU_RTC_ALLOCA_NODE@@H@Z)
  10014CFF: 83 C4 0C           add         esp,0Ch
  10014D02: BA CC CC CC CC     mov         edx,0CCCCCCCCh
  10014D07: 8B 46 0C           mov         eax,dword ptr [esi+0Ch]
  10014D0A: 39 54 30 FC        cmp         dword ptr [eax+esi-4],edx
  10014D0E: 74 13              je          10014D23
  10014D10: 8B 4D 04           mov         ecx,dword ptr [ebp+4]
  10014D13: 57                 push        edi
  10014D14: 56                 push        esi
  10014D15: 51                 push        ecx
  10014D16: E8 A2 C4 FF FF     call        @ILT+440(?_RTC_AllocaFailure@@YAXPAXPAU_RTC_ALLOCA_NODE@@H@Z)
  10014D1B: 83 C4 0C           add         esp,0Ch
  10014D1E: BA CC CC CC CC     mov         edx,0CCCCCCCCh
  10014D23: 8B 76 04           mov         esi,dword ptr [esi+4]
  10014D26: 4F                 dec         edi
  10014D27: 85 F6              test        esi,esi
  10014D29: 75 B6              jne         10014CE1
  10014D2B: 5F                 pop         edi
  10014D2C: 5E                 pop         esi
  10014D2D: 5B                 pop         ebx
  10014D2E: 8B E5              mov         esp,ebp
  10014D30: 5D                 pop         ebp
  10014D31: C2 04 00           ret         4
  10014D34: CC CC CC CC CC CC CC CC CC CC CC CC CC CC CC CC  лллллллллллллллл
  10014D44: CC CC CC CC CC CC CC CC CC CC CC CC CC CC CC CC  лллллллллллллллл
  10014D54: CC CC CC CC CC CC CC CC CC CC CC CC CC CC CC CC  лллллллллллллллл
  10014D64: CC CC CC CC CC CC CC CC CC CC CC CC              лллллллллллл
__RTC_InitBase:
  10014D70: 80 3D 30 C1 01 10  cmp         byte ptr ds:[1001C130h],0
            00
  10014D77: 75 1F              jne         10014D98
  10014D79: 6A 00              push        0
  10014D7B: 6A 01              push        1
  10014D7D: 6A 00              push        0
  10014D7F: 6A 00              push        0
  10014D81: 6A 00              push        0
  10014D83: C6 05 30 C1 01 10  mov         byte ptr ds:[1001C130h],1
            01
  10014D8A: E8 DE C3 FF FF     call        @ILT+360(__CRT_RTC_INITW)
  10014D8F: 50                 push        eax
  10014D90: E8 6F C3 FF FF     call        @ILT+255(__RTC_SetErrorFuncW)
  10014D95: 83 C4 18           add         esp,18h
  10014D98: C3                 ret
  10014D99: CC CC CC CC CC CC CC CC CC CC CC CC CC CC CC CC  лллллллллллллллл
  10014DA9: CC CC CC CC CC CC CC                             ллллллл
__RTC_Shutdown:
  10014DB0: 6A 01              push        1
  10014DB2: 6A 01              push        1
  10014DB4: 6A 00              push        0
  10014DB6: 6A 00              push        0
  10014DB8: 6A 00              push        0
  10014DBA: E8 AE C3 FF FF     call        @ILT+360(__CRT_RTC_INITW)
  10014DBF: 83 C4 14           add         esp,14h
  10014DC2: C3                 ret
  10014DC3: CC CC CC CC CC CC CC CC CC CC CC CC CC           ллллллллллллл
  10014DD0: 8B FF              mov         edi,edi
  10014DD2: 55                 push        ebp
  10014DD3: 8B EC              mov         ebp,esp
  10014DD5: 51                 push        ecx
  10014DD6: 68 92 00 00 00     push        92h
  10014DDB: 68 C8 A6 01 10     push        offset ??_C@_0DA@FJPPCPEH@f?3?2dd?2vctools?2crt_bld?2self_x86?2c@
  10014DE0: 6A 02              push        2
  10014DE2: 68 80 00 00 00     push        80h
  10014DE7: FF 15 D0 D2 01 10  call        dword ptr [__imp___malloc_dbg]
  10014DED: 83 C4 10           add         esp,10h
  10014DF0: 89 45 FC           mov         dword ptr [ebp-4],eax
  10014DF3: 8B 45 FC           mov         eax,dword ptr [ebp-4]
  10014DF6: 50                 push        eax
  10014DF7: FF 15 40 D2 01 10  call        dword ptr [__imp__EncodePointer@4]
  10014DFD: A3 44 C5 01 10     mov         dword ptr [___onexitbegin],eax
  10014E02: 8B 0D 44 C5 01 10  mov         ecx,dword ptr [___onexitbegin]
  10014E08: 89 0D 34 C5 01 10  mov         dword ptr [___onexitend],ecx
  10014E0E: 83 7D FC 00        cmp         dword ptr [ebp-4],0
  10014E12: 75 07              jne         10014E1B
  10014E14: B8 01 00 00 00     mov         eax,1
  10014E19: EB 2A              jmp         10014E45
  10014E1B: 8B 55 FC           mov         edx,dword ptr [ebp-4]
  10014E1E: C7 02 00 00 00 00  mov         dword ptr [edx],0
  10014E24: E8 21 C3 FF FF     call        @ILT+325(__RTC_Initialize)
  10014E29: 68 23 10 01 10     push        offset @ILT+30(__RTC_Terminate)
  10014E2E: E8 40 C2 FF FF     call        @ILT+110(_atexit)
  10014E33: 83 C4 04           add         esp,4
  10014E36: 68 77 11 01 10     push        offset @ILT+370(___clean_type_info_names)
  10014E3B: E8 33 C2 FF FF     call        @ILT+110(_atexit)
  10014E40: 83 C4 04           add         esp,4
  10014E43: 33 C0              xor         eax,eax
  10014E45: 8B E5              mov         esp,ebp
  10014E47: 5D                 pop         ebp
  10014E48: C3                 ret
  10014E49: CC CC CC CC CC CC CC CC CC CC CC CC CC CC CC CC  лллллллллллллллл
  10014E59: CC CC CC CC CC CC CC CC CC CC CC CC CC CC CC CC  лллллллллллллллл
  10014E69: CC CC CC CC CC CC CC                             ллллллл
__CRT_INIT@12:
  10014E70: 8B FF              mov         edi,edi
  10014E72: 55                 push        ebp
  10014E73: 8B EC              mov         ebp,esp
  10014E75: 83 EC 34           sub         esp,34h
  10014E78: 83 7D 0C 00        cmp         dword ptr [ebp+0Ch],0
  10014E7C: 75 1F              jne         10014E9D
  10014E7E: 83 3D 34 C1 01 10  cmp         dword ptr ds:[1001C134h],0
            00
  10014E85: 7E 0F              jle         10014E96
  10014E87: A1 34 C1 01 10     mov         eax,dword ptr ds:[1001C134h]
  10014E8C: 83 E8 01           sub         eax,1
  10014E8F: A3 34 C1 01 10     mov         dword ptr ds:[1001C134h],eax
  10014E94: EB 07              jmp         10014E9D
  10014E96: 33 C0              xor         eax,eax
  10014E98: E9 B9 02 00 00     jmp         10015156
  10014E9D: 83 7D 0C 01        cmp         dword ptr [ebp+0Ch],1
  10014EA1: 0F 85 03 01 00 00  jne         10014FAA
  10014EA7: C7 45 F4 00 00 00  mov         dword ptr [ebp-0Ch],0
            00
  10014EAE: E8 5B C2 FF FF     call        @ILT+265(_NtCurrentTeb)
  10014EB3: 8B 48 04           mov         ecx,dword ptr [eax+4]
  10014EB6: 89 4D F8           mov         dword ptr [ebp-8],ecx
  10014EB9: C7 45 FC 00 00 00  mov         dword ptr [ebp-4],0
            00
  10014EC0: 6A 00              push        0
  10014EC2: 8B 55 F8           mov         edx,dword ptr [ebp-8]
  10014EC5: 52                 push        edx
  10014EC6: 68 30 C5 01 10     push        offset ___native_startup_lock
  10014ECB: FF 15 34 D2 01 10  call        dword ptr [__imp__InterlockedCompareExchange@12]
  10014ED1: 89 45 F4           mov         dword ptr [ebp-0Ch],eax
  10014ED4: 83 7D F4 00        cmp         dword ptr [ebp-0Ch],0
  10014ED8: 74 1E              je          10014EF8
  10014EDA: 8B 45 F4           mov         eax,dword ptr [ebp-0Ch]
  10014EDD: 3B 45 F8           cmp         eax,dword ptr [ebp-8]
  10014EE0: 75 09              jne         10014EEB
  10014EE2: C7 45 FC 01 00 00  mov         dword ptr [ebp-4],1
            00
  10014EE9: EB 0D              jmp         10014EF8
  10014EEB: 68 E8 03 00 00     push        3E8h
  10014EF0: FF 15 38 D2 01 10  call        dword ptr [__imp__Sleep@4]
  10014EF6: EB C8              jmp         10014EC0
  10014EF8: 83 3D 20 C5 01 10  cmp         dword ptr [___native_startup_state],0
            00
  10014EFF: 74 0C              je          10014F0D
  10014F01: 6A 1F              push        1Fh
  10014F03: E8 7E C2 FF FF     call        @ILT+385(__amsg_exit)
  10014F08: 83 C4 04           add         esp,4
  10014F0B: EB 43              jmp         10014F50
  10014F0D: C7 05 20 C5 01 10  mov         dword ptr [___native_startup_state],1
            01 00 00 00
  10014F17: 68 10 84 01 10     push        offset ___xi_z
  10014F1C: 68 08 82 01 10     push        offset ___xi_a
  10014F21: E8 AB C2 FF FF     call        @ILT+460(__initterm_e)
  10014F26: 83 C4 08           add         esp,8
  10014F29: 85 C0              test        eax,eax
  10014F2B: 74 07              je          10014F34
  10014F2D: 33 C0              xor         eax,eax
  10014F2F: E9 22 02 00 00     jmp         10015156
  10014F34: 68 04 81 01 10     push        offset ___xc_z
  10014F39: 68 00 80 01 10     push        offset ___xc_a
  10014F3E: E8 62 C1 FF FF     call        @ILT+160(__initterm)
  10014F43: 83 C4 08           add         esp,8
  10014F46: C7 05 20 C5 01 10  mov         dword ptr [___native_startup_state],2
            02 00 00 00
  10014F50: 83 7D FC 00        cmp         dword ptr [ebp-4],0
  10014F54: 75 0D              jne         10014F63
  10014F56: 6A 00              push        0
  10014F58: 68 30 C5 01 10     push        offset ___native_startup_lock
  10014F5D: FF 15 3C D2 01 10  call        dword ptr [__imp__InterlockedExchange@8]
  10014F63: 83 3D 48 C5 01 10  cmp         dword ptr [___dyn_tls_init_callback],0
            00
  10014F6A: 74 21              je          10014F8D
  10014F6C: 68 48 C5 01 10     push        offset ___dyn_tls_init_callback
  10014F71: E8 06 C2 FF FF     call        @ILT+375(__IsNonwritableInCurrentImage)
  10014F76: 83 C4 04           add         esp,4
  10014F79: 85 C0              test        eax,eax
  10014F7B: 74 10              je          10014F8D
  10014F7D: 8B 4D 10           mov         ecx,dword ptr [ebp+10h]
  10014F80: 51                 push        ecx
  10014F81: 6A 02              push        2
  10014F83: 8B 55 08           mov         edx,dword ptr [ebp+8]
  10014F86: 52                 push        edx
  10014F87: FF 15 48 C5 01 10  call        dword ptr [___dyn_tls_init_callback]
  10014F8D: 6A 01              push        1
  10014F8F: FF 15 C4 D2 01 10  call        dword ptr [__imp___CrtSetCheckCount]
  10014F95: 83 C4 04           add         esp,4
  10014F98: A1 34 C1 01 10     mov         eax,dword ptr ds:[1001C134h]
  10014F9D: 83 C0 01           add         eax,1
  10014FA0: A3 34 C1 01 10     mov         dword ptr ds:[1001C134h],eax
  10014FA5: E9 A7 01 00 00     jmp         10015151
  10014FAA: 83 7D 0C 00        cmp         dword ptr [ebp+0Ch],0
  10014FAE: 0F 85 9D 01 00 00  jne         10015151
  10014FB4: C7 45 E8 00 00 00  mov         dword ptr [ebp-18h],0
            00
  10014FBB: E8 4E C1 FF FF     call        @ILT+265(_NtCurrentTeb)
  10014FC0: 8B 48 04           mov         ecx,dword ptr [eax+4]
  10014FC3: 89 4D EC           mov         dword ptr [ebp-14h],ecx
  10014FC6: C7 45 F0 00 00 00  mov         dword ptr [ebp-10h],0
            00
  10014FCD: 6A 00              push        0
  10014FCF: 8B 55 EC           mov         edx,dword ptr [ebp-14h]
  10014FD2: 52                 push        edx
  10014FD3: 68 30 C5 01 10     push        offset ___native_startup_lock
  10014FD8: FF 15 34 D2 01 10  call        dword ptr [__imp__InterlockedCompareExchange@12]
  10014FDE: 89 45 E8           mov         dword ptr [ebp-18h],eax
  10014FE1: 83 7D E8 00        cmp         dword ptr [ebp-18h],0
  10014FE5: 74 1E              je          10015005
  10014FE7: 8B 45 E8           mov         eax,dword ptr [ebp-18h]
  10014FEA: 3B 45 EC           cmp         eax,dword ptr [ebp-14h]
  10014FED: 75 09              jne         10014FF8
  10014FEF: C7 45 F0 01 00 00  mov         dword ptr [ebp-10h],1
            00
  10014FF6: EB 0D              jmp         10015005
  10014FF8: 68 E8 03 00 00     push        3E8h
  10014FFD: FF 15 38 D2 01 10  call        dword ptr [__imp__Sleep@4]
  10015003: EB C8              jmp         10014FCD
  10015005: 83 3D 20 C5 01 10  cmp         dword ptr [___native_startup_state],2
            02
  1001500C: 74 0F              je          1001501D
  1001500E: 6A 1F              push        1Fh
  10015010: E8 71 C1 FF FF     call        @ILT+385(__amsg_exit)
  10015015: 83 C4 04           add         esp,4
  10015018: E9 34 01 00 00     jmp         10015151
  1001501D: 8B 0D 44 C5 01 10  mov         ecx,dword ptr [___onexitbegin]
  10015023: 51                 push        ecx
  10015024: FF 15 44 D2 01 10  call        dword ptr [__imp__DecodePointer@4]
  1001502A: 89 45 E4           mov         dword ptr [ebp-1Ch],eax
  1001502D: 83 7D E4 00        cmp         dword ptr [ebp-1Ch],0
  10015031: 0F 84 FD 00 00 00  je          10015134
  10015037: 8B 15 34 C5 01 10  mov         edx,dword ptr [___onexitend]
  1001503D: 52                 push        edx
  1001503E: FF 15 44 D2 01 10  call        dword ptr [__imp__DecodePointer@4]
  10015044: 89 45 D8           mov         dword ptr [ebp-28h],eax
  10015047: C7 45 DC 00 00 00  mov         dword ptr [ebp-24h],0
            00
  1001504E: 8B 45 E4           mov         eax,dword ptr [ebp-1Ch]
  10015051: 89 45 D4           mov         dword ptr [ebp-2Ch],eax
  10015054: 8B 4D D8           mov         ecx,dword ptr [ebp-28h]
  10015057: 89 4D E0           mov         dword ptr [ebp-20h],ecx
  1001505A: BA 01 00 00 00     mov         edx,1
  1001505F: 85 D2              test        edx,edx
  10015061: 0F 84 A9 00 00 00  je          10015110
  10015067: C7 45 D0 00 00 00  mov         dword ptr [ebp-30h],0
            00
  1001506E: C7 45 CC 00 00 00  mov         dword ptr [ebp-34h],0
            00
  10015075: 8B 45 D8           mov         eax,dword ptr [ebp-28h]
  10015078: 83 E8 04           sub         eax,4
  1001507B: 89 45 D8           mov         dword ptr [ebp-28h],eax
  1001507E: 8B 4D D8           mov         ecx,dword ptr [ebp-28h]
  10015081: 3B 4D E4           cmp         ecx,dword ptr [ebp-1Ch]
  10015084: 72 17              jb          1001509D
  10015086: 8B 55 D8           mov         edx,dword ptr [ebp-28h]
  10015089: 83 3A 00           cmp         dword ptr [edx],0
  1001508C: 74 0D              je          1001509B
  1001508E: FF 15 C8 D2 01 10  call        dword ptr [__imp___encoded_null]
  10015094: 8B 4D D8           mov         ecx,dword ptr [ebp-28h]
  10015097: 39 01              cmp         dword ptr [ecx],eax
  10015099: 75 02              jne         1001509D
  1001509B: EB D8              jmp         10015075
  1001509D: 8B 55 D8           mov         edx,dword ptr [ebp-28h]
  100150A0: 3B 55 E4           cmp         edx,dword ptr [ebp-1Ch]
  100150A3: 73 02              jae         100150A7
  100150A5: EB 69              jmp         10015110
  100150A7: 8B 45 D8           mov         eax,dword ptr [ebp-28h]
  100150AA: 8B 08              mov         ecx,dword ptr [eax]
  100150AC: 51                 push        ecx
  100150AD: FF 15 44 D2 01 10  call        dword ptr [__imp__DecodePointer@4]
  100150B3: 89 45 DC           mov         dword ptr [ebp-24h],eax
  100150B6: FF 15 C8 D2 01 10  call        dword ptr [__imp___encoded_null]
  100150BC: 8B 55 D8           mov         edx,dword ptr [ebp-28h]
  100150BF: 89 02              mov         dword ptr [edx],eax
  100150C1: FF 55 DC           call        dword ptr [ebp-24h]
  100150C4: A1 44 C5 01 10     mov         eax,dword ptr [___onexitbegin]
  100150C9: 50                 push        eax
  100150CA: FF 15 44 D2 01 10  call        dword ptr [__imp__DecodePointer@4]
  100150D0: 89 45 D0           mov         dword ptr [ebp-30h],eax
  100150D3: 8B 0D 34 C5 01 10  mov         ecx,dword ptr [___onexitend]
  100150D9: 51                 push        ecx
  100150DA: FF 15 44 D2 01 10  call        dword ptr [__imp__DecodePointer@4]
  100150E0: 89 45 CC           mov         dword ptr [ebp-34h],eax
  100150E3: 8B 55 D4           mov         edx,dword ptr [ebp-2Ch]
  100150E6: 3B 55 D0           cmp         edx,dword ptr [ebp-30h]
  100150E9: 75 08              jne         100150F3
  100150EB: 8B 45 E0           mov         eax,dword ptr [ebp-20h]
  100150EE: 3B 45 CC           cmp         eax,dword ptr [ebp-34h]
  100150F1: 74 18              je          1001510B
  100150F3: 8B 4D D0           mov         ecx,dword ptr [ebp-30h]
  100150F6: 89 4D D4           mov         dword ptr [ebp-2Ch],ecx
  100150F9: 8B 55 D4           mov         edx,dword ptr [ebp-2Ch]
  100150FC: 89 55 E4           mov         dword ptr [ebp-1Ch],edx
  100150FF: 8B 45 CC           mov         eax,dword ptr [ebp-34h]
  10015102: 89 45 E0           mov         dword ptr [ebp-20h],eax
  10015105: 8B 4D E0           mov         ecx,dword ptr [ebp-20h]
  10015108: 89 4D D8           mov         dword ptr [ebp-28h],ecx
  1001510B: E9 4A FF FF FF     jmp         1001505A
  10015110: 6A 02              push        2
  10015112: 8B 55 E4           mov         edx,dword ptr [ebp-1Ch]
  10015115: 52                 push        edx
  10015116: FF 15 CC D2 01 10  call        dword ptr [__imp___free_dbg]
  1001511C: 83 C4 08           add         esp,8
  1001511F: FF 15 C8 D2 01 10  call        dword ptr [__imp___encoded_null]
  10015125: A3 34 C5 01 10     mov         dword ptr [___onexitend],eax
  1001512A: A1 34 C5 01 10     mov         eax,dword ptr [___onexitend]
  1001512F: A3 44 C5 01 10     mov         dword ptr [___onexitbegin],eax
  10015134: C7 05 20 C5 01 10  mov         dword ptr [___native_startup_state],0
            00 00 00 00
  1001513E: 83 7D F0 00        cmp         dword ptr [ebp-10h],0
  10015142: 75 0D              jne         10015151
  10015144: 6A 00              push        0
  10015146: 68 30 C5 01 10     push        offset ___native_startup_lock
  1001514B: FF 15 3C D2 01 10  call        dword ptr [__imp__InterlockedExchange@8]
  10015151: B8 01 00 00 00     mov         eax,1
  10015156: 8B E5              mov         esp,ebp
  10015158: 5D                 pop         ebp
  10015159: C2 0C 00           ret         0Ch
  1001515C: CC CC CC CC CC CC CC CC CC CC CC CC CC CC CC CC  лллллллллллллллл
  1001516C: CC CC CC CC CC CC CC CC CC CC CC CC CC CC CC CC  лллллллллллллллл
  1001517C: CC CC CC CC CC CC CC CC CC CC CC CC CC CC CC CC  лллллллллллллллл
  1001518C: CC CC CC CC CC CC CC CC CC CC CC CC CC CC CC CC  лллллллллллллллл
  1001519C: CC CC CC CC CC CC CC CC CC CC CC CC CC CC CC CC  лллллллллллллллл
  100151AC: CC CC CC CC CC CC CC CC CC CC CC CC CC CC CC CC  лллллллллллллллл
  100151BC: CC CC CC CC CC CC CC CC CC CC CC CC CC CC CC CC  лллллллллллллллл
  100151CC: CC CC CC CC CC CC CC CC CC CC CC CC CC CC CC CC  лллллллллллллллл
  100151DC: CC CC CC CC CC CC CC CC CC CC CC CC CC CC CC CC  лллллллллллллллл
  100151EC: CC CC CC CC CC CC CC CC CC CC CC CC CC CC CC CC  лллллллллллллллл
  100151FC: CC CC CC CC CC CC CC CC CC CC CC CC CC CC CC CC  лллллллллллллллл
  1001520C: CC CC CC CC CC CC CC CC CC CC CC CC CC CC CC CC  лллллллллллллллл
  1001521C: CC CC CC CC                                      лллл
_NtCurrentTeb:
  10015220: 8B FF              mov         edi,edi
  10015222: 55                 push        ebp
  10015223: 8B EC              mov         ebp,esp
  10015225: 64 A1 18 00 00 00  mov         eax,dword ptr fs:[00000018h]
  1001522B: 5D                 pop         ebp
  1001522C: C3                 ret
  1001522D: CC CC CC                                         ллл
__DllMainCRTStartup@12:
  10015230: 8B FF              mov         edi,edi
  10015232: 55                 push        ebp
  10015233: 8B EC              mov         ebp,esp
  10015235: 83 7D 0C 01        cmp         dword ptr [ebp+0Ch],1
  10015239: 75 05              jne         10015240
  1001523B: E8 1A BE FF FF     call        @ILT+85(___security_init_cookie)
  10015240: 8B 45 10           mov         eax,dword ptr [ebp+10h]
  10015243: 50                 push        eax
  10015244: 8B 4D 0C           mov         ecx,dword ptr [ebp+0Ch]
  10015247: 51                 push        ecx
  10015248: 8B 55 08           mov         edx,dword ptr [ebp+8]
  1001524B: 52                 push        edx
  1001524C: E8 1F 00 00 00     call        10015270
  10015251: 83 C4 0C           add         esp,0Ch
  10015254: 5D                 pop         ebp
  10015255: C2 0C 00           ret         0Ch
  10015258: CC CC CC CC CC CC CC CC CC CC CC CC CC CC CC CC  лллллллллллллллл
  10015268: CC CC CC CC CC CC CC CC                          лллллллл
  10015270: 8B FF              mov         edi,edi
  10015272: 55                 push        ebp
  10015273: 8B EC              mov         ebp,esp
  10015275: 6A FE              push        0FFFFFFFEh
  10015277: 68 88 B9 01 10     push        1001B988h
  1001527C: 68 87 10 01 10     push        offset @ILT+130(__except_handler4)
  10015281: 64 A1 00 00 00 00  mov         eax,dword ptr fs:[00000000h]
  10015287: 50                 push        eax
  10015288: 83 C4 F0           add         esp,0FFFFFFF0h
  1001528B: 53                 push        ebx
  1001528C: 56                 push        esi
  1001528D: 57                 push        edi
  1001528E: A1 00 C0 01 10     mov         eax,dword ptr [___security_cookie]
  10015293: 31 45 F8           xor         dword ptr [ebp-8],eax
  10015296: 33 C5              xor         eax,ebp
  10015298: 50                 push        eax
  10015299: 8D 45 F0           lea         eax,[ebp-10h]
  1001529C: 64 A3 00 00 00 00  mov         dword ptr fs:[00000000h],eax
  100152A2: 89 65 E8           mov         dword ptr [ebp-18h],esp
  100152A5: C7 45 E4 01 00 00  mov         dword ptr [ebp-1Ch],1
            00
  100152AC: C7 45 FC 00 00 00  mov         dword ptr [ebp-4],0
            00
  100152B3: 8B 45 0C           mov         eax,dword ptr [ebp+0Ch]
  100152B6: A3 20 C0 01 10     mov         dword ptr [___native_dllmain_reason],eax
  100152BB: C7 45 FC 01 00 00  mov         dword ptr [ebp-4],1
            00
  100152C2: 83 7D 0C 00        cmp         dword ptr [ebp+0Ch],0
  100152C6: 75 15              jne         100152DD
  100152C8: 83 3D 34 C1 01 10  cmp         dword ptr ds:[1001C134h],0
            00
  100152CF: 75 0C              jne         100152DD
  100152D1: C7 45 E4 00 00 00  mov         dword ptr [ebp-1Ch],0
            00
  100152D8: E9 F2 00 00 00     jmp         100153CF
  100152DD: 83 7D 0C 01        cmp         dword ptr [ebp+0Ch],1
  100152E1: 74 06              je          100152E9
  100152E3: 83 7D 0C 02        cmp         dword ptr [ebp+0Ch],2
  100152E7: 75 43              jne         1001532C
  100152E9: 83 3D C4 A6 01 10  cmp         dword ptr [__pRawDllMain],0
            00
  100152F0: 74 15              je          10015307
  100152F2: 8B 4D 10           mov         ecx,dword ptr [ebp+10h]
  100152F5: 51                 push        ecx
  100152F6: 8B 55 0C           mov         edx,dword ptr [ebp+0Ch]
  100152F9: 52                 push        edx
  100152FA: 8B 45 08           mov         eax,dword ptr [ebp+8]
  100152FD: 50                 push        eax
  100152FE: FF 15 C4 A6 01 10  call        dword ptr [__pRawDllMain]
  10015304: 89 45 E4           mov         dword ptr [ebp-1Ch],eax
  10015307: 83 7D E4 00        cmp         dword ptr [ebp-1Ch],0
  1001530B: 74 14              je          10015321
  1001530D: 8B 4D 10           mov         ecx,dword ptr [ebp+10h]
  10015310: 51                 push        ecx
  10015311: 8B 55 0C           mov         edx,dword ptr [ebp+0Ch]
  10015314: 52                 push        edx
  10015315: 8B 45 08           mov         eax,dword ptr [ebp+8]
  10015318: 50                 push        eax
  10015319: E8 A4 BE FF FF     call        @ILT+445(__CRT_INIT@12)
  1001531E: 89 45 E4           mov         dword ptr [ebp-1Ch],eax
  10015321: 83 7D E4 00        cmp         dword ptr [ebp-1Ch],0
  10015325: 75 05              jne         1001532C
  10015327: E9 A3 00 00 00     jmp         100153CF
  1001532C: 8B 4D 10           mov         ecx,dword ptr [ebp+10h]
  1001532F: 51                 push        ecx
  10015330: 8B 55 0C           mov         edx,dword ptr [ebp+0Ch]
  10015333: 52                 push        edx
  10015334: 8B 45 08           mov         eax,dword ptr [ebp+8]
  10015337: 50                 push        eax
  10015338: E8 F0 BC FF FF     call        @ILT+40(_DllMain@12)
  1001533D: 89 45 E4           mov         dword ptr [ebp-1Ch],eax
  10015340: 83 7D 0C 01        cmp         dword ptr [ebp+0Ch],1
  10015344: 75 3D              jne         10015383
  10015346: 83 7D E4 00        cmp         dword ptr [ebp-1Ch],0
  1001534A: 75 37              jne         10015383
  1001534C: 8B 4D 10           mov         ecx,dword ptr [ebp+10h]
  1001534F: 51                 push        ecx
  10015350: 6A 00              push        0
  10015352: 8B 55 08           mov         edx,dword ptr [ebp+8]
  10015355: 52                 push        edx
  10015356: E8 D2 BC FF FF     call        @ILT+40(_DllMain@12)
  1001535B: 8B 45 10           mov         eax,dword ptr [ebp+10h]
  1001535E: 50                 push        eax
  1001535F: 6A 00              push        0
  10015361: 8B 4D 08           mov         ecx,dword ptr [ebp+8]
  10015364: 51                 push        ecx
  10015365: E8 58 BE FF FF     call        @ILT+445(__CRT_INIT@12)
  1001536A: 83 3D C4 A6 01 10  cmp         dword ptr [__pRawDllMain],0
            00
  10015371: 74 10              je          10015383
  10015373: 8B 55 10           mov         edx,dword ptr [ebp+10h]
  10015376: 52                 push        edx
  10015377: 6A 00              push        0
  10015379: 8B 45 08           mov         eax,dword ptr [ebp+8]
  1001537C: 50                 push        eax
  1001537D: FF 15 C4 A6 01 10  call        dword ptr [__pRawDllMain]
  10015383: 83 7D 0C 00        cmp         dword ptr [ebp+0Ch],0
  10015387: 74 06              je          1001538F
  10015389: 83 7D 0C 03        cmp         dword ptr [ebp+0Ch],3
  1001538D: 75 40              jne         100153CF
  1001538F: 8B 4D 10           mov         ecx,dword ptr [ebp+10h]
  10015392: 51                 push        ecx
  10015393: 8B 55 0C           mov         edx,dword ptr [ebp+0Ch]
  10015396: 52                 push        edx
  10015397: 8B 45 08           mov         eax,dword ptr [ebp+8]
  1001539A: 50                 push        eax
  1001539B: E8 22 BE FF FF     call        @ILT+445(__CRT_INIT@12)
  100153A0: 85 C0              test        eax,eax
  100153A2: 75 07              jne         100153AB
  100153A4: C7 45 E4 00 00 00  mov         dword ptr [ebp-1Ch],0
            00
  100153AB: 83 7D E4 00        cmp         dword ptr [ebp-1Ch],0
  100153AF: 74 1E              je          100153CF
  100153B1: 83 3D C4 A6 01 10  cmp         dword ptr [__pRawDllMain],0
            00
  100153B8: 74 15              je          100153CF
  100153BA: 8B 4D 10           mov         ecx,dword ptr [ebp+10h]
  100153BD: 51                 push        ecx
  100153BE: 8B 55 0C           mov         edx,dword ptr [ebp+0Ch]
  100153C1: 52                 push        edx
  100153C2: 8B 45 08           mov         eax,dword ptr [ebp+8]
  100153C5: 50                 push        eax
  100153C6: FF 15 C4 A6 01 10  call        dword ptr [__pRawDllMain]
  100153CC: 89 45 E4           mov         dword ptr [ebp-1Ch],eax
  100153CF: C7 45 FC 00 00 00  mov         dword ptr [ebp-4],0
            00
  100153D6: EB 2C              jmp         10015404
  100153D8: 8B 4D EC           mov         ecx,dword ptr [ebp-14h]
  100153DB: 8B 11              mov         edx,dword ptr [ecx]
  100153DD: 8B 02              mov         eax,dword ptr [edx]
  100153DF: 89 45 E0           mov         dword ptr [ebp-20h],eax
  100153E2: 8B 4D EC           mov         ecx,dword ptr [ebp-14h]
  100153E5: 51                 push        ecx
  100153E6: 8B 55 E0           mov         edx,dword ptr [ebp-20h]
  100153E9: 52                 push        edx
  100153EA: E8 06 BD FF FF     call        @ILT+240(___CppXcptFilter)
  100153EF: 83 C4 08           add         esp,8
  100153F2: C3                 ret
  100153F3: 8B 65 E8           mov         esp,dword ptr [ebp-18h]
  100153F6: C7 45 E4 00 00 00  mov         dword ptr [ebp-1Ch],0
            00
  100153FD: C7 45 FC 00 00 00  mov         dword ptr [ebp-4],0
            00
  10015404: C7 45 FC FE FF FF  mov         dword ptr [ebp-4],0FFFFFFFEh
            FF
  1001540B: E8 02 00 00 00     call        10015412
  10015410: EB 0B              jmp         1001541D
  10015412: C7 05 20 C0 01 10  mov         dword ptr [___native_dllmain_reason],0FFFFFFFFh
            FF FF FF FF
  1001541C: C3                 ret
  1001541D: 8B 45 E4           mov         eax,dword ptr [ebp-1Ch]
  10015420: 8B 4D F0           mov         ecx,dword ptr [ebp-10h]
  10015423: 64 89 0D 00 00 00  mov         dword ptr fs:[0],ecx
            00
  1001542A: 59                 pop         ecx
  1001542B: 5F                 pop         edi
  1001542C: 5E                 pop         esi
  1001542D: 5B                 pop         ebx
  1001542E: 8B E5              mov         esp,ebp
  10015430: 5D                 pop         ebp
  10015431: C3                 ret
  10015432: CC CC CC CC CC CC CC CC CC CC CC CC CC CC CC CC  лллллллллллллллл
  10015442: CC CC CC CC CC CC CC CC CC CC CC CC CC CC CC CC  лллллллллллллллл
  10015452: CC CC CC CC CC CC CC CC CC CC CC CC CC CC CC CC  лллллллллллллллл
  10015462: CC CC CC CC CC CC CC CC CC CC CC CC CC CC CC CC  лллллллллллллллл
  10015472: CC CC CC CC CC CC CC CC CC CC CC CC CC CC CC CC  лллллллллллллллл
  10015482: CC CC CC CC CC CC CC CC CC CC CC CC CC CC CC CC  лллллллллллллллл
  10015492: CC CC CC CC CC CC CC CC CC CC CC CC CC CC CC CC  лллллллллллллллл
  100154A2: CC CC CC CC CC CC CC CC CC CC CC CC CC CC        лллллллллллллл
___report_gsfailure:
  100154B0: 8B FF              mov         edi,edi
  100154B2: 55                 push        ebp
  100154B3: 8B EC              mov         ebp,esp
  100154B5: 81 EC 28 03 00 00  sub         esp,328h
  100154BB: A3 40 C2 01 10     mov         dword ptr ds:[1001C240h],eax
  100154C0: 89 0D 3C C2 01 10  mov         dword ptr ds:[1001C23Ch],ecx
  100154C6: 89 15 38 C2 01 10  mov         dword ptr ds:[1001C238h],edx
  100154CC: 89 1D 34 C2 01 10  mov         dword ptr ds:[1001C234h],ebx
  100154D2: 89 35 30 C2 01 10  mov         dword ptr ds:[1001C230h],esi
  100154D8: 89 3D 2C C2 01 10  mov         dword ptr ds:[1001C22Ch],edi
  100154DE: 66 8C 15 58 C2 01  mov         word ptr ds:[1001C258h],ss
            10
  100154E5: 66 8C 0D 4C C2 01  mov         word ptr ds:[1001C24Ch],cs
            10
  100154EC: 66 8C 1D 28 C2 01  mov         word ptr ds:[1001C228h],ds
            10
  100154F3: 66 8C 05 24 C2 01  mov         word ptr ds:[1001C224h],es
            10
  100154FA: 66 8C 25 20 C2 01  mov         word ptr ds:[1001C220h],fs
            10
  10015501: 66 8C 2D 1C C2 01  mov         word ptr ds:[1001C21Ch],gs
            10
  10015508: 9C                 pushfd
  10015509: 8F 05 50 C2 01 10  pop         dword ptr ds:[1001C250h]
  1001550F: 8B 45 00           mov         eax,dword ptr [ebp]
  10015512: A3 44 C2 01 10     mov         dword ptr ds:[1001C244h],eax
  10015517: 8B 45 04           mov         eax,dword ptr [ebp+4]
  1001551A: A3 48 C2 01 10     mov         dword ptr ds:[1001C248h],eax
  1001551F: 8D 45 08           lea         eax,[ebp+8]
  10015522: A3 54 C2 01 10     mov         dword ptr ds:[1001C254h],eax
  10015527: 8B 85 E0 FC FF FF  mov         eax,dword ptr [ebp-320h]
  1001552D: C7 05 90 C1 01 10  mov         dword ptr ds:[1001C190h],10001h
            01 00 01 00
  10015537: A1 48 C2 01 10     mov         eax,dword ptr ds:[1001C248h]
  1001553C: A3 44 C1 01 10     mov         dword ptr ds:[1001C144h],eax
  10015541: C7 05 38 C1 01 10  mov         dword ptr ds:[1001C138h],0C0000409h
            09 04 00 C0
  1001554B: C7 05 3C C1 01 10  mov         dword ptr ds:[1001C13Ch],1
            01 00 00 00
  10015555: 8B 0D 00 C0 01 10  mov         ecx,dword ptr [___security_cookie]
  1001555B: 89 8D D8 FC FF FF  mov         dword ptr [ebp-328h],ecx
  10015561: 8B 15 04 C0 01 10  mov         edx,dword ptr [___security_cookie_complement]
  10015567: 89 95 DC FC FF FF  mov         dword ptr [ebp-324h],edx
  1001556D: FF 15 1C D2 01 10  call        dword ptr [__imp__IsDebuggerPresent@0]
  10015573: A3 88 C1 01 10     mov         dword ptr ds:[1001C188h],eax
  10015578: 6A 01              push        1
  1001557A: E8 62 BB FF FF     call        @ILT+220(__crt_debugger_hook)
  1001557F: 83 C4 04           add         esp,4
  10015582: 6A 00              push        0
  10015584: FF 15 20 D2 01 10  call        dword ptr [__imp__SetUnhandledExceptionFilter@4]
  1001558A: 68 04 A7 01 10     push        1001A704h
  1001558F: FF 15 24 D2 01 10  call        dword ptr [__imp__UnhandledExceptionFilter@4]
  10015595: 83 3D 88 C1 01 10  cmp         dword ptr ds:[1001C188h],0
            00
  1001559C: 75 0A              jne         100155A8
  1001559E: 6A 01              push        1
  100155A0: E8 3C BB FF FF     call        @ILT+220(__crt_debugger_hook)
  100155A5: 83 C4 04           add         esp,4
  100155A8: 68 09 04 00 C0     push        0C0000409h
  100155AD: FF 15 28 D2 01 10  call        dword ptr [__imp__GetCurrentProcess@0]
  100155B3: 50                 push        eax
  100155B4: FF 15 2C D2 01 10  call        dword ptr [__imp__TerminateProcess@8]
  100155BA: 8B E5              mov         esp,ebp
  100155BC: 5D                 pop         ebp
  100155BD: C3                 ret
  100155BE: CC CC CC CC CC CC CC CC CC CC CC CC CC CC CC CC  лллллллллллллллл
  100155CE: CC CC CC CC CC CC CC CC CC CC CC CC CC CC CC CC  лллллллллллллллл
  100155DE: CC CC CC CC CC CC CC CC CC CC CC CC CC CC CC CC  лллллллллллллллл
  100155EE: CC CC CC CC CC CC CC CC CC CC CC CC CC CC CC CC  лллллллллллллллл
  100155FE: CC CC CC CC CC CC CC CC CC CC CC CC CC CC CC CC  лллллллллллллллл
  1001560E: CC CC                                            лл
?_RTC_Failure@@YAXPAXH@Z:
  10015610: 8B FF              mov         edi,edi
  10015612: 55                 push        ebp
  10015613: 8B EC              mov         ebp,esp
  10015615: 8B 45 0C           mov         eax,dword ptr [ebp+0Ch]
  10015618: 83 F8 04           cmp         eax,4
  1001561B: 77 24              ja          10015641
  1001561D: 8B 0C 85 08 C0 01  mov         ecx,dword ptr ?_RTC_ErrorLevels@@3PAHA[eax*4]
            10
  10015624: 8B 14 85 34 AA 01  mov         edx,dword ptr [eax*4+1001AA34h]
            10
  1001562B: 83 F9 FF           cmp         ecx,0FFFFFFFFh
  1001562E: 74 0F              je          1001563F
  10015630: 52                 push        edx
  10015631: 50                 push        eax
  10015632: 8B 45 08           mov         eax,dword ptr [ebp+8]
  10015635: 51                 push        ecx
  10015636: 50                 push        eax
  10015637: E8 44 00 00 00     call        10015680
  1001563C: 83 C4 10           add         esp,10h
  1001563F: 5D                 pop         ebp
  10015640: C3                 ret
  10015641: BA 10 A7 01 10     mov         edx,offset ??_C@_0BO@GNIAFIKK@Unknown?5Runtime?5Check?5Error?6?$AN?$AA@
  10015646: 52                 push        edx
  10015647: B8 05 00 00 00     mov         eax,5
  1001564C: 50                 push        eax
  1001564D: 8B 45 08           mov         eax,dword ptr [ebp+8]
  10015650: B9 01 00 00 00     mov         ecx,1
  10015655: 51                 push        ecx
  10015656: 50                 push        eax
  10015657: E8 24 00 00 00     call        10015680
  1001565C: 83 C4 10           add         esp,10h
  1001565F: 5D                 pop         ebp
  10015660: C3                 ret
  10015661: CC CC CC CC CC CC CC CC CC CC CC CC CC CC CC CC  лллллллллллллллл
  10015671: CC CC CC CC CC CC CC CC CC CC CC CC CC CC CC     ллллллллллллллл
  10015680: 8B FF              mov         edi,edi
  10015682: 55                 push        ebp
  10015683: 8B EC              mov         ebp,esp
  10015685: 81 EC 40 0E 00 00  sub         esp,0E40h
  1001568B: A1 00 C0 01 10     mov         eax,dword ptr [___security_cookie]
  10015690: 33 C5              xor         eax,ebp
  10015692: 89 45 FC           mov         dword ptr [ebp-4],eax
  10015695: 8B 45 10           mov         eax,dword ptr [ebp+10h]
  10015698: 53                 push        ebx
  10015699: 8B 5D 08           mov         ebx,dword ptr [ebp+8]
  1001569C: 56                 push        esi
  1001569D: 57                 push        edi
  1001569E: 8B 7D 14           mov         edi,dword ptr [ebp+14h]
  100156A1: 53                 push        ebx
  100156A2: 89 85 C8 F1 FF FF  mov         dword ptr [ebp-0E38h],eax
  100156A8: 89 BD C0 F1 FF FF  mov         dword ptr [ebp-0E40h],edi
  100156AE: C7 85 C4 F1 FF FF  mov         dword ptr [ebp-0E3Ch],0
            00 00 00 00
  100156B8: E8 7F B9 FF FF     call        @ILT+55(?_RTC_GetErrorFuncW@@YAP6AHHPB_WH00ZZPBX@Z)
  100156BD: 83 C4 04           add         esp,4
  100156C0: 89 85 D0 F1 FF FF  mov         dword ptr [ebp-0E30h],eax
  100156C6: 85 C0              test        eax,eax
  100156C8: 75 0F              jne         100156D9
  100156CA: 53                 push        ebx
  100156CB: E8 0B BB FF FF     call        @ILT+470(?_RTC_GetErrorFunc@@YAP6AHHPBDH00ZZPBX@Z)
  100156D0: 83 C4 04           add         esp,4
  100156D3: 89 85 C4 F1 FF FF  mov         dword ptr [ebp-0E3Ch],eax
  100156D9: 8B 35 D4 D1 01 10  mov         esi,dword ptr [__imp__MultiByteToWideChar@24]
  100156DF: 6A 00              push        0
  100156E1: 6A 00              push        0
  100156E3: 6A FF              push        0FFFFFFFFh
  100156E5: 57                 push        edi
  100156E6: 6A 00              push        0
  100156E8: 68 E9 FD 00 00     push        0FDE9h
  100156ED: FF D6              call        esi
  100156EF: 3D 00 02 00 00     cmp         eax,200h
  100156F4: 73 26              jae         1001571C
  100156F6: 50                 push        eax
  100156F7: 8D 8D D4 F1 FF FF  lea         ecx,[ebp-0E2Ch]
  100156FD: 51                 push        ecx
  100156FE: 6A FF              push        0FFFFFFFFh
  10015700: 57                 push        edi
  10015701: 6A 00              push        0
  10015703: 68 E9 FD 00 00     push        0FDE9h
  10015708: FF D6              call        esi
  1001570A: 85 C0              test        eax,eax
  1001570C: 74 0E              je          1001571C
  1001570E: 8D 95 D4 F1 FF FF  lea         edx,[ebp-0E2Ch]
  10015714: 89 95 CC F1 FF FF  mov         dword ptr [ebp-0E34h],edx
  1001571A: EB 0A              jmp         10015726
  1001571C: C7 85 CC F1 FF FF  mov         dword ptr [ebp-0E34h],offset ??_C@_1GM@OLMCBDMB@?$AAR?$AAu?$AAn?$AAt?$AAi?$AAm?$AAe?$AA?5?$AAC?$AAh?$AAe?$AAc?$AAk?$AA?5?$AAE?$AAr?$AAr?$AAo?$AAr?$AA?4?$AA?6?$AA?$AN?$AA?5?$AAU?$AAn?$AAa?$AAb?$AAl?$AAe?$AA?5?$AAt?$AAo@
            98 AB 01 10
  10015726: 68 02 10 00 00     push        1002h
  1001572B: E8 F0 01 00 00     call        10015920
  10015730: 8B BD C8 F1 FF FF  mov         edi,dword ptr [ebp-0E38h]
  10015736: 83 C4 04           add         esp,4
  10015739: 85 C0              test        eax,eax
  1001573B: 74 25              je          10015762
  1001573D: 8B 85 CC F1 FF FF  mov         eax,dword ptr [ebp-0E34h]
  10015743: 8B 0C BD 4C AA 01  mov         ecx,dword ptr [edi*4+1001AA4Ch]
            10
  1001574A: 50                 push        eax
  1001574B: 53                 push        ebx
  1001574C: 51                 push        ecx
  1001574D: 57                 push        edi
  1001574E: E8 7D 02 00 00     call        100159D0
  10015753: 83 C4 10           add         esp,10h
  10015756: 85 C0              test        eax,eax
  10015758: 0F 85 22 01 00 00  jne         10015880
  1001575E: 32 C0              xor         al,al
  10015760: EB 02              jmp         10015764
  10015762: B0 01              mov         al,1
  10015764: 83 BD C4 F1 FF FF  cmp         dword ptr [ebp-0E3Ch],0
            00
  1001576B: 8B B5 D0 F1 FF FF  mov         esi,dword ptr [ebp-0E30h]
  10015771: 75 08              jne         1001577B
  10015773: 85 F6              test        esi,esi
  10015775: 0F 84 04 01 00 00  je          1001587F
  1001577B: 84 C0              test        al,al
  1001577D: 74 0E              je          1001578D
  1001577F: FF 15 1C D2 01 10  call        dword ptr [__imp__IsDebuggerPresent@0]
  10015785: 85 C0              test        eax,eax
  10015787: 0F 85 F2 00 00 00  jne         1001587F
  1001578D: 68 04 01 00 00     push        104h
  10015792: 8D 95 F4 FD FF FF  lea         edx,[ebp-20Ch]
  10015798: 52                 push        edx
  10015799: 8D 85 D0 F1 FF FF  lea         eax,[ebp-0E30h]
  1001579F: 50                 push        eax
  100157A0: 68 04 01 00 00     push        104h
  100157A5: 8D 8D EC FB FF FF  lea         ecx,[ebp-414h]
  100157AB: 51                 push        ecx
  100157AC: 83 C3 FB           add         ebx,0FFFFFFFBh
  100157AF: 53                 push        ebx
  100157B0: E8 AE B9 FF FF     call        @ILT+350(?_RTC_GetSrcLine@@YAHPAEPA_WKPAH1K@Z)
  100157B5: 83 C4 18           add         esp,18h
  100157B8: 85 F6              test        esi,esi
  100157BA: 74 2D              je          100157E9
  100157BC: 8B 95 CC F1 FF FF  mov         edx,dword ptr [ebp-0E34h]
  100157C2: 8B 8D D0 F1 FF FF  mov         ecx,dword ptr [ebp-0E30h]
  100157C8: 52                 push        edx
  100157C9: 57                 push        edi
  100157CA: 68 48 AB 01 10     push        offset ??_C@_1EA@NFKNIFJP@?$AAR?$AAu?$AAn?$AA?9?$AAT?$AAi?$AAm?$AAe?$AA?5?$AAC?$AAh?$AAe?$AAc?$AAk?$AA?5?$AAF?$AAa?$AAi?$AAl?$AAu?$AAr?$AAe?$AA?5?$AA?$CD?$AA?$CF?$AAd?$AA?5?$AA?9?$AA?5?$AA?$CF?$AAs?$AA?$AA@
  100157CF: 8D 85 F4 FD FF FF  lea         eax,[ebp-20Ch]
  100157D5: 50                 push        eax
  100157D6: 8B 45 0C           mov         eax,dword ptr [ebp+0Ch]
  100157D9: 51                 push        ecx
  100157DA: 8D 95 EC FB FF FF  lea         edx,[ebp-414h]
  100157E0: 52                 push        edx
  100157E1: 50                 push        eax
  100157E2: FF D6              call        esi
  100157E4: E9 8E 00 00 00     jmp         10015877
  100157E9: 8B 3D 18 D2 01 10  mov         edi,dword ptr [__imp__WideCharToMultiByte@32]
  100157EF: 6A 00              push        0
  100157F1: 6A 00              push        0
  100157F3: 68 0A 03 00 00     push        30Ah
  100157F8: 8D 8D D4 F5 FF FF  lea         ecx,[ebp-0A2Ch]
  100157FE: 51                 push        ecx
  100157FF: 6A FF              push        0FFFFFFFFh
  10015801: 8D 95 EC FB FF FF  lea         edx,[ebp-414h]
  10015807: 52                 push        edx
  10015808: 6A 00              push        0
  1001580A: 68 E9 FD 00 00     push        0FDE9h
  1001580F: BB 30 AB 01 10     mov         ebx,offset ??_C@_0BB@PFFGGCJP@Unknown?5Filename?$AA@
  10015814: FF D7              call        edi
  10015816: 85 C0              test        eax,eax
  10015818: 74 06              je          10015820
  1001581A: 8D 9D D4 F5 FF FF  lea         ebx,[ebp-0A2Ch]
  10015820: 6A 00              push        0
  10015822: 6A 00              push        0
  10015824: 68 0A 03 00 00     push        30Ah
  10015829: 8D 85 E0 F8 FF FF  lea         eax,[ebp-720h]
  1001582F: 50                 push        eax
  10015830: 6A FF              push        0FFFFFFFFh
  10015832: 8D 8D F4 FD FF FF  lea         ecx,[ebp-20Ch]
  10015838: 51                 push        ecx
  10015839: 6A 00              push        0
  1001583B: 68 E9 FD 00 00     push        0FDE9h
  10015840: BE 18 AB 01 10     mov         esi,offset ??_C@_0BE@GNBOBNCK@Unknown?5Module?5Name?$AA@
  10015845: FF D7              call        edi
  10015847: 85 C0              test        eax,eax
  10015849: 74 06              je          10015851
  1001584B: 8D B5 E0 F8 FF FF  lea         esi,[ebp-720h]
  10015851: 8B 95 C0 F1 FF FF  mov         edx,dword ptr [ebp-0E40h]
  10015857: 8B 85 C8 F1 FF FF  mov         eax,dword ptr [ebp-0E38h]
  1001585D: 8B 8D D0 F1 FF FF  mov         ecx,dword ptr [ebp-0E30h]
  10015863: 52                 push        edx
  10015864: 8B 55 0C           mov         edx,dword ptr [ebp+0Ch]
  10015867: 50                 push        eax
  10015868: 68 F0 AA 01 10     push        offset ??_C@_0CA@IODNCDPG@Run?9Time?5Check?5Failure?5?$CD?$CFd?5?9?5?$CFs?$AA@
  1001586D: 56                 push        esi
  1001586E: 51                 push        ecx
  1001586F: 53                 push        ebx
  10015870: 52                 push        edx
  10015871: FF 95 C4 F1 FF FF  call        dword ptr [ebp-0E3Ch]
  10015877: 83 C4 1C           add         esp,1Ch
  1001587A: 83 F8 01           cmp         eax,1
  1001587D: 75 01              jne         10015880
  1001587F: CC                 int         3
  10015880: 8B 4D FC           mov         ecx,dword ptr [ebp-4]
  10015883: 5F                 pop         edi
  10015884: 5E                 pop         esi
  10015885: 33 CD              xor         ecx,ebp
  10015887: 5B                 pop         ebx
  10015888: E8 87 B7 FF FF     call        @ILT+15(@__security_check_cookie@4)
  1001588D: 8B E5              mov         esp,ebp
  1001588F: 5D                 pop         ebp
  10015890: C3                 ret
  10015891: CC CC CC CC CC CC CC CC CC CC CC CC CC CC CC CC  лллллллллллллллл
  100158A1: CC CC CC CC CC CC CC CC CC CC CC CC CC CC CC CC  лллллллллллллллл
  100158B1: CC CC CC CC CC CC CC CC CC CC CC CC CC CC CC CC  лллллллллллллллл
  100158C1: CC CC CC CC CC CC CC CC CC CC CC CC CC CC CC CC  лллллллллллллллл
  100158D1: CC CC CC CC CC CC CC CC CC CC CC CC CC CC CC CC  лллллллллллллллл
  100158E1: CC CC CC CC CC CC CC CC CC CC CC CC CC CC CC CC  лллллллллллллллл
  100158F1: CC CC CC CC CC CC CC CC CC CC CC CC CC CC CC CC  лллллллллллллллл
  10015901: CC CC CC CC CC CC CC CC CC CC CC CC CC CC CC CC  лллллллллллллллл
  10015911: CC CC CC CC CC CC CC CC CC CC CC CC CC CC CC     ллллллллллллллл
  10015920: 8B FF              mov         edi,edi
  10015922: 55                 push        ebp
  10015923: 8B EC              mov         ebp,esp
  10015925: 6A FE              push        0FFFFFFFEh
  10015927: 68 B8 B9 01 10     push        1001B9B8h
  1001592C: 68 87 10 01 10     push        offset @ILT+130(__except_handler4)
  10015931: 64 A1 00 00 00 00  mov         eax,dword ptr fs:[00000000h]
  10015937: 50                 push        eax
  10015938: 83 EC 24           sub         esp,24h
  1001593B: 53                 push        ebx
  1001593C: 56                 push        esi
  1001593D: 57                 push        edi
  1001593E: A1 00 C0 01 10     mov         eax,dword ptr [___security_cookie]
  10015943: 31 45 F8           xor         dword ptr [ebp-8],eax
  10015946: 33 C5              xor         eax,ebp
  10015948: 50                 push        eax
  10015949: 8D 45 F0           lea         eax,[ebp-10h]
  1001594C: 64 A3 00 00 00 00  mov         dword ptr fs:[00000000h],eax
  10015952: 89 65 E8           mov         dword ptr [ebp-18h],esp
  10015955: 33 C0              xor         eax,eax
  10015957: 88 45 E7           mov         byte ptr [ebp-19h],al
  1001595A: C7 45 CC 01 10 00  mov         dword ptr [ebp-34h],1001h
            00
  10015961: 8B 4D 08           mov         ecx,dword ptr [ebp+8]
  10015964: 89 4D D0           mov         dword ptr [ebp-30h],ecx
  10015967: 8D 55 E7           lea         edx,[ebp-19h]
  1001596A: 89 55 D4           mov         dword ptr [ebp-2Ch],edx
  1001596D: 89 45 FC           mov         dword ptr [ebp-4],eax
  10015970: 8D 4D CC           lea         ecx,[ebp-34h]
  10015973: 51                 push        ecx
  10015974: 6A 06              push        6
  10015976: 50                 push        eax
  10015977: 68 88 13 6D 40     push        406D1388h
  1001597C: FF 15 14 D2 01 10  call        dword ptr [__imp__RaiseException@16]
  10015982: EB 09              jmp         1001598D
  10015984: B8 01 00 00 00     mov         eax,1
  10015989: C3                 ret
  1001598A: 8B 65 E8           mov         esp,dword ptr [ebp-18h]
  1001598D: C7 45 FC FE FF FF  mov         dword ptr [ebp-4],0FFFFFFFEh
            FF
  10015994: 0F B6 45 E7        movzx       eax,byte ptr [ebp-19h]
  10015998: 8B 4D F0           mov         ecx,dword ptr [ebp-10h]
  1001599B: 64 89 0D 00 00 00  mov         dword ptr fs:[0],ecx
            00
  100159A2: 59                 pop         ecx
  100159A3: 5F                 pop         edi
  100159A4: 5E                 pop         esi
  100159A5: 5B                 pop         ebx
  100159A6: 8B E5              mov         esp,ebp
  100159A8: 5D                 pop         ebp
  100159A9: C3                 ret
  100159AA: CC CC CC CC CC CC CC CC CC CC CC CC CC CC CC CC  лллллллллллллллл
  100159BA: CC CC CC CC CC CC CC CC CC CC CC CC CC CC CC CC  лллллллллллллллл
  100159CA: CC CC CC CC CC CC                                лллллл
  100159D0: 8B FF              mov         edi,edi
  100159D2: 55                 push        ebp
  100159D3: 8B EC              mov         ebp,esp
  100159D5: 6A FE              push        0FFFFFFFEh
  100159D7: 68 D8 B9 01 10     push        1001B9D8h
  100159DC: 68 87 10 01 10     push        offset @ILT+130(__except_handler4)
  100159E1: 64 A1 00 00 00 00  mov         eax,dword ptr fs:[00000000h]
  100159E7: 50                 push        eax
  100159E8: 83 EC 24           sub         esp,24h
  100159EB: 53                 push        ebx
  100159EC: 56                 push        esi
  100159ED: 57                 push        edi
  100159EE: A1 00 C0 01 10     mov         eax,dword ptr [___security_cookie]
  100159F3: 31 45 F8           xor         dword ptr [ebp-8],eax
  100159F6: 33 C5              xor         eax,ebp
  100159F8: 50                 push        eax
  100159F9: 8D 45 F0           lea         eax,[ebp-10h]
  100159FC: 64 A3 00 00 00 00  mov         dword ptr fs:[00000000h],eax
  10015A02: 89 65 E8           mov         dword ptr [ebp-18h],esp
  10015A05: 33 C0              xor         eax,eax
  10015A07: 88 45 E7           mov         byte ptr [ebp-19h],al
  10015A0A: C7 45 CC 02 10 00  mov         dword ptr [ebp-34h],1002h
            00
  10015A11: 8B 4D 08           mov         ecx,dword ptr [ebp+8]
  10015A14: 89 4D D0           mov         dword ptr [ebp-30h],ecx
  10015A17: 8B 55 0C           mov         edx,dword ptr [ebp+0Ch]
  10015A1A: 89 55 D4           mov         dword ptr [ebp-2Ch],edx
  10015A1D: 8B 4D 10           mov         ecx,dword ptr [ebp+10h]
  10015A20: 89 4D D8           mov         dword ptr [ebp-28h],ecx
  10015A23: 8D 55 E7           lea         edx,[ebp-19h]
  10015A26: 89 55 DC           mov         dword ptr [ebp-24h],edx
  10015A29: 8B 4D 14           mov         ecx,dword ptr [ebp+14h]
  10015A2C: 89 4D E0           mov         dword ptr [ebp-20h],ecx
  10015A2F: 89 45 FC           mov         dword ptr [ebp-4],eax
  10015A32: 8D 55 CC           lea         edx,[ebp-34h]
  10015A35: 52                 push        edx
  10015A36: 6A 06              push        6
  10015A38: 50                 push        eax
  10015A39: 68 88 13 6D 40     push        406D1388h
  10015A3E: FF 15 14 D2 01 10  call        dword ptr [__imp__RaiseException@16]
  10015A44: EB 09              jmp         10015A4F
  10015A46: B8 01 00 00 00     mov         eax,1
  10015A4B: C3                 ret
  10015A4C: 8B 65 E8           mov         esp,dword ptr [ebp-18h]
  10015A4F: C7 45 FC FE FF FF  mov         dword ptr [ebp-4],0FFFFFFFEh
            FF
  10015A56: 0F B6 45 E7        movzx       eax,byte ptr [ebp-19h]
  10015A5A: 8B 4D F0           mov         ecx,dword ptr [ebp-10h]
  10015A5D: 64 89 0D 00 00 00  mov         dword ptr fs:[0],ecx
            00
  10015A64: 59                 pop         ecx
  10015A65: 5F                 pop         edi
  10015A66: 5E                 pop         esi
  10015A67: 5B                 pop         ebx
  10015A68: 8B E5              mov         esp,ebp
  10015A6A: 5D                 pop         ebp
  10015A6B: C3                 ret
  10015A6C: CC CC CC CC CC CC CC CC CC CC CC CC CC CC CC CC  лллллллллллллллл
  10015A7C: CC CC CC CC CC CC CC CC CC CC CC CC CC CC CC CC  лллллллллллллллл
  10015A8C: CC CC CC CC CC CC CC CC CC CC CC CC CC CC CC CC  лллллллллллллллл
  10015A9C: CC CC CC CC                                      лллл
?_RTC_StackFailure@@YAXPAXPBD@Z:
  10015AA0: 8B FF              mov         edi,edi
  10015AA2: 55                 push        ebp
  10015AA3: 8B EC              mov         ebp,esp
  10015AA5: 81 EC 08 04 00 00  sub         esp,408h
  10015AAB: A1 00 C0 01 10     mov         eax,dword ptr [___security_cookie]
  10015AB0: 33 C5              xor         eax,ebp
  10015AB2: 89 45 FC           mov         dword ptr [ebp-4],eax
  10015AB5: 83 3D 10 C0 01 10  cmp         dword ptr ds:[1001C010h],0FFFFFFFFh
            FF
  10015ABC: 8B 45 08           mov         eax,dword ptr [ebp+8]
  10015ABF: 89 85 F8 FB FF FF  mov         dword ptr [ebp-408h],eax
  10015AC5: 8B 45 0C           mov         eax,dword ptr [ebp+0Ch]
  10015AC8: 0F 84 C0 00 00 00  je          10015B8E
  10015ACE: 80 38 00           cmp         byte ptr [eax],0
  10015AD1: 53                 push        ebx
  10015AD2: 56                 push        esi
  10015AD3: 0F 84 96 00 00 00  je          10015B6F
  10015AD9: 8B C8              mov         ecx,eax
  10015ADB: 8D 71 01           lea         esi,[ecx+1]
  10015ADE: 8B FF              mov         edi,edi
  10015AE0: 8A 11              mov         dl,byte ptr [ecx]
  10015AE2: 41                 inc         ecx
  10015AE3: 84 D2              test        dl,dl
  10015AE5: 75 F9              jne         10015AE0
  10015AE7: 2B CE              sub         ecx,esi
  10015AE9: 83 C1 2D           add         ecx,2Dh
  10015AEC: 81 F9 00 04 00 00  cmp         ecx,400h
  10015AF2: 77 7B              ja          10015B6F
  10015AF4: 8D 9D FC FB FF FF  lea         ebx,[ebp-404h]
  10015AFA: 33 C9              xor         ecx,ecx
  10015AFC: 8D 64 24 00        lea         esp,[esp]
  10015B00: 8A 91 64 AA 01 10  mov         dl,byte ptr [ecx+1001AA64h]
  10015B06: 88 94 0D FC FB FF  mov         byte ptr [ebp+ecx-404h],dl
            FF
  10015B0D: 41                 inc         ecx
  10015B0E: 84 D2              test        dl,dl
  10015B10: 75 EE              jne         10015B00
  10015B12: 8B D0              mov         edx,eax
  10015B14: 8A 08              mov         cl,byte ptr [eax]
  10015B16: 40                 inc         eax
  10015B17: 84 C9              test        cl,cl
  10015B19: 75 F9              jne         10015B14
  10015B1B: 57                 push        edi
  10015B1C: 8D BD FC FB FF FF  lea         edi,[ebp-404h]
  10015B22: 2B C2              sub         eax,edx
  10015B24: 4F                 dec         edi
  10015B25: 8A 4F 01           mov         cl,byte ptr [edi+1]
  10015B28: 47                 inc         edi
  10015B29: 84 C9              test        cl,cl
  10015B2B: 75 F8              jne         10015B25
  10015B2D: 8B C8              mov         ecx,eax
  10015B2F: C1 E9 02           shr         ecx,2
  10015B32: 8B F2              mov         esi,edx
  10015B34: F3 A5              rep movs    dword ptr es:[edi],dword ptr [esi]
  10015B36: 8B C8              mov         ecx,eax
  10015B38: 83 E1 03           and         ecx,3
  10015B3B: B8 80 AA 01 10     mov         eax,1001AA80h
  10015B40: F3 A4              rep movs    byte ptr es:[edi],byte ptr [esi]
  10015B42: 8B C8              mov         ecx,eax
  10015B44: 8A 10              mov         dl,byte ptr [eax]
  10015B46: 40                 inc         eax
  10015B47: 84 D2              test        dl,dl
  10015B49: 75 F9              jne         10015B44
  10015B4B: 8D BD FC FB FF FF  lea         edi,[ebp-404h]
  10015B51: 2B C1              sub         eax,ecx
  10015B53: 8B F1              mov         esi,ecx
  10015B55: 4F                 dec         edi
  10015B56: 8A 4F 01           mov         cl,byte ptr [edi+1]
  10015B59: 47                 inc         edi
  10015B5A: 84 C9              test        cl,cl
  10015B5C: 75 F8              jne         10015B56
  10015B5E: 8B C8              mov         ecx,eax
  10015B60: C1 E9 02           shr         ecx,2
  10015B63: F3 A5              rep movs    dword ptr es:[edi],dword ptr [esi]
  10015B65: 8B C8              mov         ecx,eax
  10015B67: 83 E1 03           and         ecx,3
  10015B6A: F3 A4              rep movs    byte ptr es:[edi],byte ptr [esi]
  10015B6C: 5F                 pop         edi
  10015B6D: EB 05              jmp         10015B74
  10015B6F: BB 1C AC 01 10     mov         ebx,offset ??_C@_0CG@IAFNJNEE@Stack?5corrupted?5near?5unknown?5var@
  10015B74: A1 10 C0 01 10     mov         eax,dword ptr ds:[1001C010h]
  10015B79: 8B 8D F8 FB FF FF  mov         ecx,dword ptr [ebp-408h]
  10015B7F: 53                 push        ebx
  10015B80: 6A 02              push        2
  10015B82: 50                 push        eax
  10015B83: 51                 push        ecx
  10015B84: E8 F7 FA FF FF     call        10015680
  10015B89: 83 C4 10           add         esp,10h
  10015B8C: 5E                 pop         esi
  10015B8D: 5B                 pop         ebx
  10015B8E: 8B 4D FC           mov         ecx,dword ptr [ebp-4]
  10015B91: 33 CD              xor         ecx,ebp
  10015B93: E8 7C B4 FF FF     call        @ILT+15(@__security_check_cookie@4)
  10015B98: 8B E5              mov         esp,ebp
  10015B9A: 5D                 pop         ebp
  10015B9B: C3                 ret
  10015B9C: CC CC CC CC CC CC CC CC CC CC CC CC CC CC CC CC  лллллллллллллллл
  10015BAC: CC CC CC CC CC CC CC CC CC CC CC CC CC CC CC CC  лллллллллллллллл
  10015BBC: CC CC CC CC CC CC CC CC CC CC CC CC CC CC CC CC  лллллллллллллллл
  10015BCC: CC CC CC CC CC CC CC CC CC CC CC CC CC CC CC CC  лллллллллллллллл
  10015BDC: CC CC CC CC                                      лллл
?_RTC_AllocaFailure@@YAXPAXPAU_RTC_ALLOCA_NODE@@H@Z:
  10015BE0: 8B FF              mov         edi,edi
  10015BE2: 55                 push        ebp
  10015BE3: 8B EC              mov         ebp,esp
  10015BE5: 81 EC 44 01 00 00  sub         esp,144h
  10015BEB: A1 00 C0 01 10     mov         eax,dword ptr [___security_cookie]
  10015BF0: 33 C5              xor         eax,ebp
  10015BF2: 89 45 FC           mov         dword ptr [ebp-4],eax
  10015BF5: 53                 push        ebx
  10015BF6: 8B 1D 18 C0 01 10  mov         ebx,dword ptr ds:[1001C018h]
  10015BFC: 56                 push        esi
  10015BFD: 8B 75 0C           mov         esi,dword ptr [ebp+0Ch]
  10015C00: 57                 push        edi
  10015C01: 8B 7D 08           mov         edi,dword ptr [ebp+8]
  10015C04: 89 BD BC FE FF FF  mov         dword ptr [ebp-144h],edi
  10015C0A: 83 FB FF           cmp         ebx,0FFFFFFFFh
  10015C0D: 0F 84 EF 00 00 00  je          10015D02
  10015C13: 68 90 AD 01 10     push        offset ??_C@_1BG@OILDLIOJ@?$AAu?$AAs?$AAe?$AAr?$AA3?$AA2?$AA?4?$AAd?$AAl?$AAl?$AA?$AA@
  10015C18: FF 15 08 D2 01 10  call        dword ptr [__imp__LoadLibraryW@4]
  10015C1E: 85 C0              test        eax,eax
  10015C20: 0F 84 CB 00 00 00  je          10015CF1
  10015C26: 68 84 AD 01 10     push        offset ??_C@_09FOPFMPEJ@wsprintfA?$AA@
  10015C2B: 50                 push        eax
  10015C2C: FF 15 0C D2 01 10  call        dword ptr [__imp__GetProcAddress@8]
  10015C32: A3 FC C4 01 10     mov         dword ptr [?wsprintffp@@3P6AHPADPBDZZA],eax
  10015C37: 85 F6              test        esi,esi
  10015C39: 0F 84 B2 00 00 00  je          10015CF1
  10015C3F: 85 C0              test        eax,eax
  10015C41: 0F 84 AA 00 00 00  je          10015CF1
  10015C47: 8B 4D 10           mov         ecx,dword ptr [ebp+10h]
  10015C4A: 8B 56 0C           mov         edx,dword ptr [esi+0Ch]
  10015C4D: 68 78 AD 01 10     push        offset ??_C@_08OMAHNMHJ@?6Data?3?5?$DM?$AA@
  10015C52: 51                 push        ecx
  10015C53: 68 44 AD 01 10     push        offset ??_C@_0CK@DKGBICFE@?6Allocation?5number?5within?5this?5f@
  10015C58: 83 EA 24           sub         edx,24h
  10015C5B: 52                 push        edx
  10015C5C: 68 38 AD 01 10     push        offset ??_C@_07DFDJCKFN@?6Size?3?5?$AA@
  10015C61: 8D 7E 20           lea         edi,[esi+20h]
  10015C64: 57                 push        edi
  10015C65: 68 28 AD 01 10     push        offset ??_C@_0N@MHFFIMFG@?6Address?3?50x?$AA@
  10015C6A: 68 D0 AC 01 10     push        offset ??_C@_0EI@CLEPFNGI@Stack?5area?5around?5_alloca?5memory@
  10015C6F: 8D 8D C0 FE FF FF  lea         ecx,[ebp-140h]
  10015C75: 68 B8 AC 01 10     push        offset ??_C@_0BC@KIBAILCI@?$CFs?$CFs?$CFp?$CFs?$CFld?$CFs?$CFd?$CFs?$AA@
  10015C7A: 51                 push        ecx
  10015C7B: FF D0              call        eax
  10015C7D: 8B 56 0C           mov         edx,dword ptr [esi+0Ch]
  10015C80: 83 EA 24           sub         edx,24h
  10015C83: 52                 push        edx
  10015C84: 57                 push        edi
  10015C85: 8D 45 B4           lea         eax,[ebp-4Ch]
  10015C88: 50                 push        eax
  10015C89: 8D 4D E8           lea         ecx,[ebp-18h]
  10015C8C: 51                 push        ecx
  10015C8D: E8 CE 00 00 00     call        10015D60
  10015C92: 83 C4 38           add         esp,38h
  10015C95: 68 D4 95 01 10     push        offset ??_C@_01EEMJAFIK@?6?$AA@
  10015C9A: 8D 55 B4           lea         edx,[ebp-4Ch]
  10015C9D: 52                 push        edx
  10015C9E: 68 B4 AC 01 10     push        offset ??_C@_02LLMPMKNF@?$DO?5?$AA@
  10015CA3: 8D 45 E8           lea         eax,[ebp-18h]
  10015CA6: 50                 push        eax
  10015CA7: 68 A8 AC 01 10     push        offset ??_C@_08KJEDNCKC@?$CFs?$CFs?$CFs?$CFs?$AA@
  10015CAC: 8D 8D C0 FE FF FF  lea         ecx,[ebp-140h]
  10015CB2: 51                 push        ecx
  10015CB3: FF 15 10 D2 01 10  call        dword ptr [__imp__lstrlenA@4]
  10015CB9: 8D 94 05 C0 FE FF  lea         edx,[ebp+eax-140h]
            FF
  10015CC0: 52                 push        edx
  10015CC1: FF 15 FC C4 01 10  call        dword ptr [?wsprintffp@@3P6AHPADPBDZZA]
  10015CC7: 8B 8D BC FE FF FF  mov         ecx,dword ptr [ebp-144h]
  10015CCD: 8D 85 C0 FE FF FF  lea         eax,[ebp-140h]
  10015CD3: 50                 push        eax
  10015CD4: 6A 04              push        4
  10015CD6: 53                 push        ebx
  10015CD7: 51                 push        ecx
  10015CD8: E8 A3 F9 FF FF     call        10015680
  10015CDD: 83 C4 28           add         esp,28h
  10015CE0: 5F                 pop         edi
  10015CE1: 5E                 pop         esi
  10015CE2: 5B                 pop         ebx
  10015CE3: 8B 4D FC           mov         ecx,dword ptr [ebp-4]
  10015CE6: 33 CD              xor         ecx,ebp
  10015CE8: E8 27 B3 FF FF     call        @ILT+15(@__security_check_cookie@4)
  10015CED: 8B E5              mov         esp,ebp
  10015CEF: 5D                 pop         ebp
  10015CF0: C3                 ret
  10015CF1: 68 50 AC 01 10     push        offset ??_C@_0EJ@LJKNEOLN@Stack?5area?5around?5_alloca?5memory@
  10015CF6: 6A 04              push        4
  10015CF8: 53                 push        ebx
  10015CF9: 57                 push        edi
  10015CFA: E8 81 F9 FF FF     call        10015680
  10015CFF: 83 C4 10           add         esp,10h
  10015D02: 8B 4D FC           mov         ecx,dword ptr [ebp-4]
  10015D05: 5F                 pop         edi
  10015D06: 5E                 pop         esi
  10015D07: 33 CD              xor         ecx,ebp
  10015D09: 5B                 pop         ebx
  10015D0A: E8 05 B3 FF FF     call        @ILT+15(@__security_check_cookie@4)
  10015D0F: 8B E5              mov         esp,ebp
  10015D11: 5D                 pop         ebp
  10015D12: C3                 ret
  10015D13: CC CC CC CC CC CC CC CC CC CC CC CC CC CC CC CC  лллллллллллллллл
  10015D23: CC CC CC CC CC CC CC CC CC CC CC CC CC CC CC CC  лллллллллллллллл
  10015D33: CC CC CC CC CC CC CC CC CC CC CC CC CC CC CC CC  лллллллллллллллл
  10015D43: CC CC CC CC CC CC CC CC CC CC CC CC CC CC CC CC  лллллллллллллллл
  10015D53: CC CC CC CC CC CC CC CC CC CC CC CC CC           ллллллллллллл
  10015D60: 8B FF              mov         edi,edi
  10015D62: 55                 push        ebp
  10015D63: 8B EC              mov         ebp,esp
  10015D65: 83 EC 08           sub         esp,8
  10015D68: 8B 45 0C           mov         eax,dword ptr [ebp+0Ch]
  10015D6B: 53                 push        ebx
  10015D6C: 56                 push        esi
  10015D6D: 8B 75 08           mov         esi,dword ptr [ebp+8]
  10015D70: 89 45 FC           mov         dword ptr [ebp-4],eax
  10015D73: 8B 45 10           mov         eax,dword ptr [ebp+10h]
  10015D76: 57                 push        edi
  10015D77: 33 FF              xor         edi,edi
  10015D79: 2B C6              sub         eax,esi
  10015D7B: 89 45 F8           mov         dword ptr [ebp-8],eax
  10015D7E: 8B FF              mov         edi,edi
  10015D80: 8B 4D 14           mov         ecx,dword ptr [ebp+14h]
  10015D83: 83 F9 10           cmp         ecx,10h
  10015D86: 72 05              jb          10015D8D
  10015D88: B9 10 00 00 00     mov         ecx,10h
  10015D8D: 3B F9              cmp         edi,ecx
  10015D8F: 73 26              jae         10015DB7
  10015D91: 8A 1C 30           mov         bl,byte ptr [eax+esi]
  10015D94: 8B 55 FC           mov         edx,dword ptr [ebp-4]
  10015D97: 0F B6 CB           movzx       ecx,bl
  10015D9A: 51                 push        ecx
  10015D9B: 68 AC AD 01 10     push        offset ??_C@_05MKKEDADM@?$CF?42X?5?$AA@
  10015DA0: 52                 push        edx
  10015DA1: FF 15 FC C4 01 10  call        dword ptr [?wsprintffp@@3P6AHPADPBDZZA]
  10015DA7: 83 45 FC 03        add         dword ptr [ebp-4],3
  10015DAB: 8B 45 F8           mov         eax,dword ptr [ebp-8]
  10015DAE: 83 C4 0C           add         esp,0Ch
  10015DB1: 88 1E              mov         byte ptr [esi],bl
  10015DB3: 47                 inc         edi
  10015DB4: 46                 inc         esi
  10015DB5: EB C9              jmp         10015D80
  10015DB7: 8B 4D 0C           mov         ecx,dword ptr [ebp+0Ch]
  10015DBA: 8B 45 08           mov         eax,dword ptr [ebp+8]
  10015DBD: 8D 14 79           lea         edx,[ecx+edi*2]
  10015DC0: C6 04 07 00        mov         byte ptr [edi+eax],0
  10015DC4: C6 04 17 00        mov         byte ptr [edi+edx],0
  10015DC8: 5F                 pop         edi
  10015DC9: 5E                 pop         esi
  10015DCA: 5B                 pop         ebx
  10015DCB: 8B E5              mov         esp,ebp
  10015DCD: 5D                 pop         ebp
  10015DCE: C3                 ret
  10015DCF: CC CC CC CC CC CC CC CC CC CC CC CC CC CC CC CC  лллллллллллллллл
  10015DDF: CC CC CC CC CC CC CC CC CC CC CC CC CC CC CC CC  лллллллллллллллл
  10015DEF: CC                                               л
__RTC_UninitUse:
  10015DF0: 8B FF              mov         edi,edi
  10015DF2: 55                 push        ebp
  10015DF3: 8B EC              mov         ebp,esp
  10015DF5: 81 EC 04 04 00 00  sub         esp,404h
  10015DFB: A1 00 C0 01 10     mov         eax,dword ptr [___security_cookie]
  10015E00: 33 C5              xor         eax,ebp
  10015E02: 89 45 FC           mov         dword ptr [ebp-4],eax
  10015E05: 83 3D 14 C0 01 10  cmp         dword ptr ds:[1001C014h],0FFFFFFFFh
            FF
  10015E0C: 8B 45 08           mov         eax,dword ptr [ebp+8]
  10015E0F: 0F 84 B6 00 00 00  je          10015ECB
  10015E15: 53                 push        ebx
  10015E16: 56                 push        esi
  10015E17: 85 C0              test        eax,eax
  10015E19: 0F 84 90 00 00 00  je          10015EAF
  10015E1F: 8B C8              mov         ecx,eax
  10015E21: 8D 71 01           lea         esi,[ecx+1]
  10015E24: 8A 11              mov         dl,byte ptr [ecx]
  10015E26: 41                 inc         ecx
  10015E27: 84 D2              test        dl,dl
  10015E29: 75 F9              jne         10015E24
  10015E2B: 2B CE              sub         ecx,esi
  10015E2D: 83 C1 3A           add         ecx,3Ah
  10015E30: 81 F9 00 04 00 00  cmp         ecx,400h
  10015E36: 77 77              ja          10015EAF
  10015E38: 8D 9D FC FB FF FF  lea         ebx,[ebp-404h]
  10015E3E: 33 C9              xor         ecx,ecx
  10015E40: 8A 91 94 AA 01 10  mov         dl,byte ptr [ecx+1001AA94h]
  10015E46: 88 94 0D FC FB FF  mov         byte ptr [ebp+ecx-404h],dl
            FF
  10015E4D: 41                 inc         ecx
  10015E4E: 84 D2              test        dl,dl
  10015E50: 75 EE              jne         10015E40
  10015E52: 8B D0              mov         edx,eax
  10015E54: 8A 08              mov         cl,byte ptr [eax]
  10015E56: 40                 inc         eax
  10015E57: 84 C9              test        cl,cl
  10015E59: 75 F9              jne         10015E54
  10015E5B: 57                 push        edi
  10015E5C: 8D BD FC FB FF FF  lea         edi,[ebp-404h]
  10015E62: 2B C2              sub         eax,edx
  10015E64: 4F                 dec         edi
  10015E65: 8A 4F 01           mov         cl,byte ptr [edi+1]
  10015E68: 47                 inc         edi
  10015E69: 84 C9              test        cl,cl
  10015E6B: 75 F8              jne         10015E65
  10015E6D: 8B C8              mov         ecx,eax
  10015E6F: C1 E9 02           shr         ecx,2
  10015E72: 8B F2              mov         esi,edx
  10015E74: F3 A5              rep movs    dword ptr es:[edi],dword ptr [esi]
  10015E76: 8B C8              mov         ecx,eax
  10015E78: 83 E1 03           and         ecx,3
  10015E7B: B8 A4 AA 01 10     mov         eax,1001AAA4h
  10015E80: F3 A4              rep movs    byte ptr es:[edi],byte ptr [esi]
  10015E82: 8B C8              mov         ecx,eax
  10015E84: 8A 10              mov         dl,byte ptr [eax]
  10015E86: 40                 inc         eax
  10015E87: 84 D2              test        dl,dl
  10015E89: 75 F9              jne         10015E84
  10015E8B: 8D BD FC FB FF FF  lea         edi,[ebp-404h]
  10015E91: 2B C1              sub         eax,ecx
  10015E93: 8B F1              mov         esi,ecx
  10015E95: 4F                 dec         edi
  10015E96: 8A 4F 01           mov         cl,byte ptr [edi+1]
  10015E99: 47                 inc         edi
  10015E9A: 84 C9              test        cl,cl
  10015E9C: 75 F8              jne         10015E96
  10015E9E: 8B C8              mov         ecx,eax
  10015EA0: C1 E9 02           shr         ecx,2
  10015EA3: F3 A5              rep movs    dword ptr es:[edi],dword ptr [esi]
  10015EA5: 8B C8              mov         ecx,eax
  10015EA7: 83 E1 03           and         ecx,3
  10015EAA: F3 A4              rep movs    byte ptr es:[edi],byte ptr [esi]
  10015EAC: 5F                 pop         edi
  10015EAD: EB 05              jmp         10015EB4
  10015EAF: BB B4 AD 01 10     mov         ebx,offset ??_C@_0DE@OHJBPMBP@A?5variable?5is?5being?5used?5without@
  10015EB4: A1 14 C0 01 10     mov         eax,dword ptr ds:[1001C014h]
  10015EB9: 53                 push        ebx
  10015EBA: 6A 03              push        3
  10015EBC: 50                 push        eax
  10015EBD: 8B 45 04           mov         eax,dword ptr [ebp+4]
  10015EC0: 50                 push        eax
  10015EC1: E8 BA F7 FF FF     call        10015680
  10015EC6: 83 C4 10           add         esp,10h
  10015EC9: 5E                 pop         esi
  10015ECA: 5B                 pop         ebx
  10015ECB: 8B 4D FC           mov         ecx,dword ptr [ebp-4]
  10015ECE: 33 CD              xor         ecx,ebp
  10015ED0: E8 3F B1 FF FF     call        @ILT+15(@__security_check_cookie@4)
  10015ED5: 8B E5              mov         esp,ebp
  10015ED7: 5D                 pop         ebp
  10015ED8: C3                 ret
  10015ED9: CC CC CC CC CC CC CC CC CC CC CC CC CC CC CC CC  лллллллллллллллл
  10015EE9: CC CC CC CC CC CC CC CC CC CC CC CC CC CC CC CC  лллллллллллллллл
  10015EF9: CC CC CC CC CC CC CC CC CC CC CC CC CC CC CC CC  лллллллллллллллл
  10015F09: CC CC CC CC CC CC CC CC CC CC CC CC CC CC CC CC  лллллллллллллллл
  10015F19: CC CC CC CC CC CC CC                             ллллллл
__RTC_NumErrors:
  10015F20: B8 05 00 00 00     mov         eax,5
  10015F25: C3                 ret
  10015F26: CC CC CC CC CC CC CC CC CC CC                    лллллллллл
__RTC_GetErrDesc:
  10015F30: 8B FF              mov         edi,edi
  10015F32: 55                 push        ebp
  10015F33: 8B EC              mov         ebp,esp
  10015F35: 8B 45 08           mov         eax,dword ptr [ebp+8]
  10015F38: 83 F8 04           cmp         eax,4
  10015F3B: 77 09              ja          10015F46
  10015F3D: 8B 04 85 C0 AE 01  mov         eax,dword ptr [eax*4+1001AEC0h]
            10
  10015F44: 5D                 pop         ebp
  10015F45: C3                 ret
  10015F46: 33 C0              xor         eax,eax
  10015F48: 5D                 pop         ebp
  10015F49: C3                 ret
  10015F4A: CC CC CC CC CC CC                                лллллл
__RTC_SetErrorType:
  10015F50: 8B FF              mov         edi,edi
  10015F52: 55                 push        ebp
  10015F53: 8B EC              mov         ebp,esp
  10015F55: 8B 4D 08           mov         ecx,dword ptr [ebp+8]
  10015F58: 83 F9 04           cmp         ecx,4
  10015F5B: 77 13              ja          10015F70
  10015F5D: 8B 55 0C           mov         edx,dword ptr [ebp+0Ch]
  10015F60: 8B 04 8D 08 C0 01  mov         eax,dword ptr ?_RTC_ErrorLevels@@3PAHA[ecx*4]
            10
  10015F67: 89 14 8D 08 C0 01  mov         dword ptr ?_RTC_ErrorLevels@@3PAHA[ecx*4],edx
            10
  10015F6E: 5D                 pop         ebp
  10015F6F: C3                 ret
  10015F70: 83 C8 FF           or          eax,0FFFFFFFFh
  10015F73: 5D                 pop         ebp
  10015F74: C3                 ret
  10015F75: CC CC CC CC CC CC CC CC CC CC CC                 ллллллллллл
__RTC_SetErrorFunc:
  10015F80: 8B FF              mov         edi,edi
  10015F82: 55                 push        ebp
  10015F83: 8B EC              mov         ebp,esp
  10015F85: 8B 4D 08           mov         ecx,dword ptr [ebp+8]
  10015F88: A1 00 C5 01 10     mov         eax,dword ptr ds:[1001C500h]
  10015F8D: 89 0D 00 C5 01 10  mov         dword ptr ds:[1001C500h],ecx
  10015F93: C7 05 04 C5 01 10  mov         dword ptr ds:[1001C504h],0
            00 00 00 00
  10015F9D: 5D                 pop         ebp
  10015F9E: C3                 ret
  10015F9F: CC CC CC CC CC CC CC CC CC CC CC CC CC CC CC CC  лллллллллллллллл
  10015FAF: CC                                               л
__RTC_SetErrorFuncW:
  10015FB0: 8B FF              mov         edi,edi
  10015FB2: 55                 push        ebp
  10015FB3: 8B EC              mov         ebp,esp
  10015FB5: 8B 4D 08           mov         ecx,dword ptr [ebp+8]
  10015FB8: A1 04 C5 01 10     mov         eax,dword ptr ds:[1001C504h]
  10015FBD: 89 0D 04 C5 01 10  mov         dword ptr ds:[1001C504h],ecx
  10015FC3: C7 05 00 C5 01 10  mov         dword ptr ds:[1001C500h],0
            00 00 00 00
  10015FCD: 5D                 pop         ebp
  10015FCE: C3                 ret
  10015FCF: CC CC CC CC CC CC CC CC CC CC CC CC CC CC CC CC  лллллллллллллллл
  10015FDF: CC                                               л
?_RTC_GetErrorFunc@@YAP6AHHPBDH00ZZPBX@Z:
  10015FE0: A1 00 C5 01 10     mov         eax,dword ptr ds:[1001C500h]
  10015FE5: C3                 ret
  10015FE6: CC CC CC CC CC CC CC CC CC CC                    лллллллллл
?_RTC_GetErrorFuncW@@YAP6AHHPB_WH00ZZPBX@Z:
  10015FF0: A1 04 C5 01 10     mov         eax,dword ptr ds:[1001C504h]
  10015FF5: C3                 ret
__CRT_RTC_INITW:
  10015FF6: FF 25 D4 D2 01 10  jmp         dword ptr [__imp___CRT_RTC_INITW]
  10015FFC: CC CC CC CC                                      лллл
___clean_type_info_names:
  10016000: 8B FF              mov         edi,edi
  10016002: 55                 push        ebp
  10016003: 8B EC              mov         ebp,esp
  10016005: 68 0C C5 01 10     push        offset ?__type_info_root_node@@3U__type_info_node@@A
  1001600A: E8 5A B0 FF FF     call        @ILT+100(___clean_type_info_names_internal)
  1001600F: 83 C4 04           add         esp,4
  10016012: 5D                 pop         ebp
  10016013: C3                 ret
  10016014: CC CC CC CC CC CC CC CC CC CC CC CC              лллллллллллл
__onexit:
  10016020: 8B FF              mov         edi,edi
  10016022: 55                 push        ebp
  10016023: 8B EC              mov         ebp,esp
  10016025: 6A FE              push        0FFFFFFFEh
  10016027: 68 F8 B9 01 10     push        1001B9F8h
  1001602C: 68 87 10 01 10     push        offset @ILT+130(__except_handler4)
  10016031: 64 A1 00 00 00 00  mov         eax,dword ptr fs:[00000000h]
  10016037: 50                 push        eax
  10016038: 83 C4 EC           add         esp,0FFFFFFECh
  1001603B: 53                 push        ebx
  1001603C: 56                 push        esi
  1001603D: 57                 push        edi
  1001603E: A1 00 C0 01 10     mov         eax,dword ptr [___security_cookie]
  10016043: 31 45 F8           xor         dword ptr [ebp-8],eax
  10016046: 33 C5              xor         eax,ebp
  10016048: 50                 push        eax
  10016049: 8D 45 F0           lea         eax,[ebp-10h]
  1001604C: 64 A3 00 00 00 00  mov         dword ptr fs:[00000000h],eax
  10016052: A1 44 C5 01 10     mov         eax,dword ptr [___onexitbegin]
  10016057: 50                 push        eax
  10016058: FF 15 44 D2 01 10  call        dword ptr [__imp__DecodePointer@4]
  1001605E: 89 45 E4           mov         dword ptr [ebp-1Ch],eax
  10016061: 83 7D E4 FF        cmp         dword ptr [ebp-1Ch],0FFFFFFFFh
  10016065: 75 12              jne         10016079
  10016067: 8B 4D 08           mov         ecx,dword ptr [ebp+8]
  1001606A: 51                 push        ecx
  1001606B: FF 15 9C D2 01 10  call        dword ptr [__imp___onexit]
  10016071: 83 C4 04           add         esp,4
  10016074: E9 88 00 00 00     jmp         10016101
  10016079: 6A 08              push        8
  1001607B: E8 0C B0 FF FF     call        @ILT+135(__lock)
  10016080: 83 C4 04           add         esp,4
  10016083: C7 45 FC 00 00 00  mov         dword ptr [ebp-4],0
            00
  1001608A: 8B 15 44 C5 01 10  mov         edx,dword ptr [___onexitbegin]
  10016090: 52                 push        edx
  10016091: FF 15 44 D2 01 10  call        dword ptr [__imp__DecodePointer@4]
  10016097: 89 45 E4           mov         dword ptr [ebp-1Ch],eax
  1001609A: A1 34 C5 01 10     mov         eax,dword ptr [___onexitend]
  1001609F: 50                 push        eax
  100160A0: FF 15 44 D2 01 10  call        dword ptr [__imp__DecodePointer@4]
  100160A6: 89 45 DC           mov         dword ptr [ebp-24h],eax
  100160A9: 8D 4D DC           lea         ecx,[ebp-24h]
  100160AC: 51                 push        ecx
  100160AD: 8D 55 E4           lea         edx,[ebp-1Ch]
  100160B0: 52                 push        edx
  100160B1: 8B 45 08           mov         eax,dword ptr [ebp+8]
  100160B4: 50                 push        eax
  100160B5: FF 15 40 D2 01 10  call        dword ptr [__imp__EncodePointer@4]
  100160BB: 50                 push        eax
  100160BC: E8 06 B1 FF FF     call        @ILT+450(___dllonexit)
  100160C1: 83 C4 0C           add         esp,0Ch
  100160C4: 89 45 E0           mov         dword ptr [ebp-20h],eax
  100160C7: 8B 4D E4           mov         ecx,dword ptr [ebp-1Ch]
  100160CA: 51                 push        ecx
  100160CB: FF 15 40 D2 01 10  call        dword ptr [__imp__EncodePointer@4]
  100160D1: A3 44 C5 01 10     mov         dword ptr [___onexitbegin],eax
  100160D6: 8B 55 DC           mov         edx,dword ptr [ebp-24h]
  100160D9: 52                 push        edx
  100160DA: FF 15 40 D2 01 10  call        dword ptr [__imp__EncodePointer@4]
  100160E0: A3 34 C5 01 10     mov         dword ptr [___onexitend],eax
  100160E5: C7 45 FC FE FF FF  mov         dword ptr [ebp-4],0FFFFFFFEh
            FF
  100160EC: E8 02 00 00 00     call        100160F3
  100160F1: EB 0B              jmp         100160FE
  100160F3: 6A 08              push        8
  100160F5: E8 32 B0 FF FF     call        @ILT+295(__unlock)
  100160FA: 83 C4 04           add         esp,4
  100160FD: C3                 ret
  100160FE: 8B 45 E0           mov         eax,dword ptr [ebp-20h]
  10016101: 8B 4D F0           mov         ecx,dword ptr [ebp-10h]
  10016104: 64 89 0D 00 00 00  mov         dword ptr fs:[0],ecx
            00
  1001610B: 59                 pop         ecx
  1001610C: 5F                 pop         edi
  1001610D: 5E                 pop         esi
  1001610E: 5B                 pop         ebx
  1001610F: 8B E5              mov         esp,ebp
  10016111: 5D                 pop         ebp
  10016112: C3                 ret
  10016113: CC CC CC CC CC CC CC CC CC CC CC CC CC CC CC CC  лллллллллллллллл
  10016123: CC CC CC CC CC CC CC CC CC CC CC CC CC CC CC CC  лллллллллллллллл
  10016133: CC CC CC CC CC CC CC CC CC CC CC CC CC CC CC CC  лллллллллллллллл
  10016143: CC CC CC CC CC CC CC CC CC CC CC CC CC           ллллллллллллл
_atexit:
  10016150: 8B FF              mov         edi,edi
  10016152: 55                 push        ebp
  10016153: 8B EC              mov         ebp,esp
  10016155: 8B 45 08           mov         eax,dword ptr [ebp+8]
  10016158: 50                 push        eax
  10016159: E8 AB AF FF FF     call        @ILT+260(__onexit)
  1001615E: 83 C4 04           add         esp,4
  10016161: F7 D8              neg         eax
  10016163: 1B C0              sbb         eax,eax
  10016165: F7 D8              neg         eax
  10016167: 83 E8 01           sub         eax,1
  1001616A: 5D                 pop         ebp
  1001616B: C3                 ret
  1001616C: CC CC CC CC CC CC CC CC CC CC CC CC CC CC CC CC  лллллллллллллллл
  1001617C: CC CC CC CC                                      лллл
__RTC_Initialize:
  10016180: 8B FF              mov         edi,edi
  10016182: 56                 push        esi
  10016183: BE 70 B3 01 10     mov         esi,1001B370h
  10016188: 8B C6              mov         eax,esi
  1001618A: 3D 74 B5 01 10     cmp         eax,offset ___rtc_izz
  1001618F: 73 13              jae         100161A4
  10016191: 8B 06              mov         eax,dword ptr [esi]
  10016193: 85 C0              test        eax,eax
  10016195: 74 02              je          10016199
  10016197: FF D0              call        eax
  10016199: 83 C6 04           add         esi,4
  1001619C: 81 FE 74 B5 01 10  cmp         esi,offset ___rtc_izz
  100161A2: 72 ED              jb          10016191
  100161A4: 5E                 pop         esi
  100161A5: C3                 ret
  100161A6: CC CC CC CC CC CC CC CC CC CC                    лллллллллл
__RTC_Terminate:
  100161B0: 8B FF              mov         edi,edi
  100161B2: 56                 push        esi
  100161B3: BE 7C B6 01 10     mov         esi,1001B67Ch
  100161B8: 8B C6              mov         eax,esi
  100161BA: 3D 80 B8 01 10     cmp         eax,offset ___rtc_tzz
  100161BF: 73 13              jae         100161D4
  100161C1: 8B 06              mov         eax,dword ptr [esi]
  100161C3: 85 C0              test        eax,eax
  100161C5: 74 02              je          100161C9
  100161C7: FF D0              call        eax
  100161C9: 83 C6 04           add         esi,4
  100161CC: 81 FE 80 B8 01 10  cmp         esi,offset ___rtc_tzz
  100161D2: 72 ED              jb          100161C1
  100161D4: 5E                 pop         esi
  100161D5: C3                 ret
  100161D6: CC CC CC CC CC CC CC CC CC CC                    лллллллллл
__malloc_dbg:
  100161E0: FF 25 D0 D2 01 10  jmp         dword ptr [__imp___malloc_dbg]
__free_dbg:
  100161E6: FF 25 CC D2 01 10  jmp         dword ptr [__imp___free_dbg]
__encoded_null:
  100161EC: FF 25 C8 D2 01 10  jmp         dword ptr [__imp___encoded_null]
__CrtSetCheckCount:
  100161F2: FF 25 C4 D2 01 10  jmp         dword ptr [__imp___CrtSetCheckCount]
  100161F8: CC CC CC CC CC CC CC CC                          лллллллл
__ValidateImageBase:
  10016200: 8B FF              mov         edi,edi
  10016202: 55                 push        ebp
  10016203: 8B EC              mov         ebp,esp
  10016205: 83 EC 0C           sub         esp,0Ch
  10016208: 8B 45 08           mov         eax,dword ptr [ebp+8]
  1001620B: 89 45 F8           mov         dword ptr [ebp-8],eax
  1001620E: 8B 4D F8           mov         ecx,dword ptr [ebp-8]
  10016211: 0F B7 11           movzx       edx,word ptr [ecx]
  10016214: 81 FA 4D 5A 00 00  cmp         edx,5A4Dh
  1001621A: 74 04              je          10016220
  1001621C: 33 C0              xor         eax,eax
  1001621E: EB 3B              jmp         1001625B
  10016220: 8B 45 F8           mov         eax,dword ptr [ebp-8]
  10016223: 8B 4D F8           mov         ecx,dword ptr [ebp-8]
  10016226: 03 48 3C           add         ecx,dword ptr [eax+3Ch]
  10016229: 89 4D F4           mov         dword ptr [ebp-0Ch],ecx
  1001622C: 8B 55 F4           mov         edx,dword ptr [ebp-0Ch]
  1001622F: 81 3A 50 45 00 00  cmp         dword ptr [edx],4550h
  10016235: 74 04              je          1001623B
  10016237: 33 C0              xor         eax,eax
  10016239: EB 20              jmp         1001625B
  1001623B: 8B 45 F4           mov         eax,dword ptr [ebp-0Ch]
  1001623E: 83 C0 18           add         eax,18h
  10016241: 89 45 FC           mov         dword ptr [ebp-4],eax
  10016244: 8B 4D FC           mov         ecx,dword ptr [ebp-4]
  10016247: 0F B7 11           movzx       edx,word ptr [ecx]
  1001624A: 81 FA 0B 01 00 00  cmp         edx,10Bh
  10016250: 74 04              je          10016256
  10016252: 33 C0              xor         eax,eax
  10016254: EB 05              jmp         1001625B
  10016256: B8 01 00 00 00     mov         eax,1
  1001625B: 8B E5              mov         esp,ebp
  1001625D: 5D                 pop         ebp
  1001625E: C3                 ret
  1001625F: CC CC CC CC CC CC CC CC CC CC CC CC CC CC CC CC  лллллллллллллллл
  1001626F: CC CC CC CC CC CC CC CC CC CC CC CC CC CC CC CC  лллллллллллллллл
  1001627F: CC                                               л
__FindPESection:
  10016280: 8B FF              mov         edi,edi
  10016282: 55                 push        ebp
  10016283: 8B EC              mov         ebp,esp
  10016285: 83 EC 0C           sub         esp,0Ch
  10016288: 8B 45 08           mov         eax,dword ptr [ebp+8]
  1001628B: 8B 4D 08           mov         ecx,dword ptr [ebp+8]
  1001628E: 03 48 3C           add         ecx,dword ptr [eax+3Ch]
  10016291: 89 4D FC           mov         dword ptr [ebp-4],ecx
  10016294: C7 45 F8 00 00 00  mov         dword ptr [ebp-8],0
            00
  1001629B: 8B 55 FC           mov         edx,dword ptr [ebp-4]
  1001629E: 0F B7 42 14        movzx       eax,word ptr [edx+14h]
  100162A2: 8B 4D FC           mov         ecx,dword ptr [ebp-4]
  100162A5: 8D 54 01 18        lea         edx,[ecx+eax+18h]
  100162A9: 89 55 F4           mov         dword ptr [ebp-0Ch],edx
  100162AC: EB 12              jmp         100162C0
  100162AE: 8B 45 F8           mov         eax,dword ptr [ebp-8]
  100162B1: 83 C0 01           add         eax,1
  100162B4: 89 45 F8           mov         dword ptr [ebp-8],eax
  100162B7: 8B 4D F4           mov         ecx,dword ptr [ebp-0Ch]
  100162BA: 83 C1 28           add         ecx,28h
  100162BD: 89 4D F4           mov         dword ptr [ebp-0Ch],ecx
  100162C0: 8B 55 FC           mov         edx,dword ptr [ebp-4]
  100162C3: 0F B7 42 06        movzx       eax,word ptr [edx+6]
  100162C7: 39 45 F8           cmp         dword ptr [ebp-8],eax
  100162CA: 73 23              jae         100162EF
  100162CC: 8B 4D F4           mov         ecx,dword ptr [ebp-0Ch]
  100162CF: 8B 55 0C           mov         edx,dword ptr [ebp+0Ch]
  100162D2: 3B 51 0C           cmp         edx,dword ptr [ecx+0Ch]
  100162D5: 72 16              jb          100162ED
  100162D7: 8B 45 F4           mov         eax,dword ptr [ebp-0Ch]
  100162DA: 8B 48 0C           mov         ecx,dword ptr [eax+0Ch]
  100162DD: 8B 55 F4           mov         edx,dword ptr [ebp-0Ch]
  100162E0: 03 4A 08           add         ecx,dword ptr [edx+8]
  100162E3: 39 4D 0C           cmp         dword ptr [ebp+0Ch],ecx
  100162E6: 73 05              jae         100162ED
  100162E8: 8B 45 F4           mov         eax,dword ptr [ebp-0Ch]
  100162EB: EB 04              jmp         100162F1
  100162ED: EB BF              jmp         100162AE
  100162EF: 33 C0              xor         eax,eax
  100162F1: 8B E5              mov         esp,ebp
  100162F3: 5D                 pop         ebp
  100162F4: C3                 ret
  100162F5: CC CC CC CC CC CC CC CC CC CC CC CC CC CC CC CC  лллллллллллллллл
  10016305: CC CC CC CC CC CC CC CC CC CC CC CC CC CC CC CC  лллллллллллллллл
  10016315: CC CC CC CC CC CC CC CC CC CC CC                 ллллллллллл
__IsNonwritableInCurrentImage:
  10016320: 8B FF              mov         edi,edi
  10016322: 55                 push        ebp
  10016323: 8B EC              mov         ebp,esp
  10016325: 6A FE              push        0FFFFFFFEh
  10016327: 68 18 BA 01 10     push        1001BA18h
  1001632C: 68 87 10 01 10     push        offset @ILT+130(__except_handler4)
  10016331: 64 A1 00 00 00 00  mov         eax,dword ptr fs:[00000000h]
  10016337: 50                 push        eax
  10016338: 83 C4 D8           add         esp,0FFFFFFD8h
  1001633B: 53                 push        ebx
  1001633C: 56                 push        esi
  1001633D: 57                 push        edi
  1001633E: A1 00 C0 01 10     mov         eax,dword ptr [___security_cookie]
  10016343: 31 45 F8           xor         dword ptr [ebp-8],eax
  10016346: 33 C5              xor         eax,ebp
  10016348: 50                 push        eax
  10016349: 8D 45 F0           lea         eax,[ebp-10h]
  1001634C: 64 A3 00 00 00 00  mov         dword ptr fs:[00000000h],eax
  10016352: 89 65 E8           mov         dword ptr [ebp-18h],esp
  10016355: C7 45 E4 00 00 00  mov         dword ptr [ebp-1Ch],10000000h
            10
  1001635C: C7 45 FC 00 00 00  mov         dword ptr [ebp-4],0
            00
  10016363: 8B 45 E4           mov         eax,dword ptr [ebp-1Ch]
  10016366: 50                 push        eax
  10016367: E8 7A AD FF FF     call        @ILT+225(__ValidateImageBase)
  1001636C: 83 C4 04           add         esp,4
  1001636F: 85 C0              test        eax,eax
  10016371: 75 16              jne         10016389
  10016373: C7 45 D4 00 00 00  mov         dword ptr [ebp-2Ch],0
            00
  1001637A: C7 45 FC FE FF FF  mov         dword ptr [ebp-4],0FFFFFFFEh
            FF
  10016381: 8B 45 D4           mov         eax,dword ptr [ebp-2Ch]
  10016384: E9 97 00 00 00     jmp         10016420
  10016389: 8B 4D 08           mov         ecx,dword ptr [ebp+8]
  1001638C: 2B 4D E4           sub         ecx,dword ptr [ebp-1Ch]
  1001638F: 89 4D DC           mov         dword ptr [ebp-24h],ecx
  10016392: 8B 55 DC           mov         edx,dword ptr [ebp-24h]
  10016395: 52                 push        edx
  10016396: 8B 45 E4           mov         eax,dword ptr [ebp-1Ch]
  10016399: 50                 push        eax
  1001639A: E8 24 AD FF FF     call        @ILT+190(__FindPESection)
  1001639F: 83 C4 08           add         esp,8
  100163A2: 89 45 E0           mov         dword ptr [ebp-20h],eax
  100163A5: 83 7D E0 00        cmp         dword ptr [ebp-20h],0
  100163A9: 75 13              jne         100163BE
  100163AB: C7 45 D0 00 00 00  mov         dword ptr [ebp-30h],0
            00
  100163B2: C7 45 FC FE FF FF  mov         dword ptr [ebp-4],0FFFFFFFEh
            FF
  100163B9: 8B 45 D0           mov         eax,dword ptr [ebp-30h]
  100163BC: EB 62              jmp         10016420
  100163BE: 8B 4D E0           mov         ecx,dword ptr [ebp-20h]
  100163C1: 8B 51 24           mov         edx,dword ptr [ecx+24h]
  100163C4: 81 E2 00 00 00 80  and         edx,80000000h
  100163CA: F7 DA              neg         edx
  100163CC: 1B D2              sbb         edx,edx
  100163CE: 83 C2 01           add         edx,1
  100163D1: 89 55 CC           mov         dword ptr [ebp-34h],edx
  100163D4: C7 45 FC FE FF FF  mov         dword ptr [ebp-4],0FFFFFFFEh
            FF
  100163DB: 8B 45 CC           mov         eax,dword ptr [ebp-34h]
  100163DE: EB 40              jmp         10016420
  100163E0: C7 45 FC FE FF FF  mov         dword ptr [ebp-4],0FFFFFFFEh
            FF
  100163E7: EB 37              jmp         10016420
  100163E9: 8B 45 EC           mov         eax,dword ptr [ebp-14h]
  100163EC: 8B 08              mov         ecx,dword ptr [eax]
  100163EE: 8B 11              mov         edx,dword ptr [ecx]
  100163F0: 89 55 D8           mov         dword ptr [ebp-28h],edx
  100163F3: 8B 45 D8           mov         eax,dword ptr [ebp-28h]
  100163F6: 33 C9              xor         ecx,ecx
  100163F8: 3D 05 00 00 C0     cmp         eax,0C0000005h
  100163FD: 0F 94 C1           sete        cl
  10016400: 8B C1              mov         eax,ecx
  10016402: C3                 ret
  10016403: 8B 65 E8           mov         esp,dword ptr [ebp-18h]
  10016406: C7 45 C8 00 00 00  mov         dword ptr [ebp-38h],0
            00
  1001640D: C7 45 FC FE FF FF  mov         dword ptr [ebp-4],0FFFFFFFEh
            FF
  10016414: 8B 45 C8           mov         eax,dword ptr [ebp-38h]
  10016417: EB 07              jmp         10016420
  10016419: C7 45 FC FE FF FF  mov         dword ptr [ebp-4],0FFFFFFFEh
            FF
  10016420: 8B 4D F0           mov         ecx,dword ptr [ebp-10h]
  10016423: 64 89 0D 00 00 00  mov         dword ptr fs:[0],ecx
            00
  1001642A: 59                 pop         ecx
  1001642B: 5F                 pop         edi
  1001642C: 5E                 pop         esi
  1001642D: 5B                 pop         ebx
  1001642E: 8B E5              mov         esp,ebp
  10016430: 5D                 pop         ebp
  10016431: C3                 ret
  10016432: CC CC CC CC CC CC CC CC CC CC CC CC CC CC CC CC  лллллллллллллллл
  10016442: CC CC CC CC CC CC CC CC CC CC CC CC CC CC CC CC  лллллллллллллллл
  10016452: CC CC CC CC CC CC CC CC CC CC CC CC CC CC CC CC  лллллллллллллллл
  10016462: CC CC CC CC CC CC CC CC CC CC CC CC CC CC CC CC  лллллллллллллллл
  10016472: CC CC CC CC                                      лллл
__initterm:
  10016476: FF 25 C0 D2 01 10  jmp         dword ptr [__imp___initterm]
__initterm_e:
  1001647C: FF 25 BC D2 01 10  jmp         dword ptr [__imp___initterm_e]
__amsg_exit:
  10016482: FF 25 B8 D2 01 10  jmp         dword ptr [__imp___amsg_exit]
  10016488: CC CC CC CC CC CC CC CC                          лллллллл
___security_init_cookie:
  10016490: 8B FF              mov         edi,edi
  10016492: 55                 push        ebp
  10016493: 8B EC              mov         ebp,esp
  10016495: 83 EC 18           sub         esp,18h
  10016498: C7 45 F8 00 00 00  mov         dword ptr [ebp-8],0
            00
  1001649F: C7 45 FC 00 00 00  mov         dword ptr [ebp-4],0
            00
  100164A6: 81 3D 00 C0 01 10  cmp         dword ptr [___security_cookie],0BB40E64Eh
            4E E6 40 BB
  100164B0: 74 1F              je          100164D1
  100164B2: A1 00 C0 01 10     mov         eax,dword ptr [___security_cookie]
  100164B7: 25 00 00 FF FF     and         eax,0FFFF0000h
  100164BC: 74 13              je          100164D1
  100164BE: 8B 0D 00 C0 01 10  mov         ecx,dword ptr [___security_cookie]
  100164C4: F7 D1              not         ecx
  100164C6: 89 0D 04 C0 01 10  mov         dword ptr [___security_cookie_complement],ecx
  100164CC: E9 9B 00 00 00     jmp         1001656C
  100164D1: 8D 55 F8           lea         edx,[ebp-8]
  100164D4: 52                 push        edx
  100164D5: FF 15 F4 D1 01 10  call        dword ptr [__imp__GetSystemTimeAsFileTime@4]
  100164DB: 8B 45 F8           mov         eax,dword ptr [ebp-8]
  100164DE: 89 45 F4           mov         dword ptr [ebp-0Ch],eax
  100164E1: 8B 4D F4           mov         ecx,dword ptr [ebp-0Ch]
  100164E4: 33 4D FC           xor         ecx,dword ptr [ebp-4]
  100164E7: 89 4D F4           mov         dword ptr [ebp-0Ch],ecx
  100164EA: FF 15 F8 D1 01 10  call        dword ptr [__imp__GetCurrentProcessId@0]
  100164F0: 33 45 F4           xor         eax,dword ptr [ebp-0Ch]
  100164F3: 89 45 F4           mov         dword ptr [ebp-0Ch],eax
  100164F6: FF 15 FC D1 01 10  call        dword ptr [__imp__GetCurrentThreadId@0]
  100164FC: 33 45 F4           xor         eax,dword ptr [ebp-0Ch]
  100164FF: 89 45 F4           mov         dword ptr [ebp-0Ch],eax
  10016502: FF 15 00 D2 01 10  call        dword ptr [__imp__GetTickCount@0]
  10016508: 33 45 F4           xor         eax,dword ptr [ebp-0Ch]
  1001650B: 89 45 F4           mov         dword ptr [ebp-0Ch],eax
  1001650E: 8D 55 E8           lea         edx,[ebp-18h]
  10016511: 52                 push        edx
  10016512: FF 15 04 D2 01 10  call        dword ptr [__imp__QueryPerformanceCounter@4]
  10016518: 8B 45 F4           mov         eax,dword ptr [ebp-0Ch]
  1001651B: 33 45 E8           xor         eax,dword ptr [ebp-18h]
  1001651E: 89 45 F4           mov         dword ptr [ebp-0Ch],eax
  10016521: 8B 4D F4           mov         ecx,dword ptr [ebp-0Ch]
  10016524: 33 4D EC           xor         ecx,dword ptr [ebp-14h]
  10016527: 89 4D F4           mov         dword ptr [ebp-0Ch],ecx
  1001652A: 81 7D F4 4E E6 40  cmp         dword ptr [ebp-0Ch],0BB40E64Eh
            BB
  10016531: 75 09              jne         1001653C
  10016533: C7 45 F4 4F E6 40  mov         dword ptr [ebp-0Ch],0BB40E64Fh
            BB
  1001653A: EB 1C              jmp         10016558
  1001653C: 8B 55 F4           mov         edx,dword ptr [ebp-0Ch]
  1001653F: 81 E2 00 00 FF FF  and         edx,0FFFF0000h
  10016545: 75 11              jne         10016558
  10016547: 8B 45 F4           mov         eax,dword ptr [ebp-0Ch]
  1001654A: 0D 11 47 00 00     or          eax,4711h
  1001654F: C1 E0 10           shl         eax,10h
  10016552: 0B 45 F4           or          eax,dword ptr [ebp-0Ch]
  10016555: 89 45 F4           mov         dword ptr [ebp-0Ch],eax
  10016558: 8B 4D F4           mov         ecx,dword ptr [ebp-0Ch]
  1001655B: 89 0D 00 C0 01 10  mov         dword ptr [___security_cookie],ecx
  10016561: 8B 55 F4           mov         edx,dword ptr [ebp-0Ch]
  10016564: F7 D2              not         edx
  10016566: 89 15 04 C0 01 10  mov         dword ptr [___security_cookie_complement],edx
  1001656C: 8B E5              mov         esp,ebp
  1001656E: 5D                 pop         ebp
  1001656F: C3                 ret
  10016570: CC CC CC CC CC CC CC CC CC CC CC CC CC CC CC CC  лллллллллллллллл
  10016580: CC CC CC CC CC CC CC CC CC CC CC CC CC CC CC CC  лллллллллллллллл
  10016590: CC CC CC CC CC CC CC CC CC CC CC CC CC CC CC CC  лллллллллллллллл
  100165A0: CC CC CC CC CC CC CC CC                          лллллллл
___CppXcptFilter:
  100165A8: FF 25 B4 D2 01 10  jmp         dword ptr [__imp____CppXcptFilter]
  100165AE: CC CC                                            лл
_DllMain@12:
  100165B0: 8B FF              mov         edi,edi
  100165B2: 55                 push        ebp
  100165B3: 8B EC              mov         ebp,esp
  100165B5: 83 7D 0C 01        cmp         dword ptr [ebp+0Ch],1
  100165B9: 75 13              jne         100165CE
  100165BB: 83 3D C4 A6 01 10  cmp         dword ptr [__pRawDllMain],0
            00
  100165C2: 75 0A              jne         100165CE
  100165C4: 8B 45 08           mov         eax,dword ptr [ebp+8]
  100165C7: 50                 push        eax
  100165C8: FF 15 F0 D1 01 10  call        dword ptr [__imp__DisableThreadLibraryCalls@4]
  100165CE: B8 01 00 00 00     mov         eax,1
  100165D3: 5D                 pop         ebp
  100165D4: C2 0C 00           ret         0Ch
  100165D7: CC CC CC CC CC CC CC CC CC                       ллллллллл
__except_handler4:
  100165E0: 8B FF              mov         edi,edi
  100165E2: 55                 push        ebp
  100165E3: 8B EC              mov         ebp,esp
  100165E5: 8B 45 14           mov         eax,dword ptr [ebp+14h]
  100165E8: 50                 push        eax
  100165E9: 8B 4D 10           mov         ecx,dword ptr [ebp+10h]
  100165EC: 51                 push        ecx
  100165ED: 8B 55 0C           mov         edx,dword ptr [ebp+0Ch]
  100165F0: 52                 push        edx
  100165F1: 8B 45 08           mov         eax,dword ptr [ebp+8]
  100165F4: 50                 push        eax
  100165F5: 68 14 10 01 10     push        offset @ILT+15(@__security_check_cookie@4)
  100165FA: 68 00 C0 01 10     push        offset ___security_cookie
  100165FF: E8 9B AB FF FF     call        @ILT+410(__except_handler4_common)
  10016604: 83 C4 18           add         esp,18h
  10016607: 5D                 pop         ebp
  10016608: C3                 ret
  10016609: CC CC CC CC CC CC CC CC CC CC CC                 ллллллллллл
__crt_debugger_hook:
  10016614: FF 25 B0 D2 01 10  jmp         dword ptr [__imp___crt_debugger_hook]
  1001661A: CC CC CC CC CC CC                                лллллл
?_RTC_GetSrcLine@@YAHPAEPA_WKPAH1K@Z:
  10016620: 8B FF              mov         edi,edi
  10016622: 55                 push        ebp
  10016623: 8B EC              mov         ebp,esp
  10016625: 8B 45 14           mov         eax,dword ptr [ebp+14h]
  10016628: 8B 55 0C           mov         edx,dword ptr [ebp+0Ch]
  1001662B: 83 EC 44           sub         esp,44h
  1001662E: 56                 push        esi
  1001662F: 8B 75 08           mov         esi,dword ptr [ebp+8]
  10016632: C7 00 00 00 00 00  mov         dword ptr [eax],0
  10016638: 6A 1C              push        1Ch
  1001663A: 8D 45 BC           lea         eax,[ebp-44h]
  1001663D: 50                 push        eax
  1001663E: 33 C9              xor         ecx,ecx
  10016640: 4E                 dec         esi
  10016641: 56                 push        esi
  10016642: 66 89 0A           mov         word ptr [edx],cx
  10016645: FF 15 DC D1 01 10  call        dword ptr [__imp__VirtualQuery@12]
  1001664B: 85 C0              test        eax,eax
  1001664D: 75 07              jne         10016656
  1001664F: 33 C0              xor         eax,eax
  10016651: 5E                 pop         esi
  10016652: 8B E5              mov         esp,ebp
  10016654: 5D                 pop         ebp
  10016655: C3                 ret
  10016656: 8B 4D 1C           mov         ecx,dword ptr [ebp+1Ch]
  10016659: 8B 55 18           mov         edx,dword ptr [ebp+18h]
  1001665C: 8B 45 C0           mov         eax,dword ptr [ebp-40h]
  1001665F: 51                 push        ecx
  10016660: 52                 push        edx
  10016661: 50                 push        eax
  10016662: FF 15 E0 D1 01 10  call        dword ptr [__imp__GetModuleFileNameW@12]
  10016668: 85 C0              test        eax,eax
  1001666A: 74 E3              je          1001664F
  1001666C: 8B 55 C0           mov         edx,dword ptr [ebp-40h]
  1001666F: B9 4D 5A 00 00     mov         ecx,5A4Dh
  10016674: 66 39 0A           cmp         word ptr [edx],cx
  10016677: 75 D6              jne         1001664F
  10016679: 8B 42 3C           mov         eax,dword ptr [edx+3Ch]
  1001667C: 85 C0              test        eax,eax
  1001667E: 7E CF              jle         1001664F
  10016680: 03 C2              add         eax,edx
  10016682: 81 38 50 45 00 00  cmp         dword ptr [eax],4550h
  10016688: 75 C5              jne         1001664F
  1001668A: 0F B7 48 06        movzx       ecx,word ptr [eax+6]
  1001668E: 53                 push        ebx
  1001668F: 57                 push        edi
  10016690: 0F B7 78 14        movzx       edi,word ptr [eax+14h]
  10016694: 8D 44 07 24        lea         eax,[edi+eax+24h]
  10016698: 2B F2              sub         esi,edx
  1001669A: 33 FF              xor         edi,edi
  1001669C: 33 DB              xor         ebx,ebx
  1001669E: 85 C9              test        ecx,ecx
  100166A0: 74 17              je          100166B9
  100166A2: 8B 10              mov         edx,dword ptr [eax]
  100166A4: 3B F2              cmp         esi,edx
  100166A6: 72 09              jb          100166B1
  100166A8: 8B FE              mov         edi,esi
  100166AA: 2B FA              sub         edi,edx
  100166AC: 3B 70 FC           cmp         esi,dword ptr [eax-4]
  100166AF: 72 08              jb          100166B9
  100166B1: 43                 inc         ebx
  100166B2: 83 C0 28           add         eax,28h
  100166B5: 3B D9              cmp         ebx,ecx
  100166B7: 72 E9              jb          100166A2
  100166B9: 3B D9              cmp         ebx,ecx
  100166BB: 74 5B              je          10016718
  100166BD: 43                 inc         ebx
  100166BE: 80 3D 1C C5 01 10  cmp         byte ptr ds:[1001C51Ch],0
            00
  100166C5: 75 20              jne         100166E7
  100166C7: 83 3D 18 C5 01 10  cmp         dword ptr ds:[1001C518h],0
            00
  100166CE: 75 48              jne         10016718
  100166D0: E8 BB 02 00 00     call        10016990
  100166D5: A3 18 C5 01 10     mov         dword ptr ds:[1001C518h],eax
  100166DA: 85 C0              test        eax,eax
  100166DC: 74 3A              je          10016718
  100166DE: C6 05 1C C5 01 10  mov         byte ptr ds:[1001C51Ch],1
            01
  100166E5: EB 05              jmp         100166EC
  100166E7: A1 18 C5 01 10     mov         eax,dword ptr ds:[1001C518h]
  100166EC: 68 34 AF 01 10     push        offset ??_C@_0BB@KCIACLNC@PDBOpenValidate5?$AA@
  100166F1: 50                 push        eax
  100166F2: FF 15 0C D2 01 10  call        dword ptr [__imp__GetProcAddress@8]
  100166F8: 33 F6              xor         esi,esi
  100166FA: 3B C6              cmp         eax,esi
  100166FC: 74 1A              je          10016718
  100166FE: 8D 55 F0           lea         edx,[ebp-10h]
  10016701: 52                 push        edx
  10016702: 8B 55 18           mov         edx,dword ptr [ebp+18h]
  10016705: 56                 push        esi
  10016706: 56                 push        esi
  10016707: 8D 4D D8           lea         ecx,[ebp-28h]
  1001670A: 51                 push        ecx
  1001670B: 56                 push        esi
  1001670C: 56                 push        esi
  1001670D: 56                 push        esi
  1001670E: 52                 push        edx
  1001670F: FF D0              call        eax
  10016711: 83 C4 20           add         esp,20h
  10016714: 85 C0              test        eax,eax
  10016716: 75 09              jne         10016721
  10016718: 5F                 pop         edi
  10016719: 5B                 pop         ebx
  1001671A: 33 C0              xor         eax,eax
  1001671C: 5E                 pop         esi
  1001671D: 8B E5              mov         esp,ebp
  1001671F: 5D                 pop         ebp
  10016720: C3                 ret
  10016721: 8B 4D F0           mov         ecx,dword ptr [ebp-10h]
  10016724: 8B 01              mov         eax,dword ptr [ecx]
  10016726: 8B 10              mov         edx,dword ptr [eax]
  10016728: 89 75 E4           mov         dword ptr [ebp-1Ch],esi
  1001672B: FF D2              call        edx
  1001672D: 3D B5 A5 31 01     cmp         eax,131A5B5h
  10016732: 0F 85 8C 01 00 00  jne         100168C4
  10016738: 8B 4D F0           mov         ecx,dword ptr [ebp-10h]
  1001673B: 8B 01              mov         eax,dword ptr [ecx]
  1001673D: 8B 40 1C           mov         eax,dword ptr [eax+1Ch]
  10016740: 8D 55 E8           lea         edx,[ebp-18h]
  10016743: 52                 push        edx
  10016744: 68 30 AF 01 10     push        offset ??_C@_01KDCPPGHE@r?$AA@
  10016749: 56                 push        esi
  1001674A: FF D0              call        eax
  1001674C: 85 C0              test        eax,eax
  1001674E: 0F 84 70 01 00 00  je          100168C4
  10016754: 8B 4D E8           mov         ecx,dword ptr [ebp-18h]
  10016757: 8B 11              mov         edx,dword ptr [ecx]
  10016759: 8B 52 20           mov         edx,dword ptr [edx+20h]
  1001675C: 56                 push        esi
  1001675D: 56                 push        esi
  1001675E: 56                 push        esi
  1001675F: 8D 45 F4           lea         eax,[ebp-0Ch]
  10016762: 50                 push        eax
  10016763: 57                 push        edi
  10016764: 53                 push        ebx
  10016765: FF D2              call        edx
  10016767: 85 C0              test        eax,eax
  10016769: 0F 84 4B 01 00 00  je          100168BA
  1001676F: 8B 4D F4           mov         ecx,dword ptr [ebp-0Ch]
  10016772: 89 75 FC           mov         dword ptr [ebp-4],esi
  10016775: 8B 01              mov         eax,dword ptr [ecx]
  10016777: 8B 40 68           mov         eax,dword ptr [eax+68h]
  1001677A: 8D 55 FC           lea         edx,[ebp-4]
  1001677D: 52                 push        edx
  1001677E: FF D0              call        eax
  10016780: 84 C0              test        al,al
  10016782: 0F 84 28 01 00 00  je          100168B0
  10016788: 8B 4D FC           mov         ecx,dword ptr [ebp-4]
  1001678B: 3B CE              cmp         ecx,esi
  1001678D: 0F 84 1D 01 00 00  je          100168B0
  10016793: 8B 11              mov         edx,dword ptr [ecx]
  10016795: 8B 42 08           mov         eax,dword ptr [edx+8]
  10016798: FF D0              call        eax
  1001679A: 85 C0              test        eax,eax
  1001679C: 0F 84 F5 00 00 00  je          10016897
  100167A2: 8B 4D FC           mov         ecx,dword ptr [ebp-4]
  100167A5: 8B 11              mov         edx,dword ptr [ecx]
  100167A7: 8B 52 0C           mov         edx,dword ptr [edx+0Ch]
  100167AA: 6A 00              push        0
  100167AC: 8D 45 F8           lea         eax,[ebp-8]
  100167AF: 50                 push        eax
  100167B0: 8D 45 E0           lea         eax,[ebp-20h]
  100167B3: 50                 push        eax
  100167B4: 8D 45 08           lea         eax,[ebp+8]
  100167B7: 50                 push        eax
  100167B8: 8D 45 EC           lea         eax,[ebp-14h]
  100167BB: 50                 push        eax
  100167BC: 6A 00              push        0
  100167BE: FF D2              call        edx
  100167C0: 84 C0              test        al,al
  100167C2: 0F 84 DF 00 00 00  je          100168A7
  100167C8: 0F B7 45 08        movzx       eax,word ptr [ebp+8]
  100167CC: 3B C3              cmp         eax,ebx
  100167CE: 75 0E              jne         100167DE
  100167D0: 8B 45 EC           mov         eax,dword ptr [ebp-14h]
  100167D3: 3B C7              cmp         eax,edi
  100167D5: 77 07              ja          100167DE
  100167D7: 03 45 E0           add         eax,dword ptr [ebp-20h]
  100167DA: 3B F8              cmp         edi,eax
  100167DC: 72 13              jb          100167F1
  100167DE: 8B 4D FC           mov         ecx,dword ptr [ebp-4]
  100167E1: 8B 11              mov         edx,dword ptr [ecx]
  100167E3: 8B 42 08           mov         eax,dword ptr [edx+8]
  100167E6: FF D0              call        eax
  100167E8: 85 C0              test        eax,eax
  100167EA: 75 B6              jne         100167A2
  100167EC: E9 A6 00 00 00     jmp         10016897
  100167F1: 8B 45 F8           mov         eax,dword ptr [ebp-8]
  100167F4: 85 C0              test        eax,eax
  100167F6: 0F 84 AB 00 00 00  je          100168A7
  100167FC: 3D FF FF FF 1F     cmp         eax,1FFFFFFFh
  10016801: 0F 83 A0 00 00 00  jae         100168A7
  10016807: 8D 0C C5 00 00 00  lea         ecx,[eax*8]
            00
  1001680E: 51                 push        ecx
  1001680F: 6A 00              push        0
  10016811: FF 15 E4 D1 01 10  call        dword ptr [__imp__GetProcessHeap@0]
  10016817: 50                 push        eax
  10016818: FF 15 E8 D1 01 10  call        dword ptr [__imp__HeapAlloc@12]
  1001681E: 8B F0              mov         esi,eax
  10016820: 85 F6              test        esi,esi
  10016822: 0F 84 7F 00 00 00  je          100168A7
  10016828: 8B 4D FC           mov         ecx,dword ptr [ebp-4]
  1001682B: 8B 11              mov         edx,dword ptr [ecx]
  1001682D: 8B 52 0C           mov         edx,dword ptr [edx+0Ch]
  10016830: 56                 push        esi
  10016831: 8D 45 F8           lea         eax,[ebp-8]
  10016834: 50                 push        eax
  10016835: 6A 00              push        0
  10016837: 6A 00              push        0
  10016839: 6A 00              push        0
  1001683B: 8D 45 DC           lea         eax,[ebp-24h]
  1001683E: 50                 push        eax
  1001683F: FF D2              call        edx
  10016841: 84 C0              test        al,al
  10016843: 74 52              je          10016897
  10016845: 2B 7D EC           sub         edi,dword ptr [ebp-14h]
  10016848: 3B 3E              cmp         edi,dword ptr [esi]
  1001684A: 72 4B              jb          10016897
  1001684C: 8B 4D F8           mov         ecx,dword ptr [ebp-8]
  1001684F: B8 01 00 00 00     mov         eax,1
  10016854: 3B C8              cmp         ecx,eax
  10016856: 76 0A              jbe         10016862
  10016858: 3B 3C C6           cmp         edi,dword ptr [esi+eax*8]
  1001685B: 72 05              jb          10016862
  1001685D: 40                 inc         eax
  1001685E: 3B C1              cmp         eax,ecx
  10016860: 72 F6              jb          10016858
  10016862: 8B 44 C6 FC        mov         eax,dword ptr [esi+eax*8-4]
  10016866: 8B 4D 14           mov         ecx,dword ptr [ebp+14h]
  10016869: 6A 00              push        0
  1001686B: 25 FF FF FF 00     and         eax,0FFFFFFh
  10016870: 89 01              mov         dword ptr [ecx],eax
  10016872: 8B 4D F4           mov         ecx,dword ptr [ebp-0Ch]
  10016875: 8B 11              mov         edx,dword ptr [ecx]
  10016877: 8B 52 70           mov         edx,dword ptr [edx+70h]
  1001687A: 6A 00              push        0
  1001687C: 6A 00              push        0
  1001687E: 8D 45 10           lea         eax,[ebp+10h]
  10016881: 50                 push        eax
  10016882: 8B 45 0C           mov         eax,dword ptr [ebp+0Ch]
  10016885: 50                 push        eax
  10016886: 8B 45 DC           mov         eax,dword ptr [ebp-24h]
  10016889: 50                 push        eax
  1001688A: FF D2              call        edx
  1001688C: 84 C0              test        al,al
  1001688E: 74 07              je          10016897
  10016890: C7 45 E4 01 00 00  mov         dword ptr [ebp-1Ch],1
            00
  10016897: 56                 push        esi
  10016898: 6A 00              push        0
  1001689A: FF 15 E4 D1 01 10  call        dword ptr [__imp__GetProcessHeap@0]
  100168A0: 50                 push        eax
  100168A1: FF 15 EC D1 01 10  call        dword ptr [__imp__HeapFree@12]
  100168A7: 8B 4D FC           mov         ecx,dword ptr [ebp-4]
  100168AA: 8B 01              mov         eax,dword ptr [ecx]
  100168AC: 8B 10              mov         edx,dword ptr [eax]
  100168AE: FF D2              call        edx
  100168B0: 8B 4D F4           mov         ecx,dword ptr [ebp-0Ch]
  100168B3: 8B 01              mov         eax,dword ptr [ecx]
  100168B5: 8B 50 40           mov         edx,dword ptr [eax+40h]
  100168B8: FF D2              call        edx
  100168BA: 8B 4D E8           mov         ecx,dword ptr [ebp-18h]
  100168BD: 8B 01              mov         eax,dword ptr [ecx]
  100168BF: 8B 50 38           mov         edx,dword ptr [eax+38h]
  100168C2: FF D2              call        edx
  100168C4: 8B 4D F0           mov         ecx,dword ptr [ebp-10h]
  100168C7: 8B 01              mov         eax,dword ptr [ecx]
  100168C9: 8B 50 28           mov         edx,dword ptr [eax+28h]
  100168CC: FF D2              call        edx
  100168CE: 8B 45 E4           mov         eax,dword ptr [ebp-1Ch]
  100168D1: 5F                 pop         edi
  100168D2: 5B                 pop         ebx
  100168D3: 5E                 pop         esi
  100168D4: 8B E5              mov         esp,ebp
  100168D6: 5D                 pop         ebp
  100168D7: C3                 ret
  100168D8: CC CC CC CC CC CC CC CC CC CC CC CC CC CC CC CC  лллллллллллллллл
  100168E8: CC CC CC CC CC CC CC CC CC CC CC CC CC CC CC CC  лллллллллллллллл
  100168F8: CC CC CC CC CC CC CC CC CC CC CC CC CC CC CC CC  лллллллллллллллл
  10016908: CC CC CC CC CC CC CC CC CC CC CC CC CC CC CC CC  лллллллллллллллл
  10016918: CC CC CC CC CC CC CC CC CC CC CC CC CC CC CC CC  лллллллллллллллл
  10016928: CC CC CC CC CC CC CC CC CC CC CC CC CC CC CC CC  лллллллллллллллл
  10016938: CC CC CC CC CC CC CC CC CC CC CC CC CC CC CC CC  лллллллллллллллл
  10016948: CC CC CC CC CC CC CC CC CC CC CC CC CC CC CC CC  лллллллллллллллл
  10016958: CC CC CC CC CC CC CC CC CC CC CC CC CC CC CC CC  лллллллллллллллл
  10016968: CC CC CC CC CC CC CC CC CC CC CC CC CC CC CC CC  лллллллллллллллл
  10016978: CC CC CC CC CC CC CC CC CC CC CC CC CC CC CC CC  лллллллллллллллл
  10016988: CC CC CC CC CC CC CC CC                          лллллллл
  10016990: 8B FF              mov         edi,edi
  10016992: 55                 push        ebp
  10016993: 8B EC              mov         ebp,esp
  10016995: 81 EC 14 04 00 00  sub         esp,414h
  1001699B: A1 00 C0 01 10     mov         eax,dword ptr [___security_cookie]
  100169A0: 33 C5              xor         eax,ebp
  100169A2: 89 45 FC           mov         dword ptr [ebp-4],eax
  100169A5: 80 3D 1D C5 01 10  cmp         byte ptr ds:[1001C51Dh],0
            00
  100169AC: 74 10              je          100169BE
  100169AE: 33 C0              xor         eax,eax
  100169B0: 8B 4D FC           mov         ecx,dword ptr [ebp-4]
  100169B3: 33 CD              xor         ecx,ebp
  100169B5: E8 5A A6 FF FF     call        @ILT+15(@__security_check_cookie@4)
  100169BA: 8B E5              mov         esp,ebp
  100169BC: 5D                 pop         ebp
  100169BD: C3                 ret
  100169BE: C6 05 1D C5 01 10  mov         byte ptr ds:[1001C51Dh],1
            01
  100169C5: E8 F6 00 00 00     call        10016AC0
  100169CA: 85 C0              test        eax,eax
  100169CC: 0F 85 A0 00 00 00  jne         10016A72
  100169D2: 56                 push        esi
  100169D3: 57                 push        edi
  100169D4: 68 08 AF 01 10     push        1001AF08h
  100169D9: FF 15 D8 D1 01 10  call        dword ptr [__imp__GetModuleHandleW@4]
  100169DF: 8B 3D 08 D2 01 10  mov         edi,dword ptr [__imp__LoadLibraryW@4]
  100169E5: 8B 35 E0 D1 01 10  mov         esi,dword ptr [__imp__GetModuleFileNameW@12]
  100169EB: 85 C0              test        eax,eax
  100169ED: 74 3F              je          10016A2E
  100169EF: 68 04 01 00 00     push        104h
  100169F4: 8D 8D F4 FD FF FF  lea         ecx,[ebp-20Ch]
  100169FA: 51                 push        ecx
  100169FB: 50                 push        eax
  100169FC: FF D6              call        esi
  100169FE: 85 C0              test        eax,eax
  10016A00: 74 2C              je          10016A2E
  10016A02: 68 04 01 00 00     push        104h
  10016A07: 8D 95 EC FB FF FF  lea         edx,[ebp-414h]
  10016A0D: 52                 push        edx
  10016A0E: 8D 85 F4 FD FF FF  lea         eax,[ebp-20Ch]
  10016A14: 50                 push        eax
  10016A15: E8 D6 02 00 00     call        10016CF0
  10016A1A: 83 C4 0C           add         esp,0Ch
  10016A1D: 85 C0              test        eax,eax
  10016A1F: 74 0D              je          10016A2E
  10016A21: 8D 8D EC FB FF FF  lea         ecx,[ebp-414h]
  10016A27: 51                 push        ecx
  10016A28: FF D7              call        edi
  10016A2A: 85 C0              test        eax,eax
  10016A2C: 75 42              jne         10016A70
  10016A2E: 68 04 01 00 00     push        104h
  10016A33: 8D 95 F4 FD FF FF  lea         edx,[ebp-20Ch]
  10016A39: 52                 push        edx
  10016A3A: 6A 00              push        0
  10016A3C: FF D6              call        esi
  10016A3E: 85 C0              test        eax,eax
  10016A40: 74 2C              je          10016A6E
  10016A42: 68 04 01 00 00     push        104h
  10016A47: 8D 85 EC FB FF FF  lea         eax,[ebp-414h]
  10016A4D: 50                 push        eax
  10016A4E: 8D 8D F4 FD FF FF  lea         ecx,[ebp-20Ch]
  10016A54: 51                 push        ecx
  10016A55: E8 96 02 00 00     call        10016CF0
  10016A5A: 83 C4 0C           add         esp,0Ch
  10016A5D: 85 C0              test        eax,eax
  10016A5F: 74 0D              je          10016A6E
  10016A61: 8D 95 EC FB FF FF  lea         edx,[ebp-414h]
  10016A67: 52                 push        edx
  10016A68: FF D7              call        edi
  10016A6A: 85 C0              test        eax,eax
  10016A6C: 75 02              jne         10016A70
  10016A6E: 33 C0              xor         eax,eax
  10016A70: 5F                 pop         edi
  10016A71: 5E                 pop         esi
  10016A72: 8B 4D FC           mov         ecx,dword ptr [ebp-4]
  10016A75: 33 CD              xor         ecx,ebp
  10016A77: E8 98 A5 FF FF     call        @ILT+15(@__security_check_cookie@4)
  10016A7C: 8B E5              mov         esp,ebp
  10016A7E: 5D                 pop         ebp
  10016A7F: C3                 ret
  10016A80: CC CC CC CC CC CC CC CC CC CC CC CC CC CC CC CC  лллллллллллллллл
  10016A90: CC CC CC CC CC CC CC CC CC CC CC CC CC CC CC CC  лллллллллллллллл
  10016AA0: CC CC CC CC CC CC CC CC CC CC CC CC CC CC CC CC  лллллллллллллллл
  10016AB0: CC CC CC CC CC CC CC CC CC CC CC CC CC CC CC CC  лллллллллллллллл
  10016AC0: 8B FF              mov         edi,edi
  10016AC2: 55                 push        ebp
  10016AC3: 8B EC              mov         ebp,esp
  10016AC5: 81 EC 1C 02 00 00  sub         esp,21Ch
  10016ACB: A1 00 C0 01 10     mov         eax,dword ptr [___security_cookie]
  10016AD0: 33 C5              xor         eax,ebp
  10016AD2: 89 45 FC           mov         dword ptr [ebp-4],eax
  10016AD5: 56                 push        esi
  10016AD6: 68 24 B0 01 10     push        offset ??_C@_1BK@GAEMIDIL@?$AAA?$AAD?$AAV?$AAA?$AAP?$AAI?$AA3?$AA2?$AA?4?$AAD?$AAL?$AAL?$AA?$AA@
  10016ADB: FF 15 08 D2 01 10  call        dword ptr [__imp__LoadLibraryW@4]
  10016AE1: 8B F0              mov         esi,eax
  10016AE3: 85 F6              test        esi,esi
  10016AE5: 75 0F              jne         10016AF6
  10016AE7: 5E                 pop         esi
  10016AE8: 8B 4D FC           mov         ecx,dword ptr [ebp-4]
  10016AEB: 33 CD              xor         ecx,ebp
  10016AED: E8 22 A5 FF FF     call        @ILT+15(@__security_check_cookie@4)
  10016AF2: 8B E5              mov         esp,ebp
  10016AF4: 5D                 pop         ebp
  10016AF5: C3                 ret
  10016AF6: 57                 push        edi
  10016AF7: 8B 3D 0C D2 01 10  mov         edi,dword ptr [__imp__GetProcAddress@8]
  10016AFD: 68 14 B0 01 10     push        offset ??_C@_0O@COHOBMLB@RegOpenKeyExW?$AA@
  10016B02: 56                 push        esi
  10016B03: FF D7              call        edi
  10016B05: 89 85 E8 FD FF FF  mov         dword ptr [ebp-218h],eax
  10016B0B: 85 C0              test        eax,eax
  10016B0D: 75 10              jne         10016B1F
  10016B0F: 5F                 pop         edi
  10016B10: 5E                 pop         esi
  10016B11: 8B 4D FC           mov         ecx,dword ptr [ebp-4]
  10016B14: 33 CD              xor         ecx,ebp
  10016B16: E8 F9 A4 FF FF     call        @ILT+15(@__security_check_cookie@4)
  10016B1B: 8B E5              mov         esp,ebp
  10016B1D: 5D                 pop         ebp
  10016B1E: C3                 ret
  10016B1F: 53                 push        ebx
  10016B20: 68 00 B0 01 10     push        offset ??_C@_0BB@GLNAEDBD@RegQueryValueExW?$AA@
  10016B25: 56                 push        esi
  10016B26: FF D7              call        edi
  10016B28: 8B D8              mov         ebx,eax
  10016B2A: 85 DB              test        ebx,ebx
  10016B2C: 74 34              je          10016B62
  10016B2E: 68 F0 AF 01 10     push        offset ??_C@_0M@HLOHPNFA@RegCloseKey?$AA@
  10016B33: 56                 push        esi
  10016B34: FF D7              call        edi
  10016B36: 8B F8              mov         edi,eax
  10016B38: 85 FF              test        edi,edi
  10016B3A: 74 26              je          10016B62
  10016B3C: 8D 85 EC FD FF FF  lea         eax,[ebp-214h]
  10016B42: 50                 push        eax
  10016B43: 6A 01              push        1
  10016B45: 6A 00              push        0
  10016B47: 68 80 AF 01 10     push        offset ??_C@_1FM@DNCABAP@?$AAS?$AAO?$AAF?$AAT?$AAW?$AAA?$AAR?$AAE?$AA?2?$AAM?$AAi?$AAc?$AAr?$AAo?$AAs?$AAo?$AAf?$AAt?$AA?2?$AAV?$AAi?$AAs?$AAu?$AAa?$AAl?$AAS?$AAt?$AAu?$AAd?$AAi?$AAo?$AA?2@
  10016B4C: 68 02 00 00 80     push        80000002h
  10016B51: FF 95 E8 FD FF FF  call        dword ptr [ebp-218h]
  10016B57: 85 C0              test        eax,eax
  10016B59: 74 1A              je          10016B75
  10016B5B: 56                 push        esi
  10016B5C: FF 15 30 D2 01 10  call        dword ptr [__imp__FreeLibrary@4]
  10016B62: 5B                 pop         ebx
  10016B63: 5F                 pop         edi
  10016B64: 33 C0              xor         eax,eax
  10016B66: 5E                 pop         esi
  10016B67: 8B 4D FC           mov         ecx,dword ptr [ebp-4]
  10016B6A: 33 CD              xor         ecx,ebp
  10016B6C: E8 A3 A4 FF FF     call        @ILT+15(@__security_check_cookie@4)
  10016B71: 8B E5              mov         esp,ebp
  10016B73: 5D                 pop         ebp
  10016B74: C3                 ret
  10016B75: 8D 8D F0 FD FF FF  lea         ecx,[ebp-210h]
  10016B7B: 51                 push        ecx
  10016B7C: 8B 8D EC FD FF FF  mov         ecx,dword ptr [ebp-214h]
  10016B82: 8D 95 F4 FD FF FF  lea         edx,[ebp-20Ch]
  10016B88: 52                 push        edx
  10016B89: 8D 85 E4 FD FF FF  lea         eax,[ebp-21Ch]
  10016B8F: 50                 push        eax
  10016B90: 6A 00              push        0
  10016B92: 68 48 AF 01 10     push        offset ??_C@_1CK@HHHCOJPD@?$AAE?$AAn?$AAv?$AAi?$AAr?$AAo?$AAn?$AAm?$AAe?$AAn?$AAt?$AAD?$AAi?$AAr?$AAe?$AAc?$AAt?$AAo?$AAr?$AAy?$AA?$AA@
  10016B97: 51                 push        ecx
  10016B98: C7 85 F0 FD FF FF  mov         dword ptr [ebp-210h],208h
            08 02 00 00
  10016BA2: FF D3              call        ebx
  10016BA4: 8B 95 EC FD FF FF  mov         edx,dword ptr [ebp-214h]
  10016BAA: 52                 push        edx
  10016BAB: 8B D8              mov         ebx,eax
  10016BAD: FF D7              call        edi
  10016BAF: 56                 push        esi
  10016BB0: FF 15 30 D2 01 10  call        dword ptr [__imp__FreeLibrary@4]
  10016BB6: 85 DB              test        ebx,ebx
  10016BB8: 75 A8              jne         10016B62
  10016BBA: 83 BD E4 FD FF FF  cmp         dword ptr [ebp-21Ch],1
            01
  10016BC1: 75 9F              jne         10016B62
  10016BC3: 8B 85 F0 FD FF FF  mov         eax,dword ptr [ebp-210h]
  10016BC9: A8 01              test        al,1
  10016BCB: 75 95              jne         10016B62
  10016BCD: D1 E8              shr         eax,1
  10016BCF: 83 F8 02           cmp         eax,2
  10016BD2: 72 8E              jb          10016B62
  10016BD4: 48                 dec         eax
  10016BD5: 66 39 9C 45 F4 FD  cmp         word ptr [ebp+eax*2-20Ch],bx
            FF FF
  10016BDD: 75 83              jne         10016B62
  10016BDF: 66 83 BC 45 F2 FD  cmp         word ptr [ebp+eax*2-20Eh],5Ch
            FF FF 5C
  10016BE8: 74 0E              je          10016BF8
  10016BEA: B9 5C 00 00 00     mov         ecx,5Ch
  10016BEF: 66 89 8C 45 F4 FD  mov         word ptr [ebp+eax*2-20Ch],cx
            FF FF
  10016BF7: 40                 inc         eax
  10016BF8: 83 CA FF           or          edx,0FFFFFFFFh
  10016BFB: 2B D0              sub         edx,eax
  10016BFD: 83 FA 0E           cmp         edx,0Eh
  10016C00: 0F 82 5C FF FF FF  jb          10016B62
  10016C06: 8D 48 0D           lea         ecx,[eax+0Dh]
  10016C09: 81 F9 04 01 00 00  cmp         ecx,104h
  10016C0F: 0F 87 4D FF FF FF  ja          10016B62
  10016C15: 8B 15 EC AE 01 10  mov         edx,dword ptr ds:[1001AEECh]
  10016C1B: 8B 0D F0 AE 01 10  mov         ecx,dword ptr ds:[1001AEF0h]
  10016C21: 8D 84 45 F4 FD FF  lea         eax,[ebp+eax*2-20Ch]
            FF
  10016C28: 89 10              mov         dword ptr [eax],edx
  10016C2A: 8B 15 F4 AE 01 10  mov         edx,dword ptr ds:[1001AEF4h]
  10016C30: 89 48 04           mov         dword ptr [eax+4],ecx
  10016C33: 8B 0D F8 AE 01 10  mov         ecx,dword ptr ds:[1001AEF8h]
  10016C39: 89 50 08           mov         dword ptr [eax+8],edx
  10016C3C: 8B 15 FC AE 01 10  mov         edx,dword ptr ds:[1001AEFCh]
  10016C42: 89 48 0C           mov         dword ptr [eax+0Ch],ecx
  10016C45: 8B 0D 00 AF 01 10  mov         ecx,dword ptr ds:[1001AF00h]
  10016C4B: 89 50 10           mov         dword ptr [eax+10h],edx
  10016C4E: 66 8B 15 04 AF 01  mov         dx,word ptr ds:[1001AF04h]
            10
  10016C55: 89 48 14           mov         dword ptr [eax+14h],ecx
  10016C58: 66 89 50 18        mov         word ptr [eax+18h],dx
  10016C5C: 8D 85 F4 FD FF FF  lea         eax,[ebp-20Ch]
  10016C62: 50                 push        eax
  10016C63: FF 15 08 D2 01 10  call        dword ptr [__imp__LoadLibraryW@4]
  10016C69: 8B 4D FC           mov         ecx,dword ptr [ebp-4]
  10016C6C: 5B                 pop         ebx
  10016C6D: 5F                 pop         edi
  10016C6E: 33 CD              xor         ecx,ebp
  10016C70: 5E                 pop         esi
  10016C71: E8 9E A3 FF FF     call        @ILT+15(@__security_check_cookie@4)
  10016C76: 8B E5              mov         esp,ebp
  10016C78: 5D                 pop         ebp
  10016C79: C3                 ret
  10016C7A: CC CC CC CC CC CC CC CC CC CC CC CC CC CC CC CC  лллллллллллллллл
  10016C8A: CC CC CC CC CC CC CC CC CC CC CC CC CC CC CC CC  лллллллллллллллл
  10016C9A: CC CC CC CC CC CC CC CC CC CC CC CC CC CC CC CC  лллллллллллллллл
  10016CAA: CC CC CC CC CC CC CC CC CC CC CC CC CC CC CC CC  лллллллллллллллл
  10016CBA: CC CC CC CC CC CC CC CC CC CC CC CC CC CC CC CC  лллллллллллллллл
  10016CCA: CC CC CC CC CC CC CC CC CC CC CC CC CC CC CC CC  лллллллллллллллл
  10016CDA: CC CC CC CC CC CC CC CC CC CC CC CC CC CC CC CC  лллллллллллллллл
  10016CEA: CC CC CC CC CC CC                                лллллл
  10016CF0: 8B FF              mov         edi,edi
  10016CF2: 55                 push        ebp
  10016CF3: 8B EC              mov         ebp,esp
  10016CF5: 81 EC 0C 06 00 00  sub         esp,60Ch
  10016CFB: A1 00 C0 01 10     mov         eax,dword ptr [___security_cookie]
  10016D00: 33 C5              xor         eax,ebp
  10016D02: 89 45 FC           mov         dword ptr [ebp-4],eax
  10016D05: 8B 45 08           mov         eax,dword ptr [ebp+8]
  10016D08: 56                 push        esi
  10016D09: 8B 75 0C           mov         esi,dword ptr [ebp+0Ch]
  10016D0C: 68 00 01 00 00     push        100h
  10016D11: 8D 8D F4 FD FF FF  lea         ecx,[ebp-20Ch]
  10016D17: 51                 push        ecx
  10016D18: 68 00 01 00 00     push        100h
  10016D1D: 8D 95 F4 FB FF FF  lea         edx,[ebp-40Ch]
  10016D23: 52                 push        edx
  10016D24: 68 00 01 00 00     push        100h
  10016D29: 8D 8D F4 F9 FF FF  lea         ecx,[ebp-60Ch]
  10016D2F: 51                 push        ecx
  10016D30: 6A 03              push        3
  10016D32: 8D 55 F4           lea         edx,[ebp-0Ch]
  10016D35: 52                 push        edx
  10016D36: 50                 push        eax
  10016D37: E8 0A A3 FF FF     call        @ILT+65(__wsplitpath_s)
  10016D3C: 83 C4 24           add         esp,24h
  10016D3F: 85 C0              test        eax,eax
  10016D41: 74 11              je          10016D54
  10016D43: 33 C0              xor         eax,eax
  10016D45: 5E                 pop         esi
  10016D46: 8B 4D FC           mov         ecx,dword ptr [ebp-4]
  10016D49: 33 CD              xor         ecx,ebp
  10016D4B: E8 C4 A2 FF FF     call        @ILT+15(@__security_check_cookie@4)
  10016D50: 8B E5              mov         esp,ebp
  10016D52: 5D                 pop         ebp
  10016D53: C3                 ret
  10016D54: 68 50 B0 01 10     push        1001B050h
  10016D59: 8D 85 F4 FB FF FF  lea         eax,[ebp-40Ch]
  10016D5F: 6A 09              push        9
  10016D61: 50                 push        eax
  10016D62: E8 79 A4 FF FF     call        @ILT+475(_wcscpy_s)
  10016D67: 83 C4 0C           add         esp,0Ch
  10016D6A: 85 C0              test        eax,eax
  10016D6C: 75 D5              jne         10016D43
  10016D6E: 68 44 B0 01 10     push        1001B044h
  10016D73: 8D 8D F4 FD FF FF  lea         ecx,[ebp-20Ch]
  10016D79: 6A 04              push        4
  10016D7B: 51                 push        ecx
  10016D7C: E8 5F A4 FF FF     call        @ILT+475(_wcscpy_s)
  10016D81: 83 C4 0C           add         esp,0Ch
  10016D84: 85 C0              test        eax,eax
  10016D86: 75 BB              jne         10016D43
  10016D88: 8D 95 F4 FD FF FF  lea         edx,[ebp-20Ch]
  10016D8E: 52                 push        edx
  10016D8F: 8D 85 F4 FB FF FF  lea         eax,[ebp-40Ch]
  10016D95: 50                 push        eax
  10016D96: 8B 45 10           mov         eax,dword ptr [ebp+10h]
  10016D99: 8D 8D F4 F9 FF FF  lea         ecx,[ebp-60Ch]
  10016D9F: 51                 push        ecx
  10016DA0: 8D 55 F4           lea         edx,[ebp-0Ch]
  10016DA3: 52                 push        edx
  10016DA4: 50                 push        eax
  10016DA5: 56                 push        esi
  10016DA6: E8 BD A3 FF FF     call        @ILT+355(__wmakepath_s)
  10016DAB: 8B 4D FC           mov         ecx,dword ptr [ebp-4]
  10016DAE: 83 C4 18           add         esp,18h
  10016DB1: F7 D8              neg         eax
  10016DB3: 1B C0              sbb         eax,eax
  10016DB5: 33 CD              xor         ecx,ebp
  10016DB7: 40                 inc         eax
  10016DB8: 5E                 pop         esi
  10016DB9: E8 56 A2 FF FF     call        @ILT+15(@__security_check_cookie@4)
  10016DBE: 8B E5              mov         esp,ebp
  10016DC0: 5D                 pop         ebp
  10016DC1: C3                 ret
  10016DC2: CC CC CC CC CC CC CC CC CC CC CC CC CC CC CC CC  лллллллллллллллл
  10016DD2: CC CC CC CC CC CC CC CC CC CC CC CC CC CC CC CC  лллллллллллллллл
  10016DE2: CC CC CC CC CC CC CC CC CC CC CC CC CC CC CC CC  лллллллллллллллл
  10016DF2: CC CC CC CC                                      лллл
___clean_type_info_names_internal:
  10016DF6: FF 25 AC D2 01 10  jmp         dword ptr [__imp____clean_type_info_names_internal]
__unlock:
  10016DFC: FF 25 A8 D2 01 10  jmp         dword ptr [__imp___unlock]
___dllonexit:
  10016E02: FF 25 A4 D2 01 10  jmp         dword ptr [__imp____dllonexit]
__lock:
  10016E08: FF 25 A0 D2 01 10  jmp         dword ptr [__imp___lock]
__except_handler4_common:
  10016E0E: FF 25 F0 D2 01 10  jmp         dword ptr [__imp___except_handler4_common]
__wmakepath_s:
  10016E14: FF 25 98 D2 01 10  jmp         dword ptr [__imp___wmakepath_s]
_wcscpy_s:
  10016E1A: FF 25 94 D2 01 10  jmp         dword ptr [__imp__wcscpy_s]
__wsplitpath_s:
  10016E20: FF 25 90 D2 01 10  jmp         dword ptr [__imp___wsplitpath_s]
_EncodePointer@4:
  10016E26: FF 25 40 D2 01 10  jmp         dword ptr [__imp__EncodePointer@4]
_DecodePointer@4:
  10016E2C: FF 25 44 D2 01 10  jmp         dword ptr [__imp__DecodePointer@4]
_InterlockedExchange@8:
  10016E32: FF 25 3C D2 01 10  jmp         dword ptr [__imp__InterlockedExchange@8]
_Sleep@4:
  10016E38: FF 25 38 D2 01 10  jmp         dword ptr [__imp__Sleep@4]
_InterlockedCompareExchange@12:
  10016E3E: FF 25 34 D2 01 10  jmp         dword ptr [__imp__InterlockedCompareExchange@12]
_TerminateProcess@8:
  10016E44: FF 25 2C D2 01 10  jmp         dword ptr [__imp__TerminateProcess@8]
_GetCurrentProcess@0:
  10016E4A: FF 25 28 D2 01 10  jmp         dword ptr [__imp__GetCurrentProcess@0]
_UnhandledExceptionFilter@4:
  10016E50: FF 25 24 D2 01 10  jmp         dword ptr [__imp__UnhandledExceptionFilter@4]
_SetUnhandledExceptionFilter@4:
  10016E56: FF 25 20 D2 01 10  jmp         dword ptr [__imp__SetUnhandledExceptionFilter@4]
_IsDebuggerPresent@0:
  10016E5C: FF 25 1C D2 01 10  jmp         dword ptr [__imp__IsDebuggerPresent@0]
_WideCharToMultiByte@32:
  10016E62: FF 25 18 D2 01 10  jmp         dword ptr [__imp__WideCharToMultiByte@32]
_RaiseException@16:
  10016E68: FF 25 14 D2 01 10  jmp         dword ptr [__imp__RaiseException@16]
_lstrlenA@4:
  10016E6E: FF 25 10 D2 01 10  jmp         dword ptr [__imp__lstrlenA@4]
_GetProcAddress@8:
  10016E74: FF 25 0C D2 01 10  jmp         dword ptr [__imp__GetProcAddress@8]
_LoadLibraryW@4:
  10016E7A: FF 25 08 D2 01 10  jmp         dword ptr [__imp__LoadLibraryW@4]
_QueryPerformanceCounter@4:
  10016E80: FF 25 04 D2 01 10  jmp         dword ptr [__imp__QueryPerformanceCounter@4]
_GetTickCount@0:
  10016E86: FF 25 00 D2 01 10  jmp         dword ptr [__imp__GetTickCount@0]
_GetCurrentThreadId@0:
  10016E8C: FF 25 FC D1 01 10  jmp         dword ptr [__imp__GetCurrentThreadId@0]
_GetCurrentProcessId@0:
  10016E92: FF 25 F8 D1 01 10  jmp         dword ptr [__imp__GetCurrentProcessId@0]
_GetSystemTimeAsFileTime@4:
  10016E98: FF 25 F4 D1 01 10  jmp         dword ptr [__imp__GetSystemTimeAsFileTime@4]
_DisableThreadLibraryCalls@4:
  10016E9E: FF 25 F0 D1 01 10  jmp         dword ptr [__imp__DisableThreadLibraryCalls@4]
_HeapFree@12:
  10016EA4: FF 25 EC D1 01 10  jmp         dword ptr [__imp__HeapFree@12]
_HeapAlloc@12:
  10016EAA: FF 25 E8 D1 01 10  jmp         dword ptr [__imp__HeapAlloc@12]
_GetProcessHeap@0:
  10016EB0: FF 25 E4 D1 01 10  jmp         dword ptr [__imp__GetProcessHeap@0]
_GetModuleFileNameW@12:
  10016EB6: FF 25 E0 D1 01 10  jmp         dword ptr [__imp__GetModuleFileNameW@12]
_VirtualQuery@12:
  10016EBC: FF 25 DC D1 01 10  jmp         dword ptr [__imp__VirtualQuery@12]
_GetModuleHandleW@4:
  10016EC2: FF 25 D8 D1 01 10  jmp         dword ptr [__imp__GetModuleHandleW@4]
_FreeLibrary@4:
  10016EC8: FF 25 30 D2 01 10  jmp         dword ptr [__imp__FreeLibrary@4]
  10016ECE: CC CC CC CC CC CC CC CC CC CC CC CC CC CC CC CC  лллллллллллллллл
  10016EDE: CC CC CC CC CC CC CC CC CC CC CC CC CC CC CC CC  лллллллллллллллл
  10016EEE: CC CC CC CC CC CC CC CC CC CC CC CC CC CC CC CC  лллллллллллллллл
  10016EFE: CC CC CC CC CC CC CC CC CC CC CC CC CC CC CC CC  лллллллллллллллл
  10016F0E: CC CC CC CC CC CC CC CC CC CC CC CC CC CC CC CC  лллллллллллллллл
  10016F1E: CC CC CC CC CC CC CC CC CC CC CC CC CC CC CC CC  лллллллллллллллл
  10016F2E: CC CC CC CC CC CC CC CC CC CC CC CC CC CC CC CC  лллллллллллллллл
  10016F3E: CC CC CC CC CC CC CC CC CC CC CC CC CC CC CC CC  лллллллллллллллл
  10016F4E: CC CC CC CC CC CC CC CC CC CC CC CC CC CC CC CC  лллллллллллллллл
  10016F5E: CC CC CC CC CC CC CC CC CC CC CC CC CC CC CC CC  лллллллллллллллл
  10016F6E: CC CC CC CC CC CC CC CC CC CC CC CC CC CC CC CC  лллллллллллллллл
  10016F7E: CC CC CC CC CC CC CC CC CC CC CC CC CC CC CC CC  лллллллллллллллл
  10016F8E: CC CC CC CC CC CC CC CC CC CC CC CC CC CC CC CC  лллллллллллллллл
  10016F9E: CC CC CC CC CC CC CC CC CC CC CC CC CC CC CC CC  лллллллллллллллл
  10016FAE: CC CC CC CC CC CC CC CC CC CC CC CC CC CC CC CC  лллллллллллллллл
  10016FBE: CC CC CC CC CC CC CC CC CC CC CC CC CC CC CC CC  лллллллллллллллл
  10016FCE: CC CC CC CC CC CC CC CC CC CC CC CC CC CC CC CC  лллллллллллллллл
  10016FDE: CC CC CC CC CC CC CC CC CC CC CC CC CC CC CC CC  лллллллллллллллл
  10016FEE: CC CC CC CC CC CC CC CC CC CC CC CC CC CC CC CC  лллллллллллллллл
  10016FFE: CC CC CC CC CC CC CC CC CC CC CC CC CC CC CC CC  лллллллллллллллл
  1001700E: CC CC CC CC CC CC CC CC CC CC CC CC CC CC CC CC  лллллллллллллллл
  1001701E: CC CC CC CC CC CC CC CC CC CC CC CC CC CC CC CC  лллллллллллллллл
  1001702E: CC CC CC CC CC CC CC CC CC CC CC CC CC CC CC CC  лллллллллллллллл
  1001703E: CC CC CC CC CC CC CC CC CC CC CC CC CC CC CC CC  лллллллллллллллл
  1001704E: CC CC CC CC CC CC CC CC CC CC CC CC CC CC CC CC  лллллллллллллллл
  1001705E: CC CC CC CC CC CC CC CC CC CC CC CC CC CC CC CC  лллллллллллллллл
  1001706E: CC CC CC CC CC CC CC CC CC CC CC CC CC CC CC CC  лллллллллллллллл
  1001707E: CC CC CC CC CC CC CC CC CC CC CC CC CC CC CC CC  лллллллллллллллл
  1001708E: CC CC CC CC CC CC CC CC CC CC CC CC CC CC CC CC  лллллллллллллллл
  1001709E: CC CC CC CC CC CC CC CC CC CC CC CC CC CC CC CC  лллллллллллллллл
  100170AE: CC CC CC CC CC CC CC CC CC CC CC CC CC CC CC CC  лллллллллллллллл
  100170BE: CC CC CC CC CC CC CC CC CC CC CC CC CC CC CC CC  лллллллллллллллл
  100170CE: CC CC CC CC CC CC CC CC CC CC CC CC CC CC CC CC  лллллллллллллллл
  100170DE: CC CC CC CC CC CC CC CC CC CC CC CC CC CC CC CC  лллллллллллллллл
  100170EE: CC CC CC CC CC CC CC CC CC CC CC CC CC CC CC CC  лллллллллллллллл
  100170FE: CC CC CC CC CC CC CC CC CC CC CC CC CC CC CC CC  лллллллллллллллл
  1001710E: CC CC CC CC CC CC CC CC CC CC CC CC CC CC CC CC  лллллллллллллллл
  1001711E: CC CC CC CC CC CC CC CC CC CC CC CC CC CC CC CC  лллллллллллллллл
  1001712E: CC CC CC CC CC CC CC CC CC CC CC CC CC CC CC CC  лллллллллллллллл
  1001713E: CC CC CC CC CC CC CC CC CC CC CC CC CC CC CC CC  лллллллллллллллл
  1001714E: CC CC CC CC CC CC CC CC CC CC CC CC CC CC CC CC  лллллллллллллллл
  1001715E: CC CC CC CC CC CC CC CC CC CC CC CC CC CC CC CC  лллллллллллллллл
  1001716E: CC CC CC CC CC CC CC CC CC CC CC CC CC CC CC CC  лллллллллллллллл
  1001717E: CC CC CC CC CC CC CC CC CC CC CC CC CC CC CC CC  лллллллллллллллл
  1001718E: CC CC CC CC CC CC CC CC CC CC CC CC CC CC CC CC  лллллллллллллллл
  1001719E: CC CC CC CC CC CC CC CC CC CC CC CC CC CC CC CC  лллллллллллллллл
  100171AE: CC CC CC CC CC CC CC CC CC CC CC CC CC CC CC CC  лллллллллллллллл
  100171BE: CC CC CC CC CC CC CC CC CC CC CC CC CC CC CC CC  лллллллллллллллл
  100171CE: CC CC CC CC CC CC CC CC CC CC CC CC CC CC CC CC  лллллллллллллллл
  100171DE: CC CC CC CC CC CC CC CC CC CC CC CC CC CC CC CC  лллллллллллллллл
  100171EE: CC CC CC CC CC CC CC CC CC CC CC CC CC CC CC CC  лллллллллллллллл
  100171FE: CC CC CC CC CC CC CC CC CC CC CC CC CC CC CC CC  лллллллллллллллл
  1001720E: CC CC CC CC CC CC CC CC CC CC CC CC CC CC CC CC  лллллллллллллллл
  1001721E: CC CC CC CC CC CC CC CC CC CC CC CC CC CC CC CC  лллллллллллллллл
  1001722E: CC CC CC CC CC CC CC CC CC CC CC CC CC CC CC CC  лллллллллллллллл
  1001723E: CC CC CC CC CC CC CC CC CC CC CC CC CC CC CC CC  лллллллллллллллл
  1001724E: CC CC CC CC CC CC CC CC CC CC CC CC CC CC CC CC  лллллллллллллллл
  1001725E: CC CC CC CC CC CC CC CC CC CC CC CC CC CC CC CC  лллллллллллллллл
  1001726E: CC CC CC CC CC CC CC CC CC CC CC CC CC CC CC CC  лллллллллллллллл
  1001727E: CC CC CC CC CC CC CC CC CC CC CC CC CC CC CC CC  лллллллллллллллл
  1001728E: CC CC CC CC CC CC CC CC CC CC CC CC CC CC CC CC  лллллллллллллллл
  1001729E: CC CC CC CC CC CC CC CC CC CC CC CC CC CC CC CC  лллллллллллллллл
  100172AE: CC CC CC CC CC CC CC CC CC CC CC CC CC CC CC CC  лллллллллллллллл
  100172BE: CC CC CC CC CC CC CC CC CC CC CC CC CC CC CC CC  лллллллллллллллл
  100172CE: CC CC CC CC CC CC CC CC CC CC CC CC CC CC CC CC  лллллллллллллллл
  100172DE: CC CC CC CC CC CC CC CC CC CC CC CC CC CC CC CC  лллллллллллллллл
  100172EE: CC CC CC CC CC CC CC CC CC CC CC CC CC CC CC CC  лллллллллллллллл
  100172FE: CC CC CC CC CC CC CC CC CC CC CC CC CC CC CC CC  лллллллллллллллл
  1001730E: CC CC CC CC CC CC CC CC CC CC CC CC CC CC CC CC  лллллллллллллллл
  1001731E: CC CC CC CC CC CC CC CC CC CC CC CC CC CC CC CC  лллллллллллллллл
  1001732E: CC CC CC CC CC CC CC CC CC CC CC CC CC CC CC CC  лллллллллллллллл
  1001733E: CC CC CC CC CC CC CC CC CC CC CC CC CC CC CC CC  лллллллллллллллл
  1001734E: CC CC CC CC CC CC CC CC CC CC CC CC CC CC CC CC  лллллллллллллллл
  1001735E: CC CC CC CC CC CC CC CC CC CC CC CC CC CC CC CC  лллллллллллллллл
  1001736E: CC CC CC CC CC CC CC CC CC CC CC CC CC CC CC CC  лллллллллллллллл
  1001737E: CC CC CC CC CC CC CC CC CC CC CC CC CC CC CC CC  лллллллллллллллл
  1001738E: CC CC CC CC CC CC CC CC CC CC CC CC CC CC CC CC  лллллллллллллллл
  1001739E: CC CC CC CC CC CC CC CC CC CC CC CC CC CC CC CC  лллллллллллллллл
  100173AE: CC CC CC CC CC CC CC CC CC CC CC CC CC CC CC CC  лллллллллллллллл
  100173BE: CC CC CC CC CC CC CC CC CC CC CC CC CC CC CC CC  лллллллллллллллл
  100173CE: CC CC CC CC CC CC CC CC CC CC CC CC CC CC CC CC  лллллллллллллллл
  100173DE: CC CC CC CC CC CC CC CC CC CC CC CC CC CC CC CC  лллллллллллллллл
  100173EE: CC CC CC CC CC CC CC CC CC CC CC CC CC CC CC CC  лллллллллллллллл
  100173FE: CC CC CC CC CC CC CC CC CC CC CC CC CC CC CC CC  лллллллллллллллл
  1001740E: CC CC CC CC CC CC CC CC CC CC CC CC CC CC CC CC  лллллллллллллллл
  1001741E: CC CC CC CC CC CC CC CC CC CC CC CC CC CC CC CC  лллллллллллллллл
  1001742E: CC CC CC CC CC CC CC CC CC CC CC CC CC CC CC CC  лллллллллллллллл
  1001743E: CC CC CC CC CC CC CC CC CC CC CC CC CC CC CC CC  лллллллллллллллл
  1001744E: CC CC CC CC CC CC CC CC CC CC CC CC CC CC CC CC  лллллллллллллллл
  1001745E: CC CC CC CC CC CC CC CC CC CC CC CC CC CC CC CC  лллллллллллллллл
  1001746E: CC CC CC CC CC CC CC CC CC CC CC CC CC CC CC CC  лллллллллллллллл
  1001747E: CC CC CC CC CC CC CC CC CC CC CC CC CC CC CC CC  лллллллллллллллл
  1001748E: CC CC CC CC CC CC CC CC CC CC CC CC CC CC CC CC  лллллллллллллллл
  1001749E: CC CC CC CC CC CC CC CC CC CC CC CC CC CC CC CC  лллллллллллллллл
  100174AE: CC CC CC CC CC CC CC CC CC CC CC CC CC CC CC CC  лллллллллллллллл
  100174BE: CC CC CC CC CC CC CC CC CC CC CC CC CC CC CC CC  лллллллллллллллл
  100174CE: CC CC CC CC CC CC CC CC CC CC CC CC CC CC CC CC  лллллллллллллллл
  100174DE: CC CC CC CC CC CC CC CC CC CC CC CC CC CC CC CC  лллллллллллллллл
  100174EE: CC CC CC CC CC CC CC CC CC CC CC CC CC CC CC CC  лллллллллллллллл
  100174FE: CC CC CC CC CC CC CC CC CC CC CC CC CC CC CC CC  лллллллллллллллл
  1001750E: CC CC CC CC CC CC CC CC CC CC CC CC CC CC CC CC  лллллллллллллллл
  1001751E: CC CC CC CC CC CC CC CC CC CC CC CC CC CC CC CC  лллллллллллллллл
  1001752E: CC CC CC CC CC CC CC CC CC CC CC CC CC CC CC CC  лллллллллллллллл
  1001753E: CC CC CC CC CC CC CC CC CC CC CC CC CC CC CC CC  лллллллллллллллл
  1001754E: CC CC CC CC CC CC CC CC CC CC CC CC CC CC CC CC  лллллллллллллллл
  1001755E: CC CC CC CC CC CC CC CC CC CC CC CC CC CC CC CC  лллллллллллллллл
  1001756E: CC CC CC CC CC CC CC CC CC CC CC CC CC CC CC CC  лллллллллллллллл
  1001757E: CC CC CC CC CC CC CC CC CC CC CC CC CC CC CC CC  лллллллллллллллл
  1001758E: CC CC CC CC CC CC CC CC CC CC CC CC CC CC CC CC  лллллллллллллллл
  1001759E: CC CC CC CC CC CC CC CC CC CC CC CC CC CC CC CC  лллллллллллллллл
  100175AE: CC CC CC CC CC CC CC CC CC CC CC CC CC CC CC CC  лллллллллллллллл
  100175BE: CC CC CC CC CC CC CC CC CC CC CC CC CC CC CC CC  лллллллллллллллл
  100175CE: CC CC CC CC CC CC CC CC CC CC CC CC CC CC CC CC  лллллллллллллллл
  100175DE: CC CC CC CC CC CC CC CC CC CC CC CC CC CC CC CC  лллллллллллллллл
  100175EE: CC CC CC CC CC CC CC CC CC CC CC CC CC CC CC CC  лллллллллллллллл
  100175FE: CC CC CC CC CC CC CC CC CC CC CC CC CC CC CC CC  лллллллллллллллл
  1001760E: CC CC CC CC CC CC CC CC CC CC CC CC CC CC CC CC  лллллллллллллллл
  1001761E: CC CC CC CC CC CC CC CC CC CC CC CC CC CC CC CC  лллллллллллллллл
  1001762E: CC CC CC CC CC CC CC CC CC CC CC CC CC CC CC CC  лллллллллллллллл
  1001763E: CC CC CC CC CC CC CC CC CC CC CC CC CC CC CC CC  лллллллллллллллл
  1001764E: CC CC CC CC CC CC CC CC CC CC CC CC CC CC CC CC  лллллллллллллллл
  1001765E: CC CC CC CC CC CC CC CC CC CC CC CC CC CC CC CC  лллллллллллллллл
  1001766E: CC CC CC CC CC CC CC CC CC CC CC CC CC CC CC CC  лллллллллллллллл
  1001767E: CC CC CC CC CC CC CC CC CC CC CC CC CC CC CC CC  лллллллллллллллл
  1001768E: CC CC CC CC CC CC CC CC CC CC CC CC CC CC CC CC  лллллллллллллллл
  1001769E: CC CC CC CC CC CC CC CC CC CC CC CC CC CC CC CC  лллллллллллллллл
  100176AE: CC CC CC CC CC CC CC CC CC CC CC CC CC CC CC CC  лллллллллллллллл
  100176BE: CC CC CC CC CC CC CC CC CC CC CC CC CC CC CC CC  лллллллллллллллл
  100176CE: CC CC CC CC CC CC CC CC CC CC CC CC CC CC CC CC  лллллллллллллллл
  100176DE: CC CC CC CC CC CC CC CC CC CC CC CC CC CC CC CC  лллллллллллллллл
  100176EE: CC CC CC CC CC CC CC CC CC CC CC CC CC CC CC CC  лллллллллллллллл
  100176FE: CC CC CC CC CC CC CC CC CC CC CC CC CC CC CC CC  лллллллллллллллл
  1001770E: CC CC CC CC CC CC CC CC CC CC CC CC CC CC CC CC  лллллллллллллллл
  1001771E: CC CC CC CC CC CC CC CC CC CC CC CC CC CC CC CC  лллллллллллллллл
  1001772E: CC CC CC CC CC CC CC CC CC CC CC CC CC CC CC CC  лллллллллллллллл
  1001773E: CC CC CC CC CC CC CC CC CC CC CC CC CC CC CC CC  лллллллллллллллл
  1001774E: CC CC CC CC CC CC CC CC CC CC CC CC CC CC CC CC  лллллллллллллллл
  1001775E: CC CC CC CC CC CC CC CC CC CC CC CC CC CC CC CC  лллллллллллллллл
  1001776E: CC CC CC CC CC CC CC CC CC CC CC CC CC CC CC CC  лллллллллллллллл
  1001777E: CC CC CC CC CC CC CC CC CC CC CC CC CC CC CC CC  лллллллллллллллл
  1001778E: CC CC CC CC CC CC CC CC CC CC CC CC CC CC CC CC  лллллллллллллллл
  1001779E: CC CC CC CC CC CC CC CC CC CC CC CC CC CC CC CC  лллллллллллллллл
  100177AE: CC CC CC CC CC CC CC CC CC CC CC CC CC CC CC CC  лллллллллллллллл
  100177BE: CC CC CC CC CC CC CC CC CC CC CC CC CC CC CC CC  лллллллллллллллл
  100177CE: CC CC CC CC CC CC CC CC CC CC CC CC CC CC CC CC  лллллллллллллллл
  100177DE: CC CC CC CC CC CC CC CC CC CC CC CC CC CC CC CC  лллллллллллллллл
  100177EE: CC CC CC CC CC CC CC CC CC CC CC CC CC CC CC CC  лллллллллллллллл
  100177FE: CC CC CC CC CC CC CC CC CC CC CC CC CC CC CC CC  лллллллллллллллл
  1001780E: CC CC CC CC CC CC CC CC CC CC CC CC CC CC CC CC  лллллллллллллллл
  1001781E: CC CC CC CC CC CC CC CC CC CC CC CC CC CC CC CC  лллллллллллллллл
  1001782E: CC CC CC CC CC CC CC CC CC CC CC CC CC CC CC CC  лллллллллллллллл
  1001783E: CC CC CC CC CC CC CC CC CC CC CC CC CC CC CC CC  лллллллллллллллл
  1001784E: CC CC CC CC CC CC CC CC CC CC CC CC CC CC CC CC  лллллллллллллллл
  1001785E: CC CC CC CC CC CC CC CC CC CC CC CC CC CC CC CC  лллллллллллллллл
  1001786E: CC CC CC CC CC CC CC CC CC CC CC CC CC CC CC CC  лллллллллллллллл
  1001787E: CC CC CC CC CC CC CC CC CC CC CC CC CC CC CC CC  лллллллллллллллл
  1001788E: CC CC CC CC CC CC CC CC CC CC CC CC CC CC CC CC  лллллллллллллллл
  1001789E: CC CC CC CC CC CC CC CC CC CC CC CC CC CC CC CC  лллллллллллллллл
  100178AE: CC CC CC CC CC CC CC CC CC CC CC CC CC CC CC CC  лллллллллллллллл
  100178BE: CC CC CC CC CC CC CC CC CC CC CC CC CC CC CC CC  лллллллллллллллл
  100178CE: CC CC CC CC CC CC CC CC CC CC CC CC CC CC CC CC  лллллллллллллллл
  100178DE: CC CC CC CC CC CC CC CC CC CC CC CC CC CC CC CC  лллллллллллллллл
  100178EE: CC CC CC CC CC CC CC CC CC CC CC CC CC CC CC CC  лллллллллллллллл
  100178FE: CC CC CC CC CC CC CC CC CC CC CC CC CC CC CC CC  лллллллллллллллл
  1001790E: CC CC CC CC CC CC CC CC CC CC CC CC CC CC CC CC  лллллллллллллллл
  1001791E: CC CC CC CC CC CC CC CC CC CC CC CC CC CC CC CC  лллллллллллллллл
  1001792E: CC CC CC CC CC CC CC CC CC CC CC CC CC CC CC CC  лллллллллллллллл
  1001793E: CC CC CC CC CC CC CC CC CC CC CC CC CC CC CC CC  лллллллллллллллл
  1001794E: CC CC CC CC CC CC CC CC CC CC CC CC CC CC CC CC  лллллллллллллллл
  1001795E: CC CC CC CC CC CC CC CC CC CC CC CC CC CC CC CC  лллллллллллллллл
  1001796E: CC CC CC CC CC CC CC CC CC CC CC CC CC CC CC CC  лллллллллллллллл
  1001797E: CC CC CC CC CC CC CC CC CC CC CC CC CC CC CC CC  лллллллллллллллл
  1001798E: CC CC CC CC CC CC CC CC CC CC CC CC CC CC CC CC  лллллллллллллллл
  1001799E: CC CC CC CC CC CC CC CC CC CC CC CC CC CC CC CC  лллллллллллллллл
  100179AE: CC CC CC CC CC CC CC CC CC CC CC CC CC CC CC CC  лллллллллллллллл
  100179BE: CC CC CC CC CC CC CC CC CC CC CC CC CC CC CC CC  лллллллллллллллл
  100179CE: CC CC CC CC CC CC CC CC CC CC CC CC CC CC CC CC  лллллллллллллллл
  100179DE: CC CC CC CC CC CC CC CC CC CC CC CC CC CC CC CC  лллллллллллллллл
  100179EE: CC CC CC CC CC CC CC CC CC CC CC CC CC CC CC CC  лллллллллллллллл
  100179FE: CC CC CC CC CC CC CC CC CC CC CC CC CC CC CC CC  лллллллллллллллл
  10017A0E: CC CC CC CC CC CC CC CC CC CC CC CC CC CC CC CC  лллллллллллллллл
  10017A1E: CC CC CC CC CC CC CC CC CC CC CC CC CC CC CC CC  лллллллллллллллл
  10017A2E: CC CC CC CC CC CC CC CC CC CC CC CC CC CC CC CC  лллллллллллллллл
  10017A3E: CC CC CC CC CC CC CC CC CC CC CC CC CC CC CC CC  лллллллллллллллл
  10017A4E: CC CC CC CC CC CC CC CC CC CC CC CC CC CC CC CC  лллллллллллллллл
  10017A5E: CC CC CC CC CC CC CC CC CC CC CC CC CC CC CC CC  лллллллллллллллл
  10017A6E: CC CC CC CC CC CC CC CC CC CC CC CC CC CC CC CC  лллллллллллллллл
  10017A7E: CC CC CC CC CC CC CC CC CC CC CC CC CC CC CC CC  лллллллллллллллл
  10017A8E: CC CC CC CC CC CC CC CC CC CC CC CC CC CC CC CC  лллллллллллллллл
  10017A9E: CC CC CC CC CC CC CC CC CC CC CC CC CC CC CC CC  лллллллллллллллл
  10017AAE: CC CC CC CC CC CC CC CC CC CC CC CC CC CC CC CC  лллллллллллллллл
  10017ABE: CC CC CC CC CC CC CC CC CC CC CC CC CC CC CC CC  лллллллллллллллл
  10017ACE: CC CC CC CC CC CC CC CC CC CC CC CC CC CC CC CC  лллллллллллллллл
  10017ADE: CC CC CC CC CC CC CC CC CC CC CC CC CC CC CC CC  лллллллллллллллл
  10017AEE: CC CC CC CC CC CC CC CC CC CC CC CC CC CC CC CC  лллллллллллллллл
  10017AFE: CC CC CC CC CC CC CC CC CC CC CC CC CC CC CC CC  лллллллллллллллл
  10017B0E: CC CC CC CC CC CC CC CC CC CC CC CC CC CC CC CC  лллллллллллллллл
  10017B1E: CC CC CC CC CC CC CC CC CC CC CC CC CC CC CC CC  лллллллллллллллл
  10017B2E: CC CC CC CC CC CC CC CC CC CC CC CC CC CC CC CC  лллллллллллллллл
  10017B3E: CC CC CC CC CC CC CC CC CC CC CC CC CC CC CC CC  лллллллллллллллл
  10017B4E: CC CC CC CC CC CC CC CC CC CC CC CC CC CC CC CC  лллллллллллллллл
  10017B5E: CC CC CC CC CC CC CC CC CC CC CC CC CC CC CC CC  лллллллллллллллл
  10017B6E: CC CC CC CC CC CC CC CC CC CC CC CC CC CC CC CC  лллллллллллллллл
  10017B7E: CC CC CC CC CC CC CC CC CC CC CC CC CC CC CC CC  лллллллллллллллл
  10017B8E: CC CC CC CC CC CC CC CC CC CC CC CC CC CC CC CC  лллллллллллллллл
  10017B9E: CC CC CC CC CC CC CC CC CC CC CC CC CC CC CC CC  лллллллллллллллл
  10017BAE: CC CC CC CC CC CC CC CC CC CC CC CC CC CC CC CC  лллллллллллллллл
  10017BBE: CC CC CC CC CC CC CC CC CC CC CC CC CC CC CC CC  лллллллллллллллл
  10017BCE: CC CC CC CC CC CC CC CC CC CC CC CC CC CC CC CC  лллллллллллллллл
  10017BDE: CC CC CC CC CC CC CC CC CC CC CC CC CC CC CC CC  лллллллллллллллл
  10017BEE: CC CC CC CC CC CC CC CC CC CC CC CC CC CC CC CC  лллллллллллллллл
  10017BFE: CC CC CC CC CC CC CC CC CC CC CC CC CC CC CC CC  лллллллллллллллл
  10017C0E: CC CC CC CC CC CC CC CC CC CC CC CC CC CC CC CC  лллллллллллллллл
  10017C1E: CC CC CC CC CC CC CC CC CC CC CC CC CC CC CC CC  лллллллллллллллл
  10017C2E: CC CC CC CC CC CC CC CC CC CC CC CC CC CC CC CC  лллллллллллллллл
  10017C3E: CC CC CC CC CC CC CC CC CC CC CC CC CC CC CC CC  лллллллллллллллл
  10017C4E: CC CC CC CC CC CC CC CC CC CC CC CC CC CC CC CC  лллллллллллллллл
  10017C5E: CC CC CC CC CC CC CC CC CC CC CC CC CC CC CC CC  лллллллллллллллл
  10017C6E: CC CC CC CC CC CC CC CC CC CC CC CC CC CC CC CC  лллллллллллллллл
  10017C7E: CC CC CC CC CC CC CC CC CC CC CC CC CC CC CC CC  лллллллллллллллл
  10017C8E: CC CC CC CC CC CC CC CC CC CC CC CC CC CC CC CC  лллллллллллллллл
  10017C9E: CC CC CC CC CC CC CC CC CC CC CC CC CC CC CC CC  лллллллллллллллл
  10017CAE: CC CC CC CC CC CC CC CC CC CC CC CC CC CC CC CC  лллллллллллллллл
  10017CBE: CC CC CC CC CC CC CC CC CC CC CC CC CC CC CC CC  лллллллллллллллл
  10017CCE: CC CC CC CC CC CC CC CC CC CC CC CC CC CC CC CC  лллллллллллллллл
  10017CDE: CC CC CC CC CC CC CC CC CC CC CC CC CC CC CC CC  лллллллллллллллл
  10017CEE: CC CC CC CC CC CC CC CC CC CC CC CC CC CC CC CC  лллллллллллллллл
  10017CFE: CC CC CC CC CC CC CC CC CC CC CC CC CC CC CC CC  лллллллллллллллл
  10017D0E: CC CC CC CC CC CC CC CC CC CC CC CC CC CC CC CC  лллллллллллллллл
  10017D1E: CC CC CC CC CC CC CC CC CC CC CC CC CC CC CC CC  лллллллллллллллл
  10017D2E: CC CC CC CC CC CC CC CC CC CC CC CC CC CC CC CC  лллллллллллллллл
  10017D3E: CC CC CC CC CC CC CC CC CC CC CC CC CC CC CC CC  лллллллллллллллл
  10017D4E: CC CC CC CC CC CC CC CC CC CC CC CC CC CC CC CC  лллллллллллллллл
  10017D5E: CC CC CC CC CC CC CC CC CC CC CC CC CC CC CC CC  лллллллллллллллл
  10017D6E: CC CC CC CC CC CC CC CC CC CC CC CC CC CC CC CC  лллллллллллллллл
  10017D7E: CC CC CC CC CC CC CC CC CC CC CC CC CC CC CC CC  лллллллллллллллл
  10017D8E: CC CC CC CC CC CC CC CC CC CC CC CC CC CC CC CC  лллллллллллллллл
  10017D9E: CC CC CC CC CC CC CC CC CC CC CC CC CC CC CC CC  лллллллллллллллл
  10017DAE: CC CC CC CC CC CC CC CC CC CC CC CC CC CC CC CC  лллллллллллллллл
  10017DBE: CC CC CC CC CC CC CC CC CC CC CC CC CC CC CC CC  лллллллллллллллл
  10017DCE: CC CC CC CC CC CC CC CC CC CC CC CC CC CC CC CC  лллллллллллллллл
  10017DDE: CC CC CC CC CC CC CC CC CC CC CC CC CC CC CC CC  лллллллллллллллл
  10017DEE: CC CC CC CC CC CC CC CC CC CC CC CC CC CC CC CC  лллллллллллллллл
  10017DFE: CC CC CC CC CC CC CC CC CC CC CC CC CC CC CC CC  лллллллллллллллл
  10017E0E: CC CC CC CC CC CC CC CC CC CC CC CC CC CC CC CC  лллллллллллллллл
  10017E1E: CC CC CC CC CC CC CC CC CC CC CC 00 00 00 00 00  ллллллллллл.....

  Summary

        1000 .data
        1000 .idata
        4000 .rdata
        1000 .reloc
        1000 .rsrc
        7000 .text
       10000 .textbss
