Microsoft (R) COFF/PE Dumper Version 10.00.40219.01
Copyright (C) Microsoft Corporation.  All rights reserved.


Dump of file C:\Users\Harsha\Desktop\dbwin32.exe

File Type: EXECUTABLE IMAGE

  00401000: A1 30 D0 40 00     mov         eax,dword ptr ds:[0040D030h]
  00401005: 83 EC 78           sub         esp,78h
  00401008: 50                 push        eax
  00401009: FF 15 14 34 41 00  call        dword ptr ds:[00413414h]
  0040100F: 85 C0              test        eax,eax
  00401011: A3 38 11 41 00     mov         dword ptr ds:[00411138h],eax
  00401016: 75 30              jne         00401048
  00401018: 8B 0D 30 D0 40 00  mov         ecx,dword ptr ds:[0040D030h]
  0040101E: 8D 54 24 28        lea         edx,[esp+28h]
  00401022: 51                 push        ecx
  00401023: 68 58 D0 40 00     push        40D058h
  00401028: 52                 push        edx
  00401029: E8 A2 2D 00 00     call        00403DD0
  0040102E: 83 C4 0C           add         esp,0Ch
  00401031: 8D 44 24 28        lea         eax,[esp+28h]
  00401035: 6A 00              push        0
  00401037: 6A 00              push        0
  00401039: 50                 push        eax
  0040103A: 6A 00              push        0
  0040103C: FF 15 84 34 41 00  call        dword ptr ds:[00413484h]
  00401042: 33 C0              xor         eax,eax
  00401044: 83 C4 78           add         esp,78h
  00401047: C3                 ret
  00401048: 8D 4C 24 00        lea         ecx,[esp]
  0040104C: 51                 push        ecx
  0040104D: 68 4C D0 40 00     push        40D04Ch
  00401052: 6A 00              push        0
  00401054: FF 15 80 34 41 00  call        dword ptr ds:[00413480h]
  0040105A: 85 C0              test        eax,eax
  0040105C: 75 04              jne         00401062
  0040105E: 83 C4 78           add         esp,78h
  00401061: C3                 ret
  00401062: 8B 44 24 00        mov         eax,dword ptr [esp]
  00401066: 8B 54 24 04        mov         edx,dword ptr [esp+4]
  0040106A: 80 CC 40           or          ah,40h
  0040106D: 8D 4C 24 00        lea         ecx,[esp]
  00401071: 80 CC 20           or          ah,20h
  00401074: 51                 push        ecx
  00401075: 80 CC 10           or          ah,10h
  00401078: 89 15 40 11 41 00  mov         dword ptr ds:[00411140h],edx
  0040107E: 89 44 24 04        mov         dword ptr [esp+4],eax
  00401082: 8B 44 24 10        mov         eax,dword ptr [esp+10h]
  00401086: A3 3C 11 41 00     mov         dword ptr ds:[0041113Ch],eax
  0040108B: 83 C0 04           add         eax,4
  0040108E: 89 44 24 10        mov         dword ptr [esp+10h],eax
  00401092: 8B 84 24 80 00 00  mov         eax,dword ptr [esp+00000080h]
            00
  00401099: C7 44 24 08 E0 10  mov         dword ptr [esp+8],4010E0h
            40 00
  004010A1: 89 44 24 14        mov         dword ptr [esp+14h],eax
  004010A5: C7 44 24 24 00 00  mov         dword ptr [esp+24h],0
            00 00
  004010AD: C7 44 24 28 44 D0  mov         dword ptr [esp+28h],40D044h
            40 00
  004010B5: FF 15 70 34 41 00  call        dword ptr ds:[00413470h]
  004010BB: 25 FF FF 00 00     and         eax,0FFFFh
  004010C0: 83 C4 78           add         esp,78h
  004010C3: C3                 ret
  004010C4: 90                 nop
  004010C5: 90                 nop
  004010C6: 90                 nop
  004010C7: 90                 nop
  004010C8: 90                 nop
  004010C9: 90                 nop
  004010CA: 90                 nop
  004010CB: 90                 nop
  004010CC: 90                 nop
  004010CD: 90                 nop
  004010CE: 90                 nop
  004010CF: 90                 nop
  004010D0: A1 38 11 41 00     mov         eax,dword ptr ds:[00411138h]
  004010D5: 50                 push        eax
  004010D6: FF 15 18 34 41 00  call        dword ptr ds:[00413418h]
  004010DC: C3                 ret
  004010DD: 90                 nop
  004010DE: 90                 nop
  004010DF: 90                 nop
  004010E0: 53                 push        ebx
  004010E1: 8B 5C 24 0C        mov         ebx,dword ptr [esp+0Ch]
  004010E5: 55                 push        ebp
  004010E6: 8B 6C 24 18        mov         ebp,dword ptr [esp+18h]
  004010EA: 56                 push        esi
  004010EB: 57                 push        edi
  004010EC: 8B 7C 24 14        mov         edi,dword ptr [esp+14h]
  004010F0: 81 FB C5 00 00 00  cmp         ebx,0C5h
  004010F6: 0F 87 28 01 00 00  ja          00401224
  004010FC: 81 FB C5 00 00 00  cmp         ebx,0C5h
  00401102: 0F 84 BD 00 00 00  je          004011C5
  00401108: 8B C3              mov         eax,ebx
  0040110A: 48                 dec         eax
  0040110B: 74 6E              je          0040117B
  0040110D: 48                 dec         eax
  0040110E: 75 4F              jne         0040115F
  00401110: A1 3C 11 41 00     mov         eax,dword ptr ds:[0041113Ch]
  00401115: 50                 push        eax
  00401116: 57                 push        edi
  00401117: FF 15 78 34 41 00  call        dword ptr ds:[00413478h]
  0040111D: 8B F0              mov         esi,eax
  0040111F: 85 F6              test        esi,esi
  00401121: 74 3C              je          0040115F
  00401123: 8B 46 1C           mov         eax,dword ptr [esi+1Ch]
  00401126: 85 C0              test        eax,eax
  00401128: 74 10              je          0040113A
  0040112A: 6A 01              push        1
  0040112C: 57                 push        edi
  0040112D: FF 15 9C 34 41 00  call        dword ptr ds:[0041349Ch]
  00401133: C7 46 1C 00 00 00  mov         dword ptr [esi+1Ch],0
            00
  0040113A: 8B 4E 0C           mov         ecx,dword ptr [esi+0Ch]
  0040113D: 51                 push        ecx
  0040113E: E8 5D 07 00 00     call        004018A0
  00401143: 83 C4 04           add         esp,4
  00401146: 56                 push        esi
  00401147: E8 A4 2D 00 00     call        00403EF0
  0040114C: 8B 15 3C 11 41 00  mov         edx,dword ptr ds:[0041113Ch]
  00401152: 83 C4 04           add         esp,4
  00401155: 6A 00              push        0
  00401157: 52                 push        edx
  00401158: 57                 push        edi
  00401159: FF 15 98 34 41 00  call        dword ptr ds:[00413498h]
  0040115F: 8B 4C 24 1C        mov         ecx,dword ptr [esp+1Ch]
  00401163: 8B 15 40 11 41 00  mov         edx,dword ptr ds:[00411140h]
  00401169: 55                 push        ebp
  0040116A: 51                 push        ecx
  0040116B: 53                 push        ebx
  0040116C: 57                 push        edi
  0040116D: 52                 push        edx
  0040116E: FF 15 88 34 41 00  call        dword ptr ds:[00413488h]
  00401174: 5F                 pop         edi
  00401175: 5E                 pop         esi
  00401176: 5D                 pop         ebp
  00401177: 5B                 pop         ebx
  00401178: C2 10 00           ret         10h
  0040117B: 6A 20              push        20h
  0040117D: 6A 01              push        1
  0040117F: E8 BC 2C 00 00     call        00403E40
  00401184: 83 C4 08           add         esp,8
  00401187: 8B F0              mov         esi,eax
  00401189: A1 3C 11 41 00     mov         eax,dword ptr ds:[0041113Ch]
  0040118E: 56                 push        esi
  0040118F: 50                 push        eax
  00401190: 57                 push        edi
  00401191: FF 15 98 34 41 00  call        dword ptr ds:[00413498h]
  00401197: 85 F6              test        esi,esi
  00401199: 75 0A              jne         004011A5
  0040119B: 83 C8 FF           or          eax,0FFFFFFFFh
  0040119E: 5F                 pop         edi
  0040119F: 5E                 pop         esi
  004011A0: 5D                 pop         ebp
  004011A1: 5B                 pop         ebx
  004011A2: C2 10 00           ret         10h
  004011A5: 8B 4C 24 1C        mov         ecx,dword ptr [esp+1Ch]
  004011A9: 55                 push        ebp
  004011AA: 51                 push        ecx
  004011AB: 6A 01              push        1
  004011AD: 57                 push        edi
  004011AE: 56                 push        esi
  004011AF: E8 1C 06 00 00     call        004017D0
  004011B4: 83 C4 14           add         esp,14h
  004011B7: 83 F8 FF           cmp         eax,0FFFFFFFFh
  004011BA: 75 A3              jne         0040115F
  004011BC: 0B C0              or          eax,eax
  004011BE: 5F                 pop         edi
  004011BF: 5E                 pop         esi
  004011C0: 5D                 pop         ebp
  004011C1: 5B                 pop         ebx
  004011C2: C2 10 00           ret         10h
  004011C5: 8B 54 24 20        mov         edx,dword ptr [esp+20h]
  004011C9: 8B 44 24 1C        mov         eax,dword ptr [esp+1Ch]
  004011CD: 8B 7C 24 14        mov         edi,dword ptr [esp+14h]
  004011D1: 8B 0D 40 11 41 00  mov         ecx,dword ptr ds:[00411140h]
  004011D7: 52                 push        edx
  004011D8: 50                 push        eax
  004011D9: 68 C5 00 00 00     push        0C5h
  004011DE: 57                 push        edi
  004011DF: 51                 push        ecx
  004011E0: FF 15 88 34 41 00  call        dword ptr ds:[00413488h]
  004011E6: 8B 15 3C 11 41 00  mov         edx,dword ptr ds:[0041113Ch]
  004011EC: 8B D8              mov         ebx,eax
  004011EE: 52                 push        edx
  004011EF: 57                 push        edi
  004011F0: FF 15 78 34 41 00  call        dword ptr ds:[00413478h]
  004011F6: 8B F0              mov         esi,eax
  004011F8: 85 F6              test        esi,esi
  004011FA: 74 1F              je          0040121B
  004011FC: 6A 00              push        0
  004011FE: 6A 00              push        0
  00401200: 68 D5 00 00 00     push        0D5h
  00401205: 57                 push        edi
  00401206: FF 15 90 34 41 00  call        dword ptr ds:[00413490h]
  0040120C: 89 06              mov         dword ptr [esi],eax
  0040120E: 50                 push        eax
  0040120F: 8B 46 0C           mov         eax,dword ptr [esi+0Ch]
  00401212: 50                 push        eax
  00401213: E8 B8 06 00 00     call        004018D0
  00401218: 83 C4 08           add         esp,8
  0040121B: 8B C3              mov         eax,ebx
  0040121D: 5F                 pop         edi
  0040121E: 5E                 pop         esi
  0040121F: 5D                 pop         ebp
  00401220: 5B                 pop         ebx
  00401221: C2 10 00           ret         10h
  00401224: 81 FB C8 04 00 00  cmp         ebx,4C8h
  0040122A: 0F 87 D7 00 00 00  ja          00401307
  00401230: 0F 84 90 00 00 00  je          004012C6
  00401236: 8B C3              mov         eax,ebx
  00401238: 2D 13 01 00 00     sub         eax,113h
  0040123D: 74 22              je          00401261
  0040123F: 83 E8 02           sub         eax,2
  00401242: 0F 85 17 FF FF FF  jne         0040115F
  00401248: 8B 4C 24 1C        mov         ecx,dword ptr [esp+1Ch]
  0040124C: 55                 push        ebp
  0040124D: 51                 push        ecx
  0040124E: 68 15 01 00 00     push        115h
  00401253: 57                 push        edi
  00401254: E8 77 03 00 00     call        004015D0
  00401259: 83 C4 10           add         esp,10h
  0040125C: E9 FE FE FF FF     jmp         0040115F
  00401261: 8B 15 3C 11 41 00  mov         edx,dword ptr ds:[0041113Ch]
  00401267: 8B 5C 24 14        mov         ebx,dword ptr [esp+14h]
  0040126B: 52                 push        edx
  0040126C: 53                 push        ebx
  0040126D: FF 15 78 34 41 00  call        dword ptr ds:[00413478h]
  00401273: 8B F0              mov         esi,eax
  00401275: 8B 46 08           mov         eax,dword ptr [esi+8]
  00401278: 85 C0              test        eax,eax
  0040127A: 75 31              jne         004012AD
  0040127C: 8B 46 0C           mov         eax,dword ptr [esi+0Ch]
  0040127F: 50                 push        eax
  00401280: E8 6B 07 00 00     call        004019F0
  00401285: 8B F8              mov         edi,eax
  00401287: 83 C4 04           add         esp,4
  0040128A: 85 FF              test        edi,edi
  0040128C: 74 1F              je          004012AD
  0040128E: 8B 4F 08           mov         ecx,dword ptr [edi+8]
  00401291: 51                 push        ecx
  00401292: 56                 push        esi
  00401293: E8 68 02 00 00     call        00401500
  00401298: 83 C4 08           add         esp,8
  0040129B: 57                 push        edi
  0040129C: E8 4F 2C 00 00     call        00403EF0
  004012A1: 83 C4 04           add         esp,4
  004012A4: 33 C0              xor         eax,eax
  004012A6: 5F                 pop         edi
  004012A7: 5E                 pop         esi
  004012A8: 5D                 pop         ebp
  004012A9: 5B                 pop         ebx
  004012AA: C2 10 00           ret         10h
  004012AD: 6A 00              push        0
  004012AF: 6A 00              push        0
  004012B1: 68 D2 04 00 00     push        4D2h
  004012B6: 53                 push        ebx
  004012B7: FF 15 8C 34 41 00  call        dword ptr ds:[0041348Ch]
  004012BD: 33 C0              xor         eax,eax
  004012BF: 5F                 pop         edi
  004012C0: 5E                 pop         esi
  004012C1: 5D                 pop         ebp
  004012C2: 5B                 pop         ebx
  004012C3: C2 10 00           ret         10h
  004012C6: 8B 15 3C 11 41 00  mov         edx,dword ptr ds:[0041113Ch]
  004012CC: 8B 44 24 14        mov         eax,dword ptr [esp+14h]
  004012D0: 52                 push        edx
  004012D1: 50                 push        eax
  004012D2: FF 15 78 34 41 00  call        dword ptr ds:[00413478h]
  004012D8: 85 C0              test        eax,eax
  004012DA: 0F 84 D3 00 00 00  je          004013B3
  004012E0: 8B 4C 24 20        mov         ecx,dword ptr [esp+20h]
  004012E4: 85 C9              test        ecx,ecx
  004012E6: 0F 84 C7 00 00 00  je          004013B3
  004012EC: 6A 00              push        0
  004012EE: 51                 push        ecx
  004012EF: 8B 48 0C           mov         ecx,dword ptr [eax+0Ch]
  004012F2: 51                 push        ecx
  004012F3: E8 F8 05 00 00     call        004018F0
  004012F8: 83 C4 0C           add         esp,0Ch
  004012FB: B8 01 00 00 00     mov         eax,1
  00401300: 5F                 pop         edi
  00401301: 5E                 pop         esi
  00401302: 5D                 pop         ebp
  00401303: 5B                 pop         ebx
  00401304: C2 10 00           ret         10h
  00401307: 8D 83 37 FB FF FF  lea         eax,[ebx+FFFFFB37h]
  0040130D: 83 F8 09           cmp         eax,9
  00401310: 0F 87 49 FE FF FF  ja          0040115F
  00401316: FF 24 85 D8 14 40  jmp         dword ptr [eax*4+004014D8h]
            00
  0040131D: 8B 15 3C 11 41 00  mov         edx,dword ptr ds:[0041113Ch]
  00401323: 8B 7C 24 14        mov         edi,dword ptr [esp+14h]
  00401327: 52                 push        edx
  00401328: 57                 push        edi
  00401329: FF 15 78 34 41 00  call        dword ptr ds:[00413478h]
  0040132F: 8B F0              mov         esi,eax
  00401331: 8B 46 1C           mov         eax,dword ptr [esi+1Ch]
  00401334: 85 C0              test        eax,eax
  00401336: 75 7B              jne         004013B3
  00401338: 6A 00              push        0
  0040133A: 6A 14              push        14h
  0040133C: 6A 01              push        1
  0040133E: 57                 push        edi
  0040133F: FF 15 7C 34 41 00  call        dword ptr ds:[0041347Ch]
  00401345: 89 46 1C           mov         dword ptr [esi+1Ch],eax
  00401348: B8 01 00 00 00     mov         eax,1
  0040134D: 5F                 pop         edi
  0040134E: 5E                 pop         esi
  0040134F: 5D                 pop         ebp
  00401350: 5B                 pop         ebx
  00401351: C2 10 00           ret         10h
  00401354: A1 3C 11 41 00     mov         eax,dword ptr ds:[0041113Ch]
  00401359: 8B 7C 24 14        mov         edi,dword ptr [esp+14h]
  0040135D: 50                 push        eax
  0040135E: 57                 push        edi
  0040135F: FF 15 78 34 41 00  call        dword ptr ds:[00413478h]
  00401365: 8B F0              mov         esi,eax
  00401367: 8B 46 1C           mov         eax,dword ptr [esi+1Ch]
  0040136A: 85 C0              test        eax,eax
  0040136C: 74 45              je          004013B3
  0040136E: 6A 01              push        1
  00401370: 57                 push        edi
  00401371: FF 15 9C 34 41 00  call        dword ptr ds:[0041349Ch]
  00401377: C7 46 1C 00 00 00  mov         dword ptr [esi+1Ch],0
            00
  0040137E: B8 01 00 00 00     mov         eax,1
  00401383: 5F                 pop         edi
  00401384: 5E                 pop         esi
  00401385: 5D                 pop         ebp
  00401386: 5B                 pop         ebx
  00401387: C2 10 00           ret         10h
  0040138A: 8B 0D 3C 11 41 00  mov         ecx,dword ptr ds:[0041113Ch]
  00401390: 8B 54 24 14        mov         edx,dword ptr [esp+14h]
  00401394: 51                 push        ecx
  00401395: 52                 push        edx
  00401396: FF 15 78 34 41 00  call        dword ptr ds:[00413478h]
  0040139C: 85 C0              test        eax,eax
  0040139E: 74 13              je          004013B3
  004013A0: 8B 4C 24 1C        mov         ecx,dword ptr [esp+1Ch]
  004013A4: 89 48 04           mov         dword ptr [eax+4],ecx
  004013A7: B8 01 00 00 00     mov         eax,1
  004013AC: 5F                 pop         edi
  004013AD: 5E                 pop         esi
  004013AE: 5D                 pop         ebp
  004013AF: 5B                 pop         ebx
  004013B0: C2 10 00           ret         10h
  004013B3: 33 C0              xor         eax,eax
  004013B5: 5F                 pop         edi
  004013B6: 5E                 pop         esi
  004013B7: 5D                 pop         ebp
  004013B8: 5B                 pop         ebx
  004013B9: C2 10 00           ret         10h
  004013BC: 8B 15 3C 11 41 00  mov         edx,dword ptr ds:[0041113Ch]
  004013C2: 8B 44 24 14        mov         eax,dword ptr [esp+14h]
  004013C6: 52                 push        edx
  004013C7: 50                 push        eax
  004013C8: FF 15 78 34 41 00  call        dword ptr ds:[00413478h]
  004013CE: 85 C0              test        eax,eax
  004013D0: 0F 84 F5 00 00 00  je          004014CB
  004013D6: 8B 40 04           mov         eax,dword ptr [eax+4]
  004013D9: 5F                 pop         edi
  004013DA: 5E                 pop         esi
  004013DB: 5D                 pop         ebp
  004013DC: 5B                 pop         ebx
  004013DD: C2 10 00           ret         10h
  004013E0: 8B 4C 24 20        mov         ecx,dword ptr [esp+20h]
  004013E4: 8B 54 24 1C        mov         edx,dword ptr [esp+1Ch]
  004013E8: 8B 44 24 14        mov         eax,dword ptr [esp+14h]
  004013EC: 51                 push        ecx
  004013ED: 52                 push        edx
  004013EE: 53                 push        ebx
  004013EF: 50                 push        eax
  004013F0: E8 EB 02 00 00     call        004016E0
  004013F5: 83 C4 10           add         esp,10h
  004013F8: 5F                 pop         edi
  004013F9: 5E                 pop         esi
  004013FA: 5D                 pop         ebp
  004013FB: 5B                 pop         ebx
  004013FC: C2 10 00           ret         10h
  004013FF: 8B 0D 3C 11 41 00  mov         ecx,dword ptr ds:[0041113Ch]
  00401405: 8B 54 24 14        mov         edx,dword ptr [esp+14h]
  00401409: 51                 push        ecx
  0040140A: 52                 push        edx
  0040140B: FF 15 78 34 41 00  call        dword ptr ds:[00413478h]
  00401411: 85 C0              test        eax,eax
  00401413: 0F 84 B2 00 00 00  je          004014CB
  00401419: 8B 40 08           mov         eax,dword ptr [eax+8]
  0040141C: 5F                 pop         edi
  0040141D: 5E                 pop         esi
  0040141E: 5D                 pop         ebp
  0040141F: 5B                 pop         ebx
  00401420: C2 10 00           ret         10h
  00401423: 8B 74 24 14        mov         esi,dword ptr [esp+14h]
  00401427: 8B 3D 90 34 41 00  mov         edi,dword ptr ds:[00413490h]
  0040142D: 68 FF FF FF 7F     push        7FFFFFFFh
  00401432: 6A 00              push        0
  00401434: 68 B1 00 00 00     push        0B1h
  00401439: 56                 push        esi
  0040143A: FF D7              call        edi
  0040143C: 68 30 0A 41 00     push        410A30h
  00401441: 6A 00              push        0
  00401443: 68 C2 00 00 00     push        0C2h
  00401448: 56                 push        esi
  00401449: FF D7              call        edi
  0040144B: 6A 00              push        0
  0040144D: 6A 00              push        0
  0040144F: 68 CC 04 00 00     push        4CCh
  00401454: 56                 push        esi
  00401455: FF D7              call        edi
  00401457: B8 01 00 00 00     mov         eax,1
  0040145C: 5F                 pop         edi
  0040145D: 5E                 pop         esi
  0040145E: 5D                 pop         ebp
  0040145F: 5B                 pop         ebx
  00401460: C2 10 00           ret         10h
  00401463: A1 3C 11 41 00     mov         eax,dword ptr ds:[0041113Ch]
  00401468: 8B 4C 24 14        mov         ecx,dword ptr [esp+14h]
  0040146C: 50                 push        eax
  0040146D: 51                 push        ecx
  0040146E: FF 15 78 34 41 00  call        dword ptr ds:[00413478h]
  00401474: 85 C0              test        eax,eax
  00401476: 74 53              je          004014CB
  00401478: 8B 40 10           mov         eax,dword ptr [eax+10h]
  0040147B: 5F                 pop         edi
  0040147C: 5E                 pop         esi
  0040147D: 5D                 pop         ebp
  0040147E: 5B                 pop         ebx
  0040147F: C2 10 00           ret         10h
  00401482: 8B 15 3C 11 41 00  mov         edx,dword ptr ds:[0041113Ch]
  00401488: 8B 44 24 14        mov         eax,dword ptr [esp+14h]
  0040148C: 52                 push        edx
  0040148D: 50                 push        eax
  0040148E: FF 15 78 34 41 00  call        dword ptr ds:[00413478h]
  00401494: 85 C0              test        eax,eax
  00401496: 74 33              je          004014CB
  00401498: 8B 4C 24 20        mov         ecx,dword ptr [esp+20h]
  0040149C: 89 48 10           mov         dword ptr [eax+10h],ecx
  0040149F: B8 01 00 00 00     mov         eax,1
  004014A4: 5F                 pop         edi
  004014A5: 5E                 pop         esi
  004014A6: 5D                 pop         ebp
  004014A7: 5B                 pop         ebx
  004014A8: C2 10 00           ret         10h
  004014AB: 8B 15 3C 11 41 00  mov         edx,dword ptr ds:[0041113Ch]
  004014B1: 8B 44 24 14        mov         eax,dword ptr [esp+14h]
  004014B5: 52                 push        edx
  004014B6: 50                 push        eax
  004014B7: FF 15 78 34 41 00  call        dword ptr ds:[00413478h]
  004014BD: 85 C0              test        eax,eax
  004014BF: 74 0A              je          004014CB
  004014C1: 8B 40 0C           mov         eax,dword ptr [eax+0Ch]
  004014C4: 5F                 pop         edi
  004014C5: 5E                 pop         esi
  004014C6: 5D                 pop         ebp
  004014C7: 5B                 pop         ebx
  004014C8: C2 10 00           ret         10h
  004014CB: 5F                 pop         edi
  004014CC: 5E                 pop         esi
  004014CD: 5D                 pop         ebp
  004014CE: 83 C8 FF           or          eax,0FFFFFFFFh
  004014D1: 5B                 pop         ebx
  004014D2: C2 10 00           ret         10h
  004014D5: 90                 nop
  004014D6: 8B FF              mov         edi,edi
  004014D8: BC 13 40 00 8A     mov         esp,8A004013h
  004014DD: 13 40 00           adc         eax,dword ptr [eax]
  004014E0: FF 13              call        dword ptr [ebx]
  004014E2: 40                 inc         eax
  004014E3: 00 E0              add         al,ah
  004014E5: 13 40 00           adc         eax,dword ptr [eax]
  004014E8: 23 14 40           and         edx,dword ptr [eax+eax*2]
  004014EB: 00 63 14           add         byte ptr [ebx+14h],ah
  004014EE: 40                 inc         eax
  004014EF: 00 82 14 40 00 AB  add         byte ptr [edx+AB004014h],al
  004014F5: 14 40              adc         al,40h
  004014F7: 00 1D 13 40 00 54  add         byte ptr ds:[54004013h],bl
  004014FD: 13 40 00           adc         eax,dword ptr [eax]
  00401500: 8B 44 24 04        mov         eax,dword ptr [esp+4]
  00401504: 53                 push        ebx
  00401505: 55                 push        ebp
  00401506: 8B 2D 90 34 41 00  mov         ebp,dword ptr ds:[00413490h]
  0040150C: 8B 48 04           mov         ecx,dword ptr [eax+4]
  0040150F: 8B 58 14           mov         ebx,dword ptr [eax+14h]
  00401512: 56                 push        esi
  00401513: 57                 push        edi
  00401514: 85 C9              test        ecx,ecx
  00401516: 74 7F              je          00401597
  00401518: 53                 push        ebx
  00401519: FF 15 74 34 41 00  call        dword ptr ds:[00413474h]
  0040151F: 8B 7C 24 18        mov         edi,dword ptr [esp+18h]
  00401523: 8B D0              mov         edx,eax
  00401525: 83 C9 FF           or          ecx,0FFFFFFFFh
  00401528: 33 C0              xor         eax,eax
  0040152A: F2 AE              repne scas  byte ptr es:[edi]
  0040152C: 8B 44 24 14        mov         eax,dword ptr [esp+14h]
  00401530: 33 FF              xor         edi,edi
  00401532: F7 D1              not         ecx
  00401534: 49                 dec         ecx
  00401535: 8B F1              mov         esi,ecx
  00401537: 8B 08              mov         ecx,dword ptr [eax]
  00401539: 03 F2              add         esi,edx
  0040153B: 3B F1              cmp         esi,ecx
  0040153D: 76 3A              jbe         00401579
  0040153F: 8D 14 89           lea         edx,[ecx+ecx*4]
  00401542: B8 1F 85 EB 51     mov         eax,51EB851Fh
  00401547: F7 E2              mul         eax,edx
  00401549: C1 EA 05           shr         edx,5
  0040154C: 81 FA 00 0C 00 00  cmp         edx,0C00h
  00401552: 72 05              jb          00401559
  00401554: BA 00 0C 00 00     mov         edx,0C00h
  00401559: 03 F2              add         esi,edx
  0040155B: 3B F1              cmp         esi,ecx
  0040155D: 76 1A              jbe         00401579
  0040155F: 6A 00              push        0
  00401561: 57                 push        edi
  00401562: 68 C1 00 00 00     push        0C1h
  00401567: 53                 push        ebx
  00401568: FF D5              call        ebp
  0040156A: 83 C0 02           add         eax,2
  0040156D: 03 F8              add         edi,eax
  0040156F: 2B F0              sub         esi,eax
  00401571: 8B 44 24 14        mov         eax,dword ptr [esp+14h]
  00401575: 3B 30              cmp         esi,dword ptr [eax]
  00401577: 77 E6              ja          0040155F
  00401579: 85 FF              test        edi,edi
  0040157B: 74 1A              je          00401597
  0040157D: 57                 push        edi
  0040157E: 6A 00              push        0
  00401580: 68 B1 00 00 00     push        0B1h
  00401585: 53                 push        ebx
  00401586: FF D5              call        ebp
  00401588: 68 30 0A 41 00     push        410A30h
  0040158D: 6A 00              push        0
  0040158F: 68 C2 00 00 00     push        0C2h
  00401594: 53                 push        ebx
  00401595: FF D5              call        ebp
  00401597: 68 FE FF FF 7F     push        7FFFFFFEh
  0040159C: 68 FF FF FF 7F     push        7FFFFFFFh
  004015A1: 68 B1 00 00 00     push        0B1h
  004015A6: 53                 push        ebx
  004015A7: FF D5              call        ebp
  004015A9: 8B 4C 24 18        mov         ecx,dword ptr [esp+18h]
  004015AD: 51                 push        ecx
  004015AE: 6A 00              push        0
  004015B0: 68 C2 00 00 00     push        0C2h
  004015B5: 53                 push        ebx
  004015B6: FF D5              call        ebp
  004015B8: 6A 00              push        0
  004015BA: 6A 00              push        0
  004015BC: 68 B7 00 00 00     push        0B7h
  004015C1: 53                 push        ebx
  004015C2: FF D5              call        ebp
  004015C4: 5F                 pop         edi
  004015C5: 5E                 pop         esi
  004015C6: 5D                 pop         ebp
  004015C7: 5B                 pop         ebx
  004015C8: C3                 ret
  004015C9: 90                 nop
  004015CA: 90                 nop
  004015CB: 90                 nop
  004015CC: 90                 nop
  004015CD: 90                 nop
  004015CE: 90                 nop
  004015CF: 90                 nop
  004015D0: 8B 44 24 0C        mov         eax,dword ptr [esp+0Ch]
  004015D4: 83 EC 10           sub         esp,10h
  004015D7: 25 FF FF 00 00     and         eax,0FFFFh
  004015DC: 53                 push        ebx
  004015DD: 56                 push        esi
  004015DE: 83 F8 08           cmp         eax,8
  004015E1: 57                 push        edi
  004015E2: BB 01 00 00 00     mov         ebx,1
  004015E7: 0F 87 BD 00 00 00  ja          004016AA
  004015ED: FF 24 85 B4 16 40  jmp         dword ptr [eax*4+004016B4h]
            00
  004015F4: A1 3C 11 41 00     mov         eax,dword ptr ds:[0041113Ch]
  004015F9: 8B 74 24 20        mov         esi,dword ptr [esp+20h]
  004015FD: 50                 push        eax
  004015FE: 56                 push        esi
  004015FF: FF 15 78 34 41 00  call        dword ptr ds:[00413478h]
  00401605: 85 C0              test        eax,eax
  00401607: 0F 84 9B 00 00 00  je          004016A8
  0040160D: 8B 48 08           mov         ecx,dword ptr [eax+8]
  00401610: 85 C9              test        ecx,ecx
  00401612: 0F 85 92 00 00 00  jne         004016AA
  00401618: 6A 00              push        0
  0040161A: 6A 01              push        1
  0040161C: 68 CC 04 00 00     push        4CCh
  00401621: 56                 push        esi
  00401622: FF 15 90 34 41 00  call        dword ptr ds:[00413490h]
  00401628: 8B C3              mov         eax,ebx
  0040162A: 5F                 pop         edi
  0040162B: 5E                 pop         esi
  0040162C: 5B                 pop         ebx
  0040162D: 83 C4 10           add         esp,10h
  00401630: C3                 ret
  00401631: 8B 0D 3C 11 41 00  mov         ecx,dword ptr ds:[0041113Ch]
  00401637: 8B 74 24 20        mov         esi,dword ptr [esp+20h]
  0040163B: 51                 push        ecx
  0040163C: 56                 push        esi
  0040163D: FF 15 78 34 41 00  call        dword ptr ds:[00413478h]
  00401643: 85 C0              test        eax,eax
  00401645: 74 61              je          004016A8
  00401647: 8B 48 08           mov         ecx,dword ptr [eax+8]
  0040164A: 85 C9              test        ecx,ecx
  0040164C: 74 5C              je          004016AA
  0040164E: 8D 54 24 20        lea         edx,[esp+20h]
  00401652: 8D 44 24 28        lea         eax,[esp+28h]
  00401656: 52                 push        edx
  00401657: 50                 push        eax
  00401658: 6A 01              push        1
  0040165A: 56                 push        esi
  0040165B: FF 15 50 35 41 00  call        dword ptr ds:[00413550h]
  00401661: 6A 01              push        1
  00401663: 56                 push        esi
  00401664: FF 15 A4 34 41 00  call        dword ptr ds:[004134A4h]
  0040166A: 8D 4C 24 0C        lea         ecx,[esp+0Ch]
  0040166E: 8B F8              mov         edi,eax
  00401670: 51                 push        ecx
  00401671: 56                 push        esi
  00401672: FF 15 A0 34 41 00  call        dword ptr ds:[004134A0h]
  00401678: 8B 54 24 18        mov         edx,dword ptr [esp+18h]
  0040167C: 8B 4C 24 20        mov         ecx,dword ptr [esp+20h]
  00401680: 8B 44 24 10        mov         eax,dword ptr [esp+10h]
  00401684: 2B D1              sub         edx,ecx
  00401686: 2B D0              sub         edx,eax
  00401688: 03 D7              add         edx,edi
  0040168A: 83 FA 03           cmp         edx,3
  0040168D: 7E 1B              jle         004016AA
  0040168F: 6A 00              push        0
  00401691: 6A 00              push        0
  00401693: 68 CC 04 00 00     push        4CCh
  00401698: 56                 push        esi
  00401699: FF 15 90 34 41 00  call        dword ptr ds:[00413490h]
  0040169F: 8B C3              mov         eax,ebx
  004016A1: 5F                 pop         edi
  004016A2: 5E                 pop         esi
  004016A3: 5B                 pop         ebx
  004016A4: 83 C4 10           add         esp,10h
  004016A7: C3                 ret
  004016A8: 33 DB              xor         ebx,ebx
  004016AA: 5F                 pop         edi
  004016AB: 8B C3              mov         eax,ebx
  004016AD: 5E                 pop         esi
  004016AE: 5B                 pop         ebx
  004016AF: 83 C4 10           add         esp,10h
  004016B2: C3                 ret
  004016B3: 90                 nop
  004016B4: F4                 hlt
  004016B5: 15 40 00 AA 16     adc         eax,16AA0040h
  004016BA: 40                 inc         eax
  004016BB: 00 F4              add         ah,dh
  004016BD: 15 40 00 AA 16     adc         eax,16AA0040h
  004016C2: 40                 inc         eax
  004016C3: 00 F4              add         ah,dh
  004016C5: 15 40 00 F4 15     adc         eax,15F40040h
  004016CA: 40                 inc         eax
  004016CB: 00 AA 16 40 00 31  add         byte ptr [edx+31004016h],ch
  004016D1: 16                 push        ss
  004016D2: 40                 inc         eax
  004016D3: 00 31              add         byte ptr [ecx],dh
  004016D5: 16                 push        ss
  004016D6: 40                 inc         eax
  004016D7: 00 90 90 90 90 90  add         byte ptr [eax+90909090h],dl
  004016DD: 90                 nop
  004016DE: 90                 nop
  004016DF: 90                 nop
  004016E0: A1 3C 11 41 00     mov         eax,dword ptr ds:[0041113Ch]
  004016E5: 56                 push        esi
  004016E6: 57                 push        edi
  004016E7: 8B 7C 24 0C        mov         edi,dword ptr [esp+0Ch]
  004016EB: 50                 push        eax
  004016EC: 57                 push        edi
  004016ED: FF 15 78 34 41 00  call        dword ptr ds:[00413478h]
  004016F3: 8B F0              mov         esi,eax
  004016F5: 85 F6              test        esi,esi
  004016F7: 0F 84 80 00 00 00  je          0040177D
  004016FD: 8B 44 24 14        mov         eax,dword ptr [esp+14h]
  00401701: 85 C0              test        eax,eax
  00401703: 8B 46 08           mov         eax,dword ptr [esi+8]
  00401706: 74 3E              je          00401746
  00401708: 85 C0              test        eax,eax
  0040170A: 75 69              jne         00401775
  0040170C: F6 46 10 01        test        byte ptr [esi+10h],1
  00401710: 74 0E              je          00401720
  00401712: 68 00 08 00 00     push        800h
  00401717: 56                 push        esi
  00401718: E8 73 00 00 00     call        00401790
  0040171D: 83 C4 08           add         esp,8
  00401720: 57                 push        edi
  00401721: FF 15 54 35 41 00  call        dword ptr ds:[00413554h]
  00401727: 6A 00              push        0
  00401729: 6A 00              push        0
  0040172B: 68 D2 04 00 00     push        4D2h
  00401730: 57                 push        edi
  00401731: C7 46 08 01 00 00  mov         dword ptr [esi+8],1
            00
  00401738: FF 15 8C 34 41 00  call        dword ptr ds:[0041348Ch]
  0040173E: B8 01 00 00 00     mov         eax,1
  00401743: 5F                 pop         edi
  00401744: 5E                 pop         esi
  00401745: C3                 ret
  00401746: 85 C0              test        eax,eax
  00401748: 74 2B              je          00401775
  0040174A: F6 46 10 01        test        byte ptr [esi+10h],1
  0040174E: 74 0E              je          0040175E
  00401750: 68 01 08 00 00     push        801h
  00401755: 56                 push        esi
  00401756: E8 35 00 00 00     call        00401790
  0040175B: 83 C4 08           add         esp,8
  0040175E: 6A 00              push        0
  00401760: 6A 00              push        0
  00401762: 68 D1 04 00 00     push        4D1h
  00401767: 57                 push        edi
  00401768: C7 46 08 00 00 00  mov         dword ptr [esi+8],0
            00
  0040176F: FF 15 8C 34 41 00  call        dword ptr ds:[0041348Ch]
  00401775: B8 01 00 00 00     mov         eax,1
  0040177A: 5F                 pop         edi
  0040177B: 5E                 pop         esi
  0040177C: C3                 ret
  0040177D: 5F                 pop         edi
  0040177E: 33 C0              xor         eax,eax
  00401780: 5E                 pop         esi
  00401781: C3                 ret
  00401782: 90                 nop
  00401783: 90                 nop
  00401784: 90                 nop
  00401785: 90                 nop
  00401786: 90                 nop
  00401787: 90                 nop
  00401788: 90                 nop
  00401789: 90                 nop
  0040178A: 90                 nop
  0040178B: 90                 nop
  0040178C: 90                 nop
  0040178D: 90                 nop
  0040178E: 90                 nop
  0040178F: 90                 nop
  00401790: 8B 44 24 04        mov         eax,dword ptr [esp+4]
  00401794: 83 EC 0C           sub         esp,0Ch
  00401797: 85 C0              test        eax,eax
  00401799: 74 2A              je          004017C5
  0040179B: 8B 48 14           mov         ecx,dword ptr [eax+14h]
  0040179E: 8B 54 24 14        mov         edx,dword ptr [esp+14h]
  004017A2: 89 4C 24 00        mov         dword ptr [esp],ecx
  004017A6: 8D 4C 24 00        lea         ecx,[esp]
  004017AA: 89 54 24 08        mov         dword ptr [esp+8],edx
  004017AE: 8B 50 18           mov         edx,dword ptr [eax+18h]
  004017B1: 51                 push        ecx
  004017B2: 6A 00              push        0
  004017B4: 6A 4E              push        4Eh
  004017B6: 52                 push        edx
  004017B7: C7 44 24 14 00 00  mov         dword ptr [esp+14h],0
            00 00
  004017BF: FF 15 90 34 41 00  call        dword ptr ds:[00413490h]
  004017C5: 83 C4 0C           add         esp,0Ch
  004017C8: C3                 ret
  004017C9: 90                 nop
  004017CA: 90                 nop
  004017CB: 90                 nop
  004017CC: 90                 nop
  004017CD: 90                 nop
  004017CE: 90                 nop
  004017CF: 90                 nop
  004017D0: 53                 push        ebx
  004017D1: 8B 1D 90 34 41 00  mov         ebx,dword ptr ds:[00413490h]
  004017D7: 56                 push        esi
  004017D8: 8B 74 24 10        mov         esi,dword ptr [esp+10h]
  004017DC: 57                 push        edi
  004017DD: 6A 00              push        0
  004017DF: 6A 01              push        1
  004017E1: 68 CF 00 00 00     push        0CFh
  004017E6: 56                 push        esi
  004017E7: FF D3              call        ebx
  004017E9: 8B 7C 24 10        mov         edi,dword ptr [esp+10h]
  004017ED: 57                 push        edi
  004017EE: C7 07 FE FF FF 7F  mov         dword ptr [edi],7FFFFFFEh
  004017F4: A1 3C 11 41 00     mov         eax,dword ptr ds:[0041113Ch]
  004017F9: 50                 push        eax
  004017FA: 56                 push        esi
  004017FB: FF 15 98 34 41 00  call        dword ptr ds:[00413498h]
  00401801: 6A 00              push        0
  00401803: 6A 00              push        0
  00401805: 6A 08              push        8
  00401807: 56                 push        esi
  00401808: FF D3              call        ebx
  0040180A: 8B 0F              mov         ecx,dword ptr [edi]
  0040180C: 56                 push        esi
  0040180D: 51                 push        ecx
  0040180E: E8 5D 00 00 00     call        00401870
  00401813: 83 C4 08           add         esp,8
  00401816: 89 47 0C           mov         dword ptr [edi+0Ch],eax
  00401819: 85 C0              test        eax,eax
  0040181B: 75 14              jne         00401831
  0040181D: 68 84 D0 40 00     push        40D084h
  00401822: E8 29 00 00 00     call        00401850
  00401827: 83 C4 04           add         esp,4
  0040182A: 83 C8 FF           or          eax,0FFFFFFFFh
  0040182D: 5F                 pop         edi
  0040182E: 5E                 pop         esi
  0040182F: 5B                 pop         ebx
  00401830: C3                 ret
  00401831: 56                 push        esi
  00401832: 89 77 14           mov         dword ptr [edi+14h],esi
  00401835: FF 15 94 34 41 00  call        dword ptr ds:[00413494h]
  0040183B: 89 47 18           mov         dword ptr [edi+18h],eax
  0040183E: 5F                 pop         edi
  0040183F: 5E                 pop         esi
  00401840: B8 01 00 00 00     mov         eax,1
  00401845: 5B                 pop         ebx
  00401846: C3                 ret
  00401847: 90                 nop
  00401848: 90                 nop
  00401849: 90                 nop
  0040184A: 90                 nop
  0040184B: 90                 nop
  0040184C: 90                 nop
  0040184D: 90                 nop
  0040184E: 90                 nop
  0040184F: 90                 nop
  00401850: 8B 44 24 04        mov         eax,dword ptr [esp+4]
  00401854: 6A 00              push        0
  00401856: 68 9C D0 40 00     push        40D09Ch
  0040185B: 50                 push        eax
  0040185C: 6A 00              push        0
  0040185E: FF 15 84 34 41 00  call        dword ptr ds:[00413484h]
  00401864: C3                 ret
  00401865: 90                 nop
  00401866: 90                 nop
  00401867: 90                 nop
  00401868: 90                 nop
  00401869: 90                 nop
  0040186A: 90                 nop
  0040186B: 90                 nop
  0040186C: 90                 nop
  0040186D: 90                 nop
  0040186E: 90                 nop
  0040186F: 90                 nop
  00401870: 56                 push        esi
  00401871: 6A 30              push        30h
  00401873: 6A 01              push        1
  00401875: E8 C6 25 00 00     call        00403E40
  0040187A: 8B F0              mov         esi,eax
  0040187C: 83 C4 08           add         esp,8
  0040187F: 85 F6              test        esi,esi
  00401881: 74 0D              je          00401890
  00401883: 8B 44 24 08        mov         eax,dword ptr [esp+8]
  00401887: 8B 4C 24 0C        mov         ecx,dword ptr [esp+0Ch]
  0040188B: 89 06              mov         dword ptr [esi],eax
  0040188D: 89 4E 04           mov         dword ptr [esi+4],ecx
  00401890: 8D 56 18           lea         edx,[esi+18h]
  00401893: 52                 push        edx
  00401894: FF 15 1C 34 41 00  call        dword ptr ds:[0041341Ch]
  0040189A: 8B C6              mov         eax,esi
  0040189C: 5E                 pop         esi
  0040189D: C3                 ret
  0040189E: 90                 nop
  0040189F: 90                 nop
  004018A0: 56                 push        esi
  004018A1: 8B 74 24 08        mov         esi,dword ptr [esp+8]
  004018A5: 85 F6              test        esi,esi
  004018A7: 74 1C              je          004018C5
  004018A9: 56                 push        esi
  004018AA: E8 B1 01 00 00     call        00401A60
  004018AF: 83 C4 04           add         esp,4
  004018B2: 8D 46 18           lea         eax,[esi+18h]
  004018B5: 50                 push        eax
  004018B6: FF 15 20 34 41 00  call        dword ptr ds:[00413420h]
  004018BC: 56                 push        esi
  004018BD: E8 2E 26 00 00     call        00403EF0
  004018C2: 83 C4 04           add         esp,4
  004018C5: 5E                 pop         esi
  004018C6: C3                 ret
  004018C7: 90                 nop
  004018C8: 90                 nop
  004018C9: 90                 nop
  004018CA: 90                 nop
  004018CB: 90                 nop
  004018CC: 90                 nop
  004018CD: 90                 nop
  004018CE: 90                 nop
  004018CF: 90                 nop
  004018D0: 56                 push        esi
  004018D1: 57                 push        edi
  004018D2: 8B 7C 24 0C        mov         edi,dword ptr [esp+0Ch]
  004018D6: 8D 77 18           lea         esi,[edi+18h]
  004018D9: 56                 push        esi
  004018DA: FF 15 28 34 41 00  call        dword ptr ds:[00413428h]
  004018E0: 8B 44 24 10        mov         eax,dword ptr [esp+10h]
  004018E4: 56                 push        esi
  004018E5: 89 07              mov         dword ptr [edi],eax
  004018E7: FF 15 34 33 41 00  call        dword ptr ds:[00413334h]
  004018ED: 5F                 pop         edi
  004018EE: 5E                 pop         esi
  004018EF: C3                 ret
  004018F0: 53                 push        ebx
  004018F1: 8B 5C 24 08        mov         ebx,dword ptr [esp+8]
  004018F5: 55                 push        ebp
  004018F6: 56                 push        esi
  004018F7: 8D 43 18           lea         eax,[ebx+18h]
  004018FA: 57                 push        edi
  004018FB: 50                 push        eax
  004018FC: 89 44 24 18        mov         dword ptr [esp+18h],eax
  00401900: FF 15 28 34 41 00  call        dword ptr ds:[00413428h]
  00401906: 8B 74 24 1C        mov         esi,dword ptr [esp+1Ch]
  0040190A: 85 F6              test        esi,esi
  0040190C: 75 14              jne         00401922
  0040190E: 8B 7C 24 18        mov         edi,dword ptr [esp+18h]
  00401912: 83 C9 FF           or          ecx,0FFFFFFFFh
  00401915: 33 C0              xor         eax,eax
  00401917: F2 AE              repne scas  byte ptr es:[edi]
  00401919: F7 D1              not         ecx
  0040191B: 49                 dec         ecx
  0040191C: 89 4C 24 1C        mov         dword ptr [esp+1Ch],ecx
  00401920: 8B F1              mov         esi,ecx
  00401922: 8D 46 11           lea         eax,[esi+11h]
  00401925: 50                 push        eax
  00401926: E8 35 26 00 00     call        00403F60
  0040192B: 8B E8              mov         ebp,eax
  0040192D: 83 C4 04           add         esp,4
  00401930: 85 ED              test        ebp,ebp
  00401932: 0F 84 8D 00 00 00  je          004019C5
  00401938: 8B D5              mov         edx,ebp
  0040193A: 33 C9              xor         ecx,ecx
  0040193C: 8D 7D 10           lea         edi,[ebp+10h]
  0040193F: 89 0A              mov         dword ptr [edx],ecx
  00401941: 89 4A 04           mov         dword ptr [edx+4],ecx
  00401944: 89 4A 08           mov         dword ptr [edx+8],ecx
  00401947: 89 4A 0C           mov         dword ptr [edx+0Ch],ecx
  0040194A: 8B CE              mov         ecx,esi
  0040194C: 8B 74 24 18        mov         esi,dword ptr [esp+18h]
  00401950: 8B C1              mov         eax,ecx
  00401952: C1 E9 02           shr         ecx,2
  00401955: 89 7D 08           mov         dword ptr [ebp+8],edi
  00401958: F3 A5              rep movs    dword ptr es:[edi],dword ptr [esi]
  0040195A: 8B C8              mov         ecx,eax
  0040195C: 83 E1 03           and         ecx,3
  0040195F: F3 A4              rep movs    byte ptr es:[edi],byte ptr [esi]
  00401961: 8B 4D 08           mov         ecx,dword ptr [ebp+8]
  00401964: 8B 7C 24 1C        mov         edi,dword ptr [esp+1Ch]
  00401968: C6 04 0F 00        mov         byte ptr [edi+ecx],0
  0040196C: 89 7D 0C           mov         dword ptr [ebp+0Ch],edi
  0040196F: 8B 03              mov         eax,dword ptr [ebx]
  00401971: 85 C0              test        eax,eax
  00401973: 74 2D              je          004019A2
  00401975: 8B 73 14           mov         esi,dword ptr [ebx+14h]
  00401978: 03 F7              add         esi,edi
  0040197A: 3B F0              cmp         esi,eax
  0040197C: 76 24              jbe         004019A2
  0040197E: 8B 43 08           mov         eax,dword ptr [ebx+8]
  00401981: 85 C0              test        eax,eax
  00401983: 74 1D              je          004019A2
  00401985: 53                 push        ebx
  00401986: E8 65 00 00 00     call        004019F0
  0040198B: 8B 48 0C           mov         ecx,dword ptr [eax+0Ch]
  0040198E: 83 C4 04           add         esp,4
  00401991: 2B F1              sub         esi,ecx
  00401993: 50                 push        eax
  00401994: E8 57 25 00 00     call        00403EF0
  00401999: 8B 03              mov         eax,dword ptr [ebx]
  0040199B: 83 C4 04           add         esp,4
  0040199E: 3B F0              cmp         esi,eax
  004019A0: 77 DC              ja          0040197E
  004019A2: 8B 73 10           mov         esi,dword ptr [ebx+10h]
  004019A5: 8B 53 14           mov         edx,dword ptr [ebx+14h]
  004019A8: 8B 43 0C           mov         eax,dword ptr [ebx+0Ch]
  004019AB: 46                 inc         esi
  004019AC: 03 D7              add         edx,edi
  004019AE: 89 73 10           mov         dword ptr [ebx+10h],esi
  004019B1: 85 C0              test        eax,eax
  004019B3: 89 53 14           mov         dword ptr [ebx+14h],edx
  004019B6: 74 07              je          004019BF
  004019B8: 89 45 04           mov         dword ptr [ebp+4],eax
  004019BB: 89 28              mov         dword ptr [eax],ebp
  004019BD: EB 03              jmp         004019C2
  004019BF: 89 6B 08           mov         dword ptr [ebx+8],ebp
  004019C2: 89 6B 0C           mov         dword ptr [ebx+0Ch],ebp
  004019C5: 83 7B 10 01        cmp         dword ptr [ebx+10h],1
  004019C9: 75 13              jne         004019DE
  004019CB: 8B 53 04           mov         edx,dword ptr [ebx+4]
  004019CE: 6A 00              push        0
  004019D0: 6A 00              push        0
  004019D2: 68 D1 04 00 00     push        4D1h
  004019D7: 52                 push        edx
  004019D8: FF 15 8C 34 41 00  call        dword ptr ds:[0041348Ch]
  004019DE: 8B 44 24 14        mov         eax,dword ptr [esp+14h]
  004019E2: 50                 push        eax
  004019E3: FF 15 34 33 41 00  call        dword ptr ds:[00413334h]
  004019E9: 5F                 pop         edi
  004019EA: 8B C5              mov         eax,ebp
  004019EC: 5E                 pop         esi
  004019ED: 5D                 pop         ebp
  004019EE: 5B                 pop         ebx
  004019EF: C3                 ret
  004019F0: 53                 push        ebx
  004019F1: 56                 push        esi
  004019F2: 8B 74 24 0C        mov         esi,dword ptr [esp+0Ch]
  004019F6: 57                 push        edi
  004019F7: 33 FF              xor         edi,edi
  004019F9: 8D 5E 18           lea         ebx,[esi+18h]
  004019FC: 53                 push        ebx
  004019FD: FF 15 28 34 41 00  call        dword ptr ds:[00413428h]
  00401A03: 85 F6              test        esi,esi
  00401A05: 74 29              je          00401A30
  00401A07: 8B 4E 10           mov         ecx,dword ptr [esi+10h]
  00401A0A: 85 C9              test        ecx,ecx
  00401A0C: 74 22              je          00401A30
  00401A0E: 8B 7E 08           mov         edi,dword ptr [esi+8]
  00401A11: 85 FF              test        edi,edi
  00401A13: 74 0C              je          00401A21
  00401A15: 8B 07              mov         eax,dword ptr [edi]
  00401A17: 85 C0              test        eax,eax
  00401A19: 89 46 08           mov         dword ptr [esi+8],eax
  00401A1C: 75 03              jne         00401A21
  00401A1E: 89 46 0C           mov         dword ptr [esi+0Ch],eax
  00401A21: 8B 47 0C           mov         eax,dword ptr [edi+0Ch]
  00401A24: 8B 56 14           mov         edx,dword ptr [esi+14h]
  00401A27: 2B D0              sub         edx,eax
  00401A29: 49                 dec         ecx
  00401A2A: 89 56 14           mov         dword ptr [esi+14h],edx
  00401A2D: 89 4E 10           mov         dword ptr [esi+10h],ecx
  00401A30: 8B 46 10           mov         eax,dword ptr [esi+10h]
  00401A33: 85 C0              test        eax,eax
  00401A35: 75 13              jne         00401A4A
  00401A37: 8B 4E 04           mov         ecx,dword ptr [esi+4]
  00401A3A: 6A 00              push        0
  00401A3C: 6A 00              push        0
  00401A3E: 68 D2 04 00 00     push        4D2h
  00401A43: 51                 push        ecx
  00401A44: FF 15 8C 34 41 00  call        dword ptr ds:[0041348Ch]
  00401A4A: 53                 push        ebx
  00401A4B: FF 15 34 33 41 00  call        dword ptr ds:[00413334h]
  00401A51: 8B C7              mov         eax,edi
  00401A53: 5F                 pop         edi
  00401A54: 5E                 pop         esi
  00401A55: 5B                 pop         ebx
  00401A56: C3                 ret
  00401A57: 90                 nop
  00401A58: 90                 nop
  00401A59: 90                 nop
  00401A5A: 90                 nop
  00401A5B: 90                 nop
  00401A5C: 90                 nop
  00401A5D: 90                 nop
  00401A5E: 90                 nop
  00401A5F: 90                 nop
  00401A60: 53                 push        ebx
  00401A61: 55                 push        ebp
  00401A62: 57                 push        edi
  00401A63: 8B 7C 24 10        mov         edi,dword ptr [esp+10h]
  00401A67: 8D 6F 18           lea         ebp,[edi+18h]
  00401A6A: 55                 push        ebp
  00401A6B: FF 15 28 34 41 00  call        dword ptr ds:[00413428h]
  00401A71: 8B 47 08           mov         eax,dword ptr [edi+8]
  00401A74: 33 DB              xor         ebx,ebx
  00401A76: 3B C3              cmp         eax,ebx
  00401A78: 74 13              je          00401A8D
  00401A7A: 56                 push        esi
  00401A7B: 8B 30              mov         esi,dword ptr [eax]
  00401A7D: 50                 push        eax
  00401A7E: E8 6D 24 00 00     call        00403EF0
  00401A83: 83 C4 04           add         esp,4
  00401A86: 3B F3              cmp         esi,ebx
  00401A88: 8B C6              mov         eax,esi
  00401A8A: 75 EF              jne         00401A7B
  00401A8C: 5E                 pop         esi
  00401A8D: 55                 push        ebp
  00401A8E: 89 5F 08           mov         dword ptr [edi+8],ebx
  00401A91: 89 5F 0C           mov         dword ptr [edi+0Ch],ebx
  00401A94: 89 5F 10           mov         dword ptr [edi+10h],ebx
  00401A97: 89 5F 14           mov         dword ptr [edi+14h],ebx
  00401A9A: FF 15 34 33 41 00  call        dword ptr ds:[00413334h]
  00401AA0: 5F                 pop         edi
  00401AA1: 5D                 pop         ebp
  00401AA2: 5B                 pop         ebx
  00401AA3: C3                 ret
  00401AA4: 90                 nop
  00401AA5: 90                 nop
  00401AA6: 90                 nop
  00401AA7: 90                 nop
  00401AA8: 90                 nop
  00401AA9: 90                 nop
  00401AAA: 90                 nop
  00401AAB: 90                 nop
  00401AAC: 90                 nop
  00401AAD: 90                 nop
  00401AAE: 90                 nop
  00401AAF: 90                 nop
  00401AB0: 81 EC B0 00 00 00  sub         esp,0B0h
  00401AB6: 57                 push        edi
  00401AB7: 68 18 D1 40 00     push        40D118h
  00401ABC: FF 15 38 35 41 00  call        dword ptr ds:[00413538h]
  00401AC2: A3 EC 0B 41 00     mov         dword ptr ds:[00410BECh],eax
  00401AC7: B9 0A 00 00 00     mov         ecx,0Ah
  00401ACC: 33 C0              xor         eax,eax
  00401ACE: BF 38 0A 41 00     mov         edi,410A38h
  00401AD3: F3 AB              rep stos    dword ptr es:[edi]
  00401AD5: B9 0F 00 00 00     mov         ecx,0Fh
  00401ADA: BF F0 0B 41 00     mov         edi,410BF0h
  00401ADF: F3 AB              rep stos    dword ptr es:[edi]
  00401AE1: 8D 44 24 20        lea         eax,[esp+20h]
  00401AE5: C7 44 24 20 94 00  mov         dword ptr [esp+20h],94h
            00 00
  00401AED: 50                 push        eax
  00401AEE: FF 15 2C 34 41 00  call        dword ptr ds:[0041342Ch]
  00401AF4: 33 C9              xor         ecx,ecx
  00401AF6: 83 7C 24 30 01     cmp         dword ptr [esp+30h],1
  00401AFB: 0F 94 C1           sete        cl
  00401AFE: 89 0D 34 11 41 00  mov         dword ptr ds:[00411134h],ecx
  00401B04: FF 15 1C 33 41 00  call        dword ptr ds:[0041331Ch]
  00401B0A: 8B 15 00 C0 40 00  mov         edx,dword ptr ds:[0040C000h]
  00401B10: 8B 84 24 C4 00 00  mov         eax,dword ptr [esp+000000C4h]
            00
  00401B17: 8B 8C 24 C0 00 00  mov         ecx,dword ptr [esp+000000C0h]
            00
  00401B1E: 89 15 70 0C 41 00  mov         dword ptr ds:[00410C70h],edx
  00401B24: 8B 94 24 BC 00 00  mov         edx,dword ptr [esp+000000BCh]
            00
  00401B2B: 50                 push        eax
  00401B2C: 8B 84 24 BC 00 00  mov         eax,dword ptr [esp+000000BCh]
            00
  00401B33: 51                 push        ecx
  00401B34: 52                 push        edx
  00401B35: 50                 push        eax
  00401B36: E8 B5 00 00 00     call        00401BF0
  00401B3B: 83 C4 10           add         esp,10h
  00401B3E: 85 C0              test        eax,eax
  00401B40: 75 11              jne         00401B53
  00401B42: E8 49 04 00 00     call        00401F90
  00401B47: 33 C0              xor         eax,eax
  00401B49: 5F                 pop         edi
  00401B4A: 81 C4 B0 00 00 00  add         esp,0B0h
  00401B50: C2 10 00           ret         10h
  00401B53: 55                 push        ebp
  00401B54: 8B 2D 3C 35 41 00  mov         ebp,dword ptr ds:[0041353Ch]
  00401B5A: 6A 00              push        0
  00401B5C: 6A 00              push        0
  00401B5E: 8D 4C 24 10        lea         ecx,[esp+10h]
  00401B62: 6A 00              push        0
  00401B64: 51                 push        ecx
  00401B65: FF D5              call        ebp
  00401B67: 85 C0              test        eax,eax
  00401B69: 74 67              je          00401BD2
  00401B6B: 8B 3D 40 35 41 00  mov         edi,dword ptr ds:[00413540h]
  00401B71: 56                 push        esi
  00401B72: 8B 35 44 35 41 00  mov         esi,dword ptr ds:[00413544h]
  00401B78: 53                 push        ebx
  00401B79: 8B 1D 48 35 41 00  mov         ebx,dword ptr ds:[00413548h]
  00401B7F: A1 84 0C 41 00     mov         eax,dword ptr ds:[00410C84h]
  00401B84: 8B 0D 78 0C 41 00  mov         ecx,dword ptr ds:[00410C78h]
  00401B8A: 8D 54 24 10        lea         edx,[esp+10h]
  00401B8E: 52                 push        edx
  00401B8F: 50                 push        eax
  00401B90: 51                 push        ecx
  00401B91: FF 15 4C 35 41 00  call        dword ptr ds:[0041354Ch]
  00401B97: 85 C0              test        eax,eax
  00401B99: 75 24              jne         00401BBF
  00401B9B: 8B 0D A0 0C 41 00  mov         ecx,dword ptr ds:[00410CA0h]
  00401BA1: 85 C9              test        ecx,ecx
  00401BA3: 74 08              je          00401BAD
  00401BA5: 8D 54 24 10        lea         edx,[esp+10h]
  00401BA9: 52                 push        edx
  00401BAA: 51                 push        ecx
  00401BAB: FF D6              call        esi
  00401BAD: 85 C0              test        eax,eax
  00401BAF: 75 0E              jne         00401BBF
  00401BB1: 8D 44 24 10        lea         eax,[esp+10h]
  00401BB5: 50                 push        eax
  00401BB6: FF D7              call        edi
  00401BB8: 8D 4C 24 10        lea         ecx,[esp+10h]
  00401BBC: 51                 push        ecx
  00401BBD: FF D3              call        ebx
  00401BBF: 6A 00              push        0
  00401BC1: 6A 00              push        0
  00401BC3: 8D 54 24 18        lea         edx,[esp+18h]
  00401BC7: 6A 00              push        0
  00401BC9: 52                 push        edx
  00401BCA: FF D5              call        ebp
  00401BCC: 85 C0              test        eax,eax
  00401BCE: 75 AF              jne         00401B7F
  00401BD0: 5B                 pop         ebx
  00401BD1: 5E                 pop         esi
  00401BD2: 8B 44 24 10        mov         eax,dword ptr [esp+10h]
  00401BD6: 5D                 pop         ebp
  00401BD7: 5F                 pop         edi
  00401BD8: 81 C4 B0 00 00 00  add         esp,0B0h
  00401BDE: C2 10 00           ret         10h
  00401BE1: 90                 nop
  00401BE2: 90                 nop
  00401BE3: 90                 nop
  00401BE4: 90                 nop
  00401BE5: 90                 nop
  00401BE6: 90                 nop
  00401BE7: 90                 nop
  00401BE8: 90                 nop
  00401BE9: 90                 nop
  00401BEA: 90                 nop
  00401BEB: 90                 nop
  00401BEC: 90                 nop
  00401BED: 90                 nop
  00401BEE: 90                 nop
  00401BEF: 90                 nop
  00401BF0: A1 AC D0 40 00     mov         eax,dword ptr ds:[0040D0ACh]
  00401BF5: 83 EC 28           sub         esp,28h
  00401BF8: 53                 push        ebx
  00401BF9: 56                 push        esi
  00401BFA: 33 DB              xor         ebx,ebx
  00401BFC: 57                 push        edi
  00401BFD: 53                 push        ebx
  00401BFE: 50                 push        eax
  00401BFF: FF 15 18 35 41 00  call        dword ptr ds:[00413518h]
  00401C05: 6A FE              push        0FFFFFFFEh
  00401C07: 8B F0              mov         esi,eax
  00401C09: FF 15 38 34 41 00  call        dword ptr ds:[00413438h]
  00401C0F: 50                 push        eax
  00401C10: FF 15 34 34 41 00  call        dword ptr ds:[00413434h]
  00401C16: 85 C0              test        eax,eax
  00401C18: 75 16              jne         00401C30
  00401C1A: 68 CC D1 40 00     push        40D1CCh
  00401C1F: E8 1C 16 00 00     call        00403240
  00401C24: 83 C4 04           add         esp,4
  00401C27: 33 C0              xor         eax,eax
  00401C29: 5F                 pop         edi
  00401C2A: 5E                 pop         esi
  00401C2B: 5B                 pop         ebx
  00401C2C: 83 C4 28           add         esp,28h
  00401C2F: C3                 ret
  00401C30: 3B F3              cmp         esi,ebx
  00401C32: 74 17              je          00401C4B
  00401C34: 53                 push        ebx
  00401C35: 53                 push        ebx
  00401C36: 68 00 04 00 00     push        400h
  00401C3B: 56                 push        esi
  00401C3C: FF 15 8C 34 41 00  call        dword ptr ds:[0041348Ch]
  00401C42: 33 C0              xor         eax,eax
  00401C44: 5F                 pop         edi
  00401C45: 5E                 pop         esi
  00401C46: 5B                 pop         ebx
  00401C47: 83 C4 28           add         esp,28h
  00401C4A: C3                 ret
  00401C4B: 8B 4C 24 38        mov         ecx,dword ptr [esp+38h]
  00401C4F: 68 00 7F 00 00     push        7F00h
  00401C54: 53                 push        ebx
  00401C55: 89 0D 74 0C 41 00  mov         dword ptr ds:[00410C74h],ecx
  00401C5B: FF 15 1C 35 41 00  call        dword ptr ds:[0041351Ch]
  00401C61: 8B 15 74 0C 41 00  mov         edx,dword ptr ds:[00410C74h]
  00401C67: 8B 3D 20 35 41 00  mov         edi,dword ptr ds:[00413520h]
  00401C6D: 6A 69              push        69h
  00401C6F: 52                 push        edx
  00401C70: 89 44 24 2C        mov         dword ptr [esp+2Ch],eax
  00401C74: FF D7              call        edi
  00401C76: 8B 0D 74 0C 41 00  mov         ecx,dword ptr ds:[00410C74h]
  00401C7C: 89 44 24 20        mov         dword ptr [esp+20h],eax
  00401C80: A1 AC D0 40 00     mov         eax,dword ptr ds:[0040D0ACh]
  00401C85: 8D 54 24 0C        lea         edx,[esp+0Ch]
  00401C89: 52                 push        edx
  00401C8A: C7 44 24 30 65 00  mov         dword ptr [esp+30h],65h
            00 00
  00401C92: 89 44 24 34        mov         dword ptr [esp+34h],eax
  00401C96: C7 44 24 2C 06 00  mov         dword ptr [esp+2Ch],6
            00 00
  00401C9E: 89 4C 24 20        mov         dword ptr [esp+20h],ecx
  00401CA2: C7 44 24 10 00 10  mov         dword ptr [esp+10h],1000h
            00 00
  00401CAA: C7 44 24 14 70 20  mov         dword ptr [esp+14h],402070h
            40 00
  00401CB2: 89 5C 24 1C        mov         dword ptr [esp+1Ch],ebx
  00401CB6: 89 5C 24 18        mov         dword ptr [esp+18h],ebx
  00401CBA: FF 15 70 34 41 00  call        dword ptr ds:[00413470h]
  00401CC0: 66 85 C0           test        ax,ax
  00401CC3: 0F 84 B6 02 00 00  je          00401F7F
  00401CC9: A1 74 0C 41 00     mov         eax,dword ptr ds:[00410C74h]
  00401CCE: 6A 66              push        66h
  00401CD0: 50                 push        eax
  00401CD1: FF 15 24 35 41 00  call        dword ptr ds:[00413524h]
  00401CD7: 3B C3              cmp         eax,ebx
  00401CD9: A3 84 0C 41 00     mov         dword ptr ds:[00410C84h],eax
  00401CDE: 0F 84 9B 02 00 00  je          00401F7F
  00401CE4: 8B 0D 74 0C 41 00  mov         ecx,dword ptr ds:[00410C74h]
  00401CEA: A1 AC D0 40 00     mov         eax,dword ptr ds:[0040D0ACh]
  00401CEF: 53                 push        ebx
  00401CF0: 51                 push        ecx
  00401CF1: 53                 push        ebx
  00401CF2: 53                 push        ebx
  00401CF3: 8B 35 28 35 41 00  mov         esi,dword ptr ds:[00413528h]
  00401CF9: 53                 push        ebx
  00401CFA: 53                 push        ebx
  00401CFB: 53                 push        ebx
  00401CFC: 53                 push        ebx
  00401CFD: 68 00 00 CF 00     push        0CF0000h
  00401D02: 50                 push        eax
  00401D03: 50                 push        eax
  00401D04: 53                 push        ebx
  00401D05: FF D6              call        esi
  00401D07: 3B C3              cmp         eax,ebx
  00401D09: A3 78 0C 41 00     mov         dword ptr ds:[00410C78h],eax
  00401D0E: 0F 84 6B 02 00 00  je          00401F7F
  00401D14: 8B 15 74 0C 41 00  mov         edx,dword ptr ds:[00410C74h]
  00401D1A: 52                 push        edx
  00401D1B: E8 E0 F2 FF FF     call        00401000
  00401D20: 83 C4 04           add         esp,4
  00401D23: 85 C0              test        eax,eax
  00401D25: 75 16              jne         00401D3D
  00401D27: 68 A8 D1 40 00     push        40D1A8h
  00401D2C: E8 0F 15 00 00     call        00403240
  00401D31: 83 C4 04           add         esp,4
  00401D34: 33 C0              xor         eax,eax
  00401D36: 5F                 pop         edi
  00401D37: 5E                 pop         esi
  00401D38: 5B                 pop         ebx
  00401D39: 83 C4 28           add         esp,28h
  00401D3C: C3                 ret
  00401D3D: A1 74 0C 41 00     mov         eax,dword ptr ds:[00410C74h]
  00401D42: 8B 0D 78 0C 41 00  mov         ecx,dword ptr ds:[00410C78h]
  00401D48: 53                 push        ebx
  00401D49: 50                 push        eax
  00401D4A: 53                 push        ebx
  00401D4B: 51                 push        ecx
  00401D4C: 53                 push        ebx
  00401D4D: 53                 push        ebx
  00401D4E: 53                 push        ebx
  00401D4F: 53                 push        ebx
  00401D50: 68 C4 20 B0 50     push        50B020C4h
  00401D55: 53                 push        ebx
  00401D56: 68 44 D0 40 00     push        40D044h
  00401D5B: 53                 push        ebx
  00401D5C: FF D6              call        esi
  00401D5E: 3B C3              cmp         eax,ebx
  00401D60: A3 7C 0C 41 00     mov         dword ptr ds:[00410C7Ch],eax
  00401D65: 75 16              jne         00401D7D
  00401D67: 68 78 D1 40 00     push        40D178h
  00401D6C: E8 CF 14 00 00     call        00403240
  00401D71: 83 C4 04           add         esp,4
  00401D74: 33 C0              xor         eax,eax
  00401D76: 5F                 pop         edi
  00401D77: 5E                 pop         esi
  00401D78: 5B                 pop         ebx
  00401D79: 83 C4 28           add         esp,28h
  00401D7C: C3                 ret
  00401D7D: 8B 35 90 34 41 00  mov         esi,dword ptr ds:[00413490h]
  00401D83: 6A 01              push        1
  00401D85: 53                 push        ebx
  00401D86: 68 CF 04 00 00     push        4CFh
  00401D8B: 50                 push        eax
  00401D8C: FF D6              call        esi
  00401D8E: 8B 15 78 0C 41 00  mov         edx,dword ptr ds:[00410C78h]
  00401D94: 52                 push        edx
  00401D95: E8 36 11 00 00     call        00402ED0
  00401D9A: 83 C4 04           add         esp,4
  00401D9D: 68 F0 0B 41 00     push        410BF0h
  00401DA2: E8 89 15 00 00     call        00403330
  00401DA7: 83 C4 04           add         esp,4
  00401DAA: 68 F0 0B 41 00     push        410BF0h
  00401DAF: FF 15 24 33 41 00  call        dword ptr ds:[00413324h]
  00401DB5: 3B C3              cmp         eax,ebx
  00401DB7: A3 80 0C 41 00     mov         dword ptr ds:[00410C80h],eax
  00401DBC: 74 0D              je          00401DCB
  00401DBE: 6A 01              push        1
  00401DC0: 50                 push        eax
  00401DC1: A1 7C 0C 41 00     mov         eax,dword ptr ds:[00410C7Ch]
  00401DC6: 6A 30              push        30h
  00401DC8: 50                 push        eax
  00401DC9: FF D6              call        esi
  00401DCB: 8B 0D 70 0C 41 00  mov         ecx,dword ptr ds:[00410C70h]
  00401DD1: 8B 15 7C 0C 41 00  mov         edx,dword ptr ds:[00410C7Ch]
  00401DD7: 53                 push        ebx
  00401DD8: 51                 push        ecx
  00401DD9: 68 C5 00 00 00     push        0C5h
  00401DDE: 52                 push        edx
  00401DDF: FF D6              call        esi
  00401DE1: A1 7C 0C 41 00     mov         eax,dword ptr ds:[00410C7Ch]
  00401DE6: 53                 push        ebx
  00401DE7: 6A 01              push        1
  00401DE9: 68 CA 04 00 00     push        4CAh
  00401DEE: 50                 push        eax
  00401DEF: FF D6              call        esi
  00401DF1: 8B 4C 24 44        mov         ecx,dword ptr [esp+44h]
  00401DF5: 8B 15 78 0C 41 00  mov         edx,dword ptr ds:[00410C78h]
  00401DFB: 51                 push        ecx
  00401DFC: 52                 push        edx
  00401DFD: FF 15 2C 35 41 00  call        dword ptr ds:[0041352Ch]
  00401E03: 6A 01              push        1
  00401E05: 68 00 04 00 00     push        400h
  00401E0A: E8 31 20 00 00     call        00403E40
  00401E0F: 83 C4 08           add         esp,8
  00401E12: A3 8C 0C 41 00     mov         dword ptr ds:[00410C8Ch],eax
  00401E17: 6A 01              push        1
  00401E19: 68 00 04 00 00     push        400h
  00401E1E: E8 1D 20 00 00     call        00403E40
  00401E23: 8B 0D 8C 0C 41 00  mov         ecx,dword ptr ds:[00410C8Ch]
  00401E29: 83 C4 08           add         esp,8
  00401E2C: 3B CB              cmp         ecx,ebx
  00401E2E: A3 90 0C 41 00     mov         dword ptr ds:[00410C90h],eax
  00401E33: 0F 84 39 01 00 00  je          00401F72
  00401E39: 3B C3              cmp         eax,ebx
  00401E3B: 0F 84 31 01 00 00  je          00401F72
  00401E41: A1 74 0C 41 00     mov         eax,dword ptr ds:[00410C74h]
  00401E46: 6A 69              push        69h
  00401E48: 50                 push        eax
  00401E49: FF D7              call        edi
  00401E4B: 8B 0D 74 0C 41 00  mov         ecx,dword ptr ds:[00410C74h]
  00401E51: 6A 6A              push        6Ah
  00401E53: 51                 push        ecx
  00401E54: A3 30 0C 41 00     mov         dword ptr ds:[00410C30h],eax
  00401E59: FF D7              call        edi
  00401E5B: 8B 15 74 0C 41 00  mov         edx,dword ptr ds:[00410C74h]
  00401E61: 6A 6B              push        6Bh
  00401E63: 52                 push        edx
  00401E64: A3 34 0C 41 00     mov         dword ptr ds:[00410C34h],eax
  00401E69: FF D7              call        edi
  00401E6B: A3 38 0C 41 00     mov         dword ptr ds:[00410C38h],eax
  00401E70: A1 74 0C 41 00     mov         eax,dword ptr ds:[00410C74h]
  00401E75: 6A 6C              push        6Ch
  00401E77: 50                 push        eax
  00401E78: FF D7              call        edi
  00401E7A: 8B 0D 74 0C 41 00  mov         ecx,dword ptr ds:[00410C74h]
  00401E80: 6A 6D              push        6Dh
  00401E82: 51                 push        ecx
  00401E83: A3 3C 0C 41 00     mov         dword ptr ds:[00410C3Ch],eax
  00401E88: FF D7              call        edi
  00401E8A: 8B 15 74 0C 41 00  mov         edx,dword ptr ds:[00410C74h]
  00401E90: 6A 6E              push        6Eh
  00401E92: 52                 push        edx
  00401E93: A3 40 0C 41 00     mov         dword ptr ds:[00410C40h],eax
  00401E98: FF D7              call        edi
  00401E9A: A3 44 0C 41 00     mov         dword ptr ds:[00410C44h],eax
  00401E9F: A1 74 0C 41 00     mov         eax,dword ptr ds:[00410C74h]
  00401EA4: 6A 6F              push        6Fh
  00401EA6: 50                 push        eax
  00401EA7: FF D7              call        edi
  00401EA9: 8B 0D 74 0C 41 00  mov         ecx,dword ptr ds:[00410C74h]
  00401EAF: 6A 70              push        70h
  00401EB1: 51                 push        ecx
  00401EB2: A3 48 0C 41 00     mov         dword ptr ds:[00410C48h],eax
  00401EB7: FF D7              call        edi
  00401EB9: 8B 15 74 0C 41 00  mov         edx,dword ptr ds:[00410C74h]
  00401EBF: 6A 71              push        71h
  00401EC1: 52                 push        edx
  00401EC2: A3 4C 0C 41 00     mov         dword ptr ds:[00410C4Ch],eax
  00401EC7: FF D7              call        edi
  00401EC9: A3 50 0C 41 00     mov         dword ptr ds:[00410C50h],eax
  00401ECE: A1 34 11 41 00     mov         eax,dword ptr ds:[00411134h]
  00401ED3: 3B C3              cmp         eax,ebx
  00401ED5: 88 1D 60 0A 41 00  mov         byte ptr ds:[00410A60h],bl
  00401EDB: B8 70 D1 40 00     mov         eax,40D170h
  00401EE0: 75 05              jne         00401EE7
  00401EE2: B8 64 D1 40 00     mov         eax,40D164h
  00401EE7: 53                 push        ebx
  00401EE8: 68 80 00 00 00     push        80h
  00401EED: 6A 03              push        3
  00401EEF: 53                 push        ebx
  00401EF0: 53                 push        ebx
  00401EF1: 68 00 00 00 C0     push        0C0000000h
  00401EF6: 50                 push        eax
  00401EF7: FF 15 30 34 41 00  call        dword ptr ds:[00413430h]
  00401EFD: 83 F8 FF           cmp         eax,0FFFFFFFFh
  00401F00: A3 D0 D0 40 00     mov         dword ptr ds:[0040D0D0h],eax
  00401F05: 75 1A              jne         00401F21
  00401F07: A1 78 0C 41 00     mov         eax,dword ptr ds:[00410C78h]
  00401F0C: 6A 01              push        1
  00401F0E: 68 4E 9C 00 00     push        9C4Eh
  00401F13: 50                 push        eax
  00401F14: FF 15 30 35 41 00  call        dword ptr ds:[00413530h]
  00401F1A: 50                 push        eax
  00401F1B: FF 15 34 35 41 00  call        dword ptr ds:[00413534h]
  00401F21: 68 98 0C 41 00     push        410C98h
  00401F26: 53                 push        ebx
  00401F27: 53                 push        ebx
  00401F28: 68 C0 26 40 00     push        4026C0h
  00401F2D: 53                 push        ebx
  00401F2E: 53                 push        ebx
  00401F2F: E8 FC 20 00 00     call        00404030
  00401F34: 83 C4 18           add         esp,18h
  00401F37: 3B C3              cmp         eax,ebx
  00401F39: A3 CC D0 40 00     mov         dword ptr ds:[0040D0CCh],eax
  00401F3E: 75 1C              jne         00401F5C
  00401F40: 68 48 D1 40 00     push        40D148h
  00401F45: 89 1D CC D0 40 00  mov         dword ptr ds:[0040D0CCh],ebx
  00401F4B: E8 F0 12 00 00     call        00403240
  00401F50: 83 C4 04           add         esp,4
  00401F53: 33 C0              xor         eax,eax
  00401F55: 5F                 pop         edi
  00401F56: 5E                 pop         esi
  00401F57: 5B                 pop         ebx
  00401F58: 83 C4 28           add         esp,28h
  00401F5B: C3                 ret
  00401F5C: C7 05 9C 0C 41 00  mov         dword ptr ds:[00410C9Ch],1
            01 00 00 00
  00401F66: B8 01 00 00 00     mov         eax,1
  00401F6B: 5F                 pop         edi
  00401F6C: 5E                 pop         esi
  00401F6D: 5B                 pop         ebx
  00401F6E: 83 C4 28           add         esp,28h
  00401F71: C3                 ret
  00401F72: 68 2C D1 40 00     push        40D12Ch
  00401F77: E8 C4 12 00 00     call        00403240
  00401F7C: 83 C4 04           add         esp,4
  00401F7F: 5F                 pop         edi
  00401F80: 5E                 pop         esi
  00401F81: 33 C0              xor         eax,eax
  00401F83: 5B                 pop         ebx
  00401F84: 83 C4 28           add         esp,28h
  00401F87: C3                 ret
  00401F88: 90                 nop
  00401F89: 90                 nop
  00401F8A: 90                 nop
  00401F8B: 90                 nop
  00401F8C: 90                 nop
  00401F8D: 90                 nop
  00401F8E: 90                 nop
  00401F8F: 90                 nop
  00401F90: A1 CC D0 40 00     mov         eax,dword ptr ds:[0040D0CCh]
  00401F95: 53                 push        ebx
  00401F96: 56                 push        esi
  00401F97: 83 CB FF           or          ebx,0FFFFFFFFh
  00401F9A: 33 F6              xor         esi,esi
  00401F9C: 57                 push        edi
  00401F9D: 8B 3D 3C 33 41 00  mov         edi,dword ptr ds:[0041333Ch]
  00401FA3: 3B C3              cmp         eax,ebx
  00401FA5: 74 3D              je          00401FE4
  00401FA7: A1 C8 D0 40 00     mov         eax,dword ptr ds:[0040D0C8h]
  00401FAC: 89 35 9C 0C 41 00  mov         dword ptr ds:[00410C9Ch],esi
  00401FB2: 50                 push        eax
  00401FB3: FF 15 38 33 41 00  call        dword ptr ds:[00413338h]
  00401FB9: 8B 0D CC D0 40 00  mov         ecx,dword ptr ds:[0040D0CCh]
  00401FBF: 53                 push        ebx
  00401FC0: 51                 push        ecx
  00401FC1: FF 15 40 33 41 00  call        dword ptr ds:[00413340h]
  00401FC7: 8B 15 CC D0 40 00  mov         edx,dword ptr ds:[0040D0CCh]
  00401FCD: 52                 push        edx
  00401FCE: FF D7              call        edi
  00401FD0: A1 C8 D0 40 00     mov         eax,dword ptr ds:[0040D0C8h]
  00401FD5: 89 1D CC D0 40 00  mov         dword ptr ds:[0040D0CCh],ebx
  00401FDB: 50                 push        eax
  00401FDC: 89 35 98 0C 41 00  mov         dword ptr ds:[00410C98h],esi
  00401FE2: FF D7              call        edi
  00401FE4: A1 80 0C 41 00     mov         eax,dword ptr ds:[00410C80h]
  00401FE9: 3B C6              cmp         eax,esi
  00401FEB: 74 0D              je          00401FFA
  00401FED: 50                 push        eax
  00401FEE: FF 15 2C 33 41 00  call        dword ptr ds:[0041332Ch]
  00401FF4: 89 35 80 0C 41 00  mov         dword ptr ds:[00410C80h],esi
  00401FFA: 8B 0D 7C 0C 41 00  mov         ecx,dword ptr ds:[00410C7Ch]
  00402000: 51                 push        ecx
  00402001: FF 15 14 35 41 00  call        dword ptr ds:[00413514h]
  00402007: 8B 15 74 0C 41 00  mov         edx,dword ptr ds:[00410C74h]
  0040200D: 52                 push        edx
  0040200E: E8 BD F0 FF FF     call        004010D0
  00402013: A1 8C 0C 41 00     mov         eax,dword ptr ds:[00410C8Ch]
  00402018: 83 C4 04           add         esp,4
  0040201B: 3B C6              cmp         eax,esi
  0040201D: 74 0F              je          0040202E
  0040201F: 50                 push        eax
  00402020: E8 CB 1E 00 00     call        00403EF0
  00402025: 83 C4 04           add         esp,4
  00402028: 89 35 8C 0C 41 00  mov         dword ptr ds:[00410C8Ch],esi
  0040202E: A1 90 0C 41 00     mov         eax,dword ptr ds:[00410C90h]
  00402033: 3B C6              cmp         eax,esi
  00402035: 74 0F              je          00402046
  00402037: 50                 push        eax
  00402038: E8 B3 1E 00 00     call        00403EF0
  0040203D: 83 C4 04           add         esp,4
  00402040: 89 35 90 0C 41 00  mov         dword ptr ds:[00410C90h],esi
  00402046: 39 1D D0 D0 40 00  cmp         dword ptr ds:[0040D0D0h],ebx
  0040204C: 74 13              je          00402061
  0040204E: E8 ED 0A 00 00     call        00402B40
  00402053: A1 D0 D0 40 00     mov         eax,dword ptr ds:[0040D0D0h]
  00402058: 50                 push        eax
  00402059: FF D7              call        edi
  0040205B: 89 1D D0 D0 40 00  mov         dword ptr ds:[0040D0D0h],ebx
  00402061: 5F                 pop         edi
  00402062: 5E                 pop         esi
  00402063: 5B                 pop         ebx
  00402064: C3                 ret
  00402065: 90                 nop
  00402066: 90                 nop
  00402067: 90                 nop
  00402068: 90                 nop
  00402069: 90                 nop
  0040206A: 90                 nop
  0040206B: 90                 nop
  0040206C: 90                 nop
  0040206D: 90                 nop
  0040206E: 90                 nop
  0040206F: 90                 nop
  00402070: 83 EC 14           sub         esp,14h
  00402073: 53                 push        ebx
  00402074: 55                 push        ebp
  00402075: 8B 6C 24 24        mov         ebp,dword ptr [esp+24h]
  00402079: 56                 push        esi
  0040207A: 83 FD 05           cmp         ebp,5
  0040207D: 57                 push        edi
  0040207E: 0F 87 88 00 00 00  ja          0040210C
  00402084: 74 2F              je          004020B5
  00402086: 8B C5              mov         eax,ebp
  00402088: 83 E8 02           sub         eax,2
  0040208B: 0F 85 97 02 00 00  jne         00402328
  00402091: A1 78 0C 41 00     mov         eax,dword ptr ds:[00410C78h]
  00402096: 85 C0              test        eax,eax
  00402098: 74 09              je          004020A3
  0040209A: 50                 push        eax
  0040209B: E8 20 10 00 00     call        004030C0
  004020A0: 83 C4 04           add         esp,4
  004020A3: E8 E8 FE FF FF     call        00401F90
  004020A8: 6A 00              push        0
  004020AA: FF 15 FC 34 41 00  call        dword ptr ds:[004134FCh]
  004020B0: E9 73 02 00 00     jmp         00402328
  004020B5: A1 7C 0C 41 00     mov         eax,dword ptr ds:[00410C7Ch]
  004020BA: 85 C0              test        eax,eax
  004020BC: 0F 84 66 02 00 00  je          00402328
  004020C2: 8B 4C 24 28        mov         ecx,dword ptr [esp+28h]
  004020C6: 8D 44 24 14        lea         eax,[esp+14h]
  004020CA: 50                 push        eax
  004020CB: 51                 push        ecx
  004020CC: FF 15 A0 34 41 00  call        dword ptr ds:[004134A0h]
  004020D2: 6A 01              push        1
  004020D4: 8D 54 24 18        lea         edx,[esp+18h]
  004020D8: 6A 01              push        1
  004020DA: 52                 push        edx
  004020DB: FF 15 00 35 41 00  call        dword ptr ds:[00413500h]
  004020E1: 6A 01              push        1
  004020E3: 8B 4C 24 24        mov         ecx,dword ptr [esp+24h]
  004020E7: 8B 44 24 1C        mov         eax,dword ptr [esp+1Ch]
  004020EB: 8B 54 24 20        mov         edx,dword ptr [esp+20h]
  004020EF: 2B C8              sub         ecx,eax
  004020F1: 51                 push        ecx
  004020F2: 8B 4C 24 1C        mov         ecx,dword ptr [esp+1Ch]
  004020F6: 2B D1              sub         edx,ecx
  004020F8: 52                 push        edx
  004020F9: 51                 push        ecx
  004020FA: 50                 push        eax
  004020FB: A1 7C 0C 41 00     mov         eax,dword ptr ds:[00410C7Ch]
  00402100: 50                 push        eax
  00402101: FF 15 04 35 41 00  call        dword ptr ds:[00413504h]
  00402107: E9 1C 02 00 00     jmp         00402328
  0040210C: 83 FD 4E           cmp         ebp,4Eh
  0040210F: 0F 87 8B 00 00 00  ja          004021A0
  00402115: 74 22              je          00402139
  00402117: 83 FD 07           cmp         ebp,7
  0040211A: 0F 85 08 02 00 00  jne         00402328
  00402120: 8B 0D 7C 0C 41 00  mov         ecx,dword ptr ds:[00410C7Ch]
  00402126: 51                 push        ecx
  00402127: FF 15 54 35 41 00  call        dword ptr ds:[00413554h]
  0040212D: 33 C0              xor         eax,eax
  0040212F: 5F                 pop         edi
  00402130: 5E                 pop         esi
  00402131: 5D                 pop         ebp
  00402132: 5B                 pop         ebx
  00402133: 83 C4 14           add         esp,14h
  00402136: C2 10 00           ret         10h
  00402139: 8B 44 24 34        mov         eax,dword ptr [esp+34h]
  0040213D: 85 C0              test        eax,eax
  0040213F: 0F 84 83 02 00 00  je          004023C8
  00402145: 8B 40 08           mov         eax,dword ptr [eax+8]
  00402148: 2D 00 08 00 00     sub         eax,800h
  0040214D: 74 2C              je          0040217B
  0040214F: 48                 dec         eax
  00402150: 0F 85 21 02 00 00  jne         00402377
  00402156: 8B 15 AC D0 40 00  mov         edx,dword ptr ds:[0040D0ACh]
  0040215C: 8B 44 24 28        mov         eax,dword ptr [esp+28h]
  00402160: 52                 push        edx
  00402161: 6A 00              push        0
  00402163: 6A 0C              push        0Ch
  00402165: 50                 push        eax
  00402166: FF 15 90 34 41 00  call        dword ptr ds:[00413490h]
  0040216C: B8 01 00 00 00     mov         eax,1
  00402171: 5F                 pop         edi
  00402172: 5E                 pop         esi
  00402173: 5D                 pop         ebp
  00402174: 5B                 pop         ebx
  00402175: 83 C4 14           add         esp,14h
  00402178: C2 10 00           ret         10h
  0040217B: 8B 0D B0 D0 40 00  mov         ecx,dword ptr ds:[0040D0B0h]
  00402181: 8B 54 24 28        mov         edx,dword ptr [esp+28h]
  00402185: 51                 push        ecx
  00402186: 6A 00              push        0
  00402188: 6A 0C              push        0Ch
  0040218A: 52                 push        edx
  0040218B: FF 15 90 34 41 00  call        dword ptr ds:[00413490h]
  00402191: B8 01 00 00 00     mov         eax,1
  00402196: 5F                 pop         edi
  00402197: 5E                 pop         esi
  00402198: 5D                 pop         ebp
  00402199: 5B                 pop         ebx
  0040219A: 83 C4 14           add         esp,14h
  0040219D: C2 10 00           ret         10h
  004021A0: 8B C5              mov         eax,ebp
  004021A2: 2D 11 01 00 00     sub         eax,111h
  004021A7: 0F 84 F9 01 00 00  je          004023A6
  004021AD: 83 E8 06           sub         eax,6
  004021B0: 74 48              je          004021FA
  004021B2: 2D E9 02 00 00     sub         eax,2E9h
  004021B7: 0F 85 6B 01 00 00  jne         00402328
  004021BD: 8B 74 24 28        mov         esi,dword ptr [esp+28h]
  004021C1: 56                 push        esi
  004021C2: FF 15 08 35 41 00  call        dword ptr ds:[00413508h]
  004021C8: 85 C0              test        eax,eax
  004021CA: 74 18              je          004021E4
  004021CC: 6A 09              push        9
  004021CE: 56                 push        esi
  004021CF: FF 15 2C 35 41 00  call        dword ptr ds:[0041352Ch]
  004021D5: B8 01 00 00 00     mov         eax,1
  004021DA: 5F                 pop         edi
  004021DB: 5E                 pop         esi
  004021DC: 5D                 pop         ebp
  004021DD: 5B                 pop         ebx
  004021DE: 83 C4 14           add         esp,14h
  004021E1: C2 10 00           ret         10h
  004021E4: 56                 push        esi
  004021E5: FF 15 0C 35 41 00  call        dword ptr ds:[0041350Ch]
  004021EB: B8 01 00 00 00     mov         eax,1
  004021F0: 5F                 pop         edi
  004021F1: 5E                 pop         esi
  004021F2: 5D                 pop         ebp
  004021F3: 5B                 pop         ebx
  004021F4: 83 C4 14           add         esp,14h
  004021F7: C2 10 00           ret         10h
  004021FA: 8B 44 24 34        mov         eax,dword ptr [esp+34h]
  004021FE: 25 FF FF 00 00     and         eax,0FFFFh
  00402203: 83 F8 03           cmp         eax,3
  00402206: 0F 87 1C 01 00 00  ja          00402328
  0040220C: FF 24 85 D4 23 40  jmp         dword ptr [eax*4+004023D4h]
            00
  00402213: A1 7C 0C 41 00     mov         eax,dword ptr ds:[00410C7Ch]
  00402218: 50                 push        eax
  00402219: FF 15 74 34 41 00  call        dword ptr ds:[00413474h]
  0040221F: 8B 15 78 0C 41 00  mov         edx,dword ptr ds:[00410C78h]
  00402225: 33 C9              xor         ecx,ecx
  00402227: 85 C0              test        eax,eax
  00402229: 8B 3D 30 35 41 00  mov         edi,dword ptr ds:[00413530h]
  0040222F: 0F 94 C1           sete        cl
  00402232: 8B F1              mov         esi,ecx
  00402234: 56                 push        esi
  00402235: 68 03 E1 00 00     push        0E103h
  0040223A: 52                 push        edx
  0040223B: FF D7              call        edi
  0040223D: 8B 1D 34 35 41 00  mov         ebx,dword ptr ds:[00413534h]
  00402243: 50                 push        eax
  00402244: FF D3              call        ebx
  00402246: A1 78 0C 41 00     mov         eax,dword ptr ds:[00410C78h]
  0040224B: 56                 push        esi
  0040224C: 68 04 E1 00 00     push        0E104h
  00402251: 50                 push        eax
  00402252: FF D7              call        edi
  00402254: 50                 push        eax
  00402255: FF D3              call        ebx
  00402257: E9 CC 00 00 00     jmp         00402328
  0040225C: A1 7C 0C 41 00     mov         eax,dword ptr ds:[00410C7Ch]
  00402261: 8D 4C 24 10        lea         ecx,[esp+10h]
  00402265: 8D 54 24 2C        lea         edx,[esp+2Ch]
  00402269: 51                 push        ecx
  0040226A: 52                 push        edx
  0040226B: 68 B0 00 00 00     push        0B0h
  00402270: 50                 push        eax
  00402271: FF 15 90 34 41 00  call        dword ptr ds:[00413490h]
  00402277: 8B 74 24 10        mov         esi,dword ptr [esp+10h]
  0040227B: A1 78 0C 41 00     mov         eax,dword ptr ds:[00410C78h]
  00402280: 8B 54 24 2C        mov         edx,dword ptr [esp+2Ch]
  00402284: 33 C9              xor         ecx,ecx
  00402286: 3B D6              cmp         edx,esi
  00402288: 8B 35 30 35 41 00  mov         esi,dword ptr ds:[00413530h]
  0040228E: 0F 94 C1           sete        cl
  00402291: 51                 push        ecx
  00402292: 68 43 9C 00 00     push        9C43h
  00402297: 50                 push        eax
  00402298: FF D6              call        esi
  0040229A: 8B 3D 34 35 41 00  mov         edi,dword ptr ds:[00413534h]
  004022A0: 50                 push        eax
  004022A1: FF D7              call        edi
  004022A3: 8B 0D 7C 0C 41 00  mov         ecx,dword ptr ds:[00410C7Ch]
  004022A9: 51                 push        ecx
  004022AA: FF 15 74 34 41 00  call        dword ptr ds:[00413474h]
  004022B0: 8B 15 78 0C 41 00  mov         edx,dword ptr ds:[00410C78h]
  004022B6: 33 DB              xor         ebx,ebx
  004022B8: 85 C0              test        eax,eax
  004022BA: 0F 94 C3           sete        bl
  004022BD: 53                 push        ebx
  004022BE: 68 45 9C 00 00     push        9C45h
  004022C3: 52                 push        edx
  004022C4: FF D6              call        esi
  004022C6: 50                 push        eax
  004022C7: FF D7              call        edi
  004022C9: A1 78 0C 41 00     mov         eax,dword ptr ds:[00410C78h]
  004022CE: 53                 push        ebx
  004022CF: 68 44 9C 00 00     push        9C44h
  004022D4: 50                 push        eax
  004022D5: FF D6              call        esi
  004022D7: 50                 push        eax
  004022D8: FF D7              call        edi
  004022DA: EB 4C              jmp         00402328
  004022DC: 8B 0D 7C 0C 41 00  mov         ecx,dword ptr ds:[00410C7Ch]
  004022E2: 51                 push        ecx
  004022E3: FF 15 74 34 41 00  call        dword ptr ds:[00413474h]
  004022E9: 33 D2              xor         edx,edx
  004022EB: 8B 3D 30 35 41 00  mov         edi,dword ptr ds:[00413530h]
  004022F1: 85 C0              test        eax,eax
  004022F3: A1 78 0C 41 00     mov         eax,dword ptr ds:[00410C78h]
  004022F8: 0F 94 C2           sete        dl
  004022FB: 8B F2              mov         esi,edx
  004022FD: 56                 push        esi
  004022FE: 68 4B 9C 00 00     push        9C4Bh
  00402303: 50                 push        eax
  00402304: FF D7              call        edi
  00402306: 8B 1D 34 35 41 00  mov         ebx,dword ptr ds:[00413534h]
  0040230C: 50                 push        eax
  0040230D: FF D3              call        ebx
  0040230F: 8B 0D 78 0C 41 00  mov         ecx,dword ptr ds:[00410C78h]
  00402315: 56                 push        esi
  00402316: 68 4C 9C 00 00     push        9C4Ch
  0040231B: 51                 push        ecx
  0040231C: FF D7              call        edi
  0040231E: 50                 push        eax
  0040231F: FF D3              call        ebx
  00402321: EB 05              jmp         00402328
  00402323: E8 48 0E 00 00     call        00403170
  00402328: 3B 2D EC 0B 41 00  cmp         ebp,dword ptr ds:[00410BECh]
  0040232E: 75 56              jne         00402386
  00402330: 8B 4C 24 34        mov         ecx,dword ptr [esp+34h]
  00402334: 8B 41 0C           mov         eax,dword ptr [ecx+0Ch]
  00402337: A8 40              test        al,40h
  00402339: 74 2F              je          0040236A
  0040233B: 8B 15 7C 0C 41 00  mov         edx,dword ptr ds:[00410C7Ch]
  00402341: 6A 00              push        0
  00402343: 6A 00              push        0
  00402345: 68 CC 04 00 00     push        4CCh
  0040234A: 52                 push        edx
  0040234B: C7 05 A0 0C 41 00  mov         dword ptr ds:[00410CA0h],0
            00 00 00 00
  00402355: FF 15 90 34 41 00  call        dword ptr ds:[00413490h]
  0040235B: B8 01 00 00 00     mov         eax,1
  00402360: 5F                 pop         edi
  00402361: 5E                 pop         esi
  00402362: 5D                 pop         ebp
  00402363: 5B                 pop         ebx
  00402364: 83 C4 14           add         esp,14h
  00402367: C2 10 00           ret         10h
  0040236A: A8 08              test        al,8
  0040236C: 74 5A              je          004023C8
  0040236E: 51                 push        ecx
  0040236F: E8 9C 13 00 00     call        00403710
  00402374: 83 C4 04           add         esp,4
  00402377: B8 01 00 00 00     mov         eax,1
  0040237C: 5F                 pop         edi
  0040237D: 5E                 pop         esi
  0040237E: 5D                 pop         ebp
  0040237F: 5B                 pop         ebx
  00402380: 83 C4 14           add         esp,14h
  00402383: C2 10 00           ret         10h
  00402386: 8B 44 24 34        mov         eax,dword ptr [esp+34h]
  0040238A: 8B 4C 24 30        mov         ecx,dword ptr [esp+30h]
  0040238E: 8B 54 24 28        mov         edx,dword ptr [esp+28h]
  00402392: 50                 push        eax
  00402393: 51                 push        ecx
  00402394: 55                 push        ebp
  00402395: 52                 push        edx
  00402396: FF 15 10 35 41 00  call        dword ptr ds:[00413510h]
  0040239C: 5F                 pop         edi
  0040239D: 5E                 pop         esi
  0040239E: 5D                 pop         ebp
  0040239F: 5B                 pop         ebx
  004023A0: 83 C4 14           add         esp,14h
  004023A3: C2 10 00           ret         10h
  004023A6: 8B 44 24 30        mov         eax,dword ptr [esp+30h]
  004023AA: 8B 54 24 34        mov         edx,dword ptr [esp+34h]
  004023AE: 8B C8              mov         ecx,eax
  004023B0: 25 FF FF 00 00     and         eax,0FFFFh
  004023B5: C1 E9 10           shr         ecx,10h
  004023B8: 51                 push        ecx
  004023B9: 52                 push        edx
  004023BA: 50                 push        eax
  004023BB: 8B 44 24 34        mov         eax,dword ptr [esp+34h]
  004023BF: 50                 push        eax
  004023C0: E8 2B 00 00 00     call        004023F0
  004023C5: 83 C4 10           add         esp,10h
  004023C8: 5F                 pop         edi
  004023C9: 5E                 pop         esi
  004023CA: 5D                 pop         ebp
  004023CB: 33 C0              xor         eax,eax
  004023CD: 5B                 pop         ebx
  004023CE: 83 C4 14           add         esp,14h
  004023D1: C2 10 00           ret         10h
  004023D4: 13 22              adc         esp,dword ptr [edx]
  004023D6: 40                 inc         eax
  004023D7: 00 5C 22 40        add         byte ptr [edx+40h],bl
  004023DB: 00 DC              add         ah,bl
  004023DD: 22 40 00           and         al,byte ptr [eax]
  004023E0: 23 23              and         esp,dword ptr [ebx]
  004023E2: 40                 inc         eax
  004023E3: 00 90 90 90 90 90  add         byte ptr [eax+90909090h],dl
  004023E9: 90                 nop
  004023EA: 90                 nop
  004023EB: 90                 nop
  004023EC: 90                 nop
  004023ED: 90                 nop
  004023EE: 90                 nop
  004023EF: 90                 nop
  004023F0: 8B 44 24 08        mov         eax,dword ptr [esp+8]
  004023F4: 53                 push        ebx
  004023F5: 56                 push        esi
  004023F6: 3D 03 E1 00 00     cmp         eax,0E103h
  004023FB: 57                 push        edi
  004023FC: 0F 8F 29 02 00 00  jg          0040262B
  00402402: 0F 84 A3 01 00 00  je          004025AB
  00402408: 05 BE 63 FF FF     add         eax,0FFFF63BEh
  0040240D: 83 F8 0C           cmp         eax,0Ch
  00402410: 0F 87 67 02 00 00  ja          0040267D
  00402416: FF 24 85 84 26 40  jmp         dword ptr [eax*4+00402684h]
            00
  0040241D: A1 7C 0C 41 00     mov         eax,dword ptr ds:[00410C7Ch]
  00402422: 8B 35 90 34 41 00  mov         esi,dword ptr ds:[00413490h]
  00402428: 6A 00              push        0
  0040242A: 6A 01              push        1
  0040242C: 68 CC 04 00 00     push        4CCh
  00402431: 50                 push        eax
  00402432: FF D6              call        esi
  00402434: 8B 4C 24 10        mov         ecx,dword ptr [esp+10h]
  00402438: 6A 00              push        0
  0040243A: 6A 00              push        0
  0040243C: 6A 10              push        10h
  0040243E: 51                 push        ecx
  0040243F: FF D6              call        esi
  00402441: 5F                 pop         edi
  00402442: 5E                 pop         esi
  00402443: 5B                 pop         ebx
  00402444: C3                 ret
  00402445: 8B 15 7C 0C 41 00  mov         edx,dword ptr ds:[00410C7Ch]
  0040244B: 52                 push        edx
  0040244C: FF 15 74 34 41 00  call        dword ptr ds:[00413474h]
  00402452: 85 C0              test        eax,eax
  00402454: 0F 8E 23 02 00 00  jle         0040267D
  0040245A: A1 7C 0C 41 00     mov         eax,dword ptr ds:[00410C7Ch]
  0040245F: 8B 35 90 34 41 00  mov         esi,dword ptr ds:[00413490h]
  00402465: 6A 00              push        0
  00402467: 6A 01              push        1
  00402469: 68 CC 04 00 00     push        4CCh
  0040246E: 50                 push        eax
  0040246F: FF D6              call        esi
  00402471: 8B 0D 7C 0C 41 00  mov         ecx,dword ptr ds:[00410C7Ch]
  00402477: 68 FF FF FF 7F     push        7FFFFFFFh
  0040247C: 6A 00              push        0
  0040247E: 68 B1 00 00 00     push        0B1h
  00402483: 51                 push        ecx
  00402484: FF D6              call        esi
  00402486: 5F                 pop         edi
  00402487: 5E                 pop         esi
  00402488: 5B                 pop         ebx
  00402489: C3                 ret
  0040248A: 8B 15 7C 0C 41 00  mov         edx,dword ptr ds:[00410C7Ch]
  00402490: 6A 00              push        0
  00402492: 6A 00              push        0
  00402494: 68 CD 04 00 00     push        4CDh
  00402499: 52                 push        edx
  0040249A: FF 15 90 34 41 00  call        dword ptr ds:[00413490h]
  004024A0: 5F                 pop         edi
  004024A1: 5E                 pop         esi
  004024A2: 5B                 pop         ebx
  004024A3: C3                 ret
  004024A4: A1 7C 0C 41 00     mov         eax,dword ptr ds:[00410C7Ch]
  004024A9: 6A 00              push        0
  004024AB: 6A 00              push        0
  004024AD: 68 01 03 00 00     push        301h
  004024B2: 50                 push        eax
  004024B3: FF 15 90 34 41 00  call        dword ptr ds:[00413490h]
  004024B9: 5F                 pop         edi
  004024BA: 5E                 pop         esi
  004024BB: 5B                 pop         ebx
  004024BC: C3                 ret
  004024BD: E8 1E 11 00 00     call        004035E0
  004024C2: 5F                 pop         edi
  004024C3: 5E                 pop         esi
  004024C4: 5B                 pop         ebx
  004024C5: C3                 ret
  004024C6: 8B 0D 7C 0C 41 00  mov         ecx,dword ptr ds:[00410C7Ch]
  004024CC: 8B 35 90 34 41 00  mov         esi,dword ptr ds:[00413490h]
  004024D2: 6A 00              push        0
  004024D4: 6A 00              push        0
  004024D6: 68 CB 04 00 00     push        4CBh
  004024DB: 51                 push        ecx
  004024DC: FF D6              call        esi
  004024DE: 8B 15 7C 0C 41 00  mov         edx,dword ptr ds:[00410C7Ch]
  004024E4: 6A 00              push        0
  004024E6: 6A 01              push        1
  004024E8: 68 CC 04 00 00     push        4CCh
  004024ED: 52                 push        edx
  004024EE: 8B F8              mov         edi,eax
  004024F0: FF D6              call        esi
  004024F2: E8 D9 11 00 00     call        004036D0
  004024F7: A1 7C 0C 41 00     mov         eax,dword ptr ds:[00410C7Ch]
  004024FC: 6A 00              push        0
  004024FE: 57                 push        edi
  004024FF: 68 CC 04 00 00     push        4CCh
  00402504: 50                 push        eax
  00402505: FF D6              call        esi
  00402507: 5F                 pop         edi
  00402508: 5E                 pop         esi
  00402509: 5B                 pop         ebx
  0040250A: C3                 ret
  0040250B: 8B 0D 7C 0C 41 00  mov         ecx,dword ptr ds:[00410C7Ch]
  00402511: 8B 35 90 34 41 00  mov         esi,dword ptr ds:[00413490h]
  00402517: 6A 00              push        0
  00402519: 6A 00              push        0
  0040251B: 68 CB 04 00 00     push        4CBh
  00402520: 51                 push        ecx
  00402521: FF D6              call        esi
  00402523: 33 D2              xor         edx,edx
  00402525: 6A 00              push        0
  00402527: 85 C0              test        eax,eax
  00402529: A1 7C 0C 41 00     mov         eax,dword ptr ds:[00410C7Ch]
  0040252E: 0F 94 C2           sete        dl
  00402531: 52                 push        edx
  00402532: 68 CC 04 00 00     push        4CCh
  00402537: 50                 push        eax
  00402538: FF D6              call        esi
  0040253A: E8 31 0C 00 00     call        00403170
  0040253F: 5F                 pop         edi
  00402540: 5E                 pop         esi
  00402541: 5B                 pop         ebx
  00402542: C3                 ret
  00402543: A1 BC D0 40 00     mov         eax,dword ptr ds:[0040D0BCh]
  00402548: 33 C9              xor         ecx,ecx
  0040254A: 85 C0              test        eax,eax
  0040254C: 0F 94 C1           sete        cl
  0040254F: 89 0D BC D0 40 00  mov         dword ptr ds:[0040D0BCh],ecx
  00402555: E8 56 0C 00 00     call        004031B0
  0040255A: 5F                 pop         edi
  0040255B: 5E                 pop         esi
  0040255C: 5B                 pop         ebx
  0040255D: C3                 ret
  0040255E: A1 C0 D0 40 00     mov         eax,dword ptr ds:[0040D0C0h]
  00402563: 33 D2              xor         edx,edx
  00402565: 85 C0              test        eax,eax
  00402567: 0F 94 C2           sete        dl
  0040256A: 89 15 C0 D0 40 00  mov         dword ptr ds:[0040D0C0h],edx
  00402570: E8 6B 0C 00 00     call        004031E0
  00402575: 5F                 pop         edi
  00402576: 5E                 pop         esi
  00402577: 5B                 pop         ebx
  00402578: C3                 ret
  00402579: E8 E2 0C 00 00     call        00403260
  0040257E: 5F                 pop         edi
  0040257F: 5E                 pop         esi
  00402580: 5B                 pop         ebx
  00402581: C3                 ret
  00402582: E8 99 13 00 00     call        00403920
  00402587: 5F                 pop         edi
  00402588: 5E                 pop         esi
  00402589: 5B                 pop         ebx
  0040258A: C3                 ret
  0040258B: A1 78 0C 41 00     mov         eax,dword ptr ds:[00410C78h]
  00402590: 8B 0D 74 0C 41 00  mov         ecx,dword ptr ds:[00410C74h]
  00402596: 6A 00              push        0
  00402598: 68 C0 39 40 00     push        4039C0h
  0040259D: 50                 push        eax
  0040259E: 6A 68              push        68h
  004025A0: 51                 push        ecx
  004025A1: FF 15 F8 34 41 00  call        dword ptr ds:[004134F8h]
  004025A7: 5F                 pop         edi
  004025A8: 5E                 pop         esi
  004025A9: 5B                 pop         ebx
  004025AA: C3                 ret
  004025AB: 8B 15 7C 0C 41 00  mov         edx,dword ptr ds:[00410C7Ch]
  004025B1: 8B 35 90 34 41 00  mov         esi,dword ptr ds:[00413490h]
  004025B7: 6A 00              push        0
  004025B9: 6A 00              push        0
  004025BB: 68 CB 04 00 00     push        4CBh
  004025C0: 52                 push        edx
  004025C1: FF D6              call        esi
  004025C3: 8B D8              mov         ebx,eax
  004025C5: A1 7C 0C 41 00     mov         eax,dword ptr ds:[00410C7Ch]
  004025CA: 6A 00              push        0
  004025CC: 6A 01              push        1
  004025CE: 68 CC 04 00 00     push        4CCh
  004025D3: 50                 push        eax
  004025D4: FF D6              call        esi
  004025D6: BF 60 0A 41 00     mov         edi,410A60h
  004025DB: 83 C9 FF           or          ecx,0FFFFFFFFh
  004025DE: 33 C0              xor         eax,eax
  004025E0: F2 AE              repne scas  byte ptr es:[edi]
  004025E2: F7 D1              not         ecx
  004025E4: 49                 dec         ecx
  004025E5: 74 21              je          00402608
  004025E7: 8B 0D 7C 0C 41 00  mov         ecx,dword ptr ds:[00410C7Ch]
  004025ED: 68 60 0A 41 00     push        410A60h
  004025F2: 51                 push        ecx
  004025F3: E8 D8 06 00 00     call        00402CD0
  004025F8: 83 C4 08           add         esp,8
  004025FB: 85 C0              test        eax,eax
  004025FD: 75 17              jne         00402616
  004025FF: 8B 15 7C 0C 41 00  mov         edx,dword ptr ds:[00410C7Ch]
  00402605: 52                 push        edx
  00402606: EB 06              jmp         0040260E
  00402608: A1 7C 0C 41 00     mov         eax,dword ptr ds:[00410C7Ch]
  0040260D: 50                 push        eax
  0040260E: E8 4D 07 00 00     call        00402D60
  00402613: 83 C4 04           add         esp,4
  00402616: 8B 0D 7C 0C 41 00  mov         ecx,dword ptr ds:[00410C7Ch]
  0040261C: 6A 00              push        0
  0040261E: 53                 push        ebx
  0040261F: 68 CC 04 00 00     push        4CCh
  00402624: 51                 push        ecx
  00402625: FF D6              call        esi
  00402627: 5F                 pop         edi
  00402628: 5E                 pop         esi
  00402629: 5B                 pop         ebx
  0040262A: C3                 ret
  0040262B: 3D 04 E1 00 00     cmp         eax,0E104h
  00402630: 75 4B              jne         0040267D
  00402632: 8B 15 7C 0C 41 00  mov         edx,dword ptr ds:[00410C7Ch]
  00402638: 8B 35 90 34 41 00  mov         esi,dword ptr ds:[00413490h]
  0040263E: 6A 00              push        0
  00402640: 6A 00              push        0
  00402642: 68 CB 04 00 00     push        4CBh
  00402647: 52                 push        edx
  00402648: FF D6              call        esi
  0040264A: 8B F8              mov         edi,eax
  0040264C: A1 7C 0C 41 00     mov         eax,dword ptr ds:[00410C7Ch]
  00402651: 6A 00              push        0
  00402653: 6A 01              push        1
  00402655: 68 CC 04 00 00     push        4CCh
  0040265A: 50                 push        eax
  0040265B: FF D6              call        esi
  0040265D: 8B 0D 7C 0C 41 00  mov         ecx,dword ptr ds:[00410C7Ch]
  00402663: 51                 push        ecx
  00402664: E8 F7 06 00 00     call        00402D60
  00402669: 8B 15 7C 0C 41 00  mov         edx,dword ptr ds:[00410C7Ch]
  0040266F: 83 C4 04           add         esp,4
  00402672: 6A 00              push        0
  00402674: 57                 push        edi
  00402675: 68 CC 04 00 00     push        4CCh
  0040267A: 52                 push        edx
  0040267B: FF D6              call        esi
  0040267D: 5F                 pop         edi
  0040267E: 5E                 pop         esi
  0040267F: 5B                 pop         ebx
  00402680: C3                 ret
  00402681: 90                 nop
  00402682: 8B FF              mov         edi,edi
  00402684: 1D 24 40 00 A4     sbb         eax,0A4004024h
  00402689: 24 40              and         al,40h
  0040268B: 00 8A 24 40 00 45  add         byte ptr [edx+45004024h],cl
  00402691: 24 40              and         al,40h
  00402693: 00 43 25           add         byte ptr [ebx+25h],al
  00402696: 40                 inc         eax
  00402697: 00 0B              add         byte ptr [ebx],cl
  00402699: 25 40 00 79 25     and         eax,25790040h
  0040269E: 40                 inc         eax
  0040269F: 00 82 25 40 00 8B  add         byte ptr [edx+8B004025h],al
  004026A5: 25 40 00 BD 24     and         eax,24BD0040h
  004026AA: 40                 inc         eax
  004026AB: 00 C6              add         dh,al
  004026AD: 24 40              and         al,40h
  004026AF: 00 7D 26           add         byte ptr [ebp+26h],bh
  004026B2: 40                 inc         eax
  004026B3: 00 5E 25           add         byte ptr [esi+25h],bl
  004026B6: 40                 inc         eax
  004026B7: 00 90 90 90 90 90  add         byte ptr [eax+90909090h],dl
  004026BD: 90                 nop
  004026BE: 90                 nop
  004026BF: 90                 nop
  004026C0: 55                 push        ebp
  004026C1: 8B EC              mov         ebp,esp
  004026C3: 6A FF              push        0FFFFFFFFh
  004026C5: 68 08 C0 40 00     push        40C008h
  004026CA: 68 98 42 40 00     push        404298h
  004026CF: 64 A1 00 00 00 00  mov         eax,dword ptr fs:[00000000h]
  004026D5: 50                 push        eax
  004026D6: 64 89 25 00 00 00  mov         dword ptr fs:[00000000h],esp
            00
  004026DD: 83 C4 A0           add         esp,0FFFFFFA0h
  004026E0: 53                 push        ebx
  004026E1: 56                 push        esi
  004026E2: 57                 push        edi
  004026E3: 89 65 E8           mov         dword ptr [ebp-18h],esp
  004026E6: 83 C8 FF           or          eax,0FFFFFFFFh
  004026E9: 89 45 AC           mov         dword ptr [ebp-54h],eax
  004026EC: 89 45 E4           mov         dword ptr [ebp-1Ch],eax
  004026EF: 33 DB              xor         ebx,ebx
  004026F1: 89 5D CC           mov         dword ptr [ebp-34h],ebx
  004026F4: BE 01 00 00 00     mov         esi,1
  004026F9: 89 75 E0           mov         dword ptr [ebp-20h],esi
  004026FC: 89 5D FC           mov         dword ptr [ebp-4],ebx
  004026FF: 6A 0F              push        0Fh
  00402701: FF 15 38 34 41 00  call        dword ptr ds:[00413438h]
  00402707: 50                 push        eax
  00402708: FF 15 34 34 41 00  call        dword ptr ds:[00413434h]
  0040270E: 85 C0              test        eax,eax
  00402710: 75 1F              jne         00402731
  00402712: 68 A8 D3 40 00     push        40D3A8h
  00402717: E8 24 0B 00 00     call        00403240
  0040271C: 83 C4 04           add         esp,4
  0040271F: 53                 push        ebx
  00402720: 53                 push        ebx
  00402721: 53                 push        ebx
  00402722: 68 00 01 00 00     push        100h
  00402727: 8B 3D 4C 34 41 00  mov         edi,dword ptr ds:[0041344Ch]
  0040272D: FF D7              call        edi
  0040272F: EB 06              jmp         00402737
  00402731: 8B 3D 4C 34 41 00  mov         edi,dword ptr ds:[0041344Ch]
  00402737: C7 45 D4 0C 00 00  mov         dword ptr [ebp-2Ch],0Ch
            00
  0040273E: 89 75 DC           mov         dword ptr [ebp-24h],esi
  00402741: 8D 45 B4           lea         eax,[ebp-4Ch]
  00402744: 89 45 D8           mov         dword ptr [ebp-28h],eax
  00402747: 56                 push        esi
  00402748: 8D 4D B4           lea         ecx,[ebp-4Ch]
  0040274B: 51                 push        ecx
  0040274C: FF 15 14 33 41 00  call        dword ptr ds:[00413314h]
  00402752: 85 C0              test        eax,eax
  00402754: 75 17              jne         0040276D
  00402756: 68 7C D3 40 00     push        40D37Ch
  0040275B: E8 E0 0A 00 00     call        00403240
  00402760: 83 C4 04           add         esp,4
  00402763: 53                 push        ebx
  00402764: 53                 push        ebx
  00402765: 53                 push        ebx
  00402766: 68 00 01 00 00     push        100h
  0040276B: FF D7              call        edi
  0040276D: 53                 push        ebx
  0040276E: 53                 push        ebx
  0040276F: 56                 push        esi
  00402770: 8D 55 B4           lea         edx,[ebp-4Ch]
  00402773: 52                 push        edx
  00402774: FF 15 08 33 41 00  call        dword ptr ds:[00413308h]
  0040277A: 85 C0              test        eax,eax
  0040277C: 75 17              jne         00402795
  0040277E: 68 58 D3 40 00     push        40D358h
  00402783: E8 B8 0A 00 00     call        00403240
  00402788: 83 C4 04           add         esp,4
  0040278B: 53                 push        ebx
  0040278C: 53                 push        ebx
  0040278D: 53                 push        ebx
  0040278E: 68 00 01 00 00     push        100h
  00402793: FF D7              call        edi
  00402795: 68 44 D3 40 00     push        40D344h
  0040279A: 53                 push        ebx
  0040279B: 53                 push        ebx
  0040279C: 8D 45 D4           lea         eax,[ebp-2Ch]
  0040279F: 50                 push        eax
  004027A0: 8B 35 40 34 41 00  mov         esi,dword ptr ds:[00413440h]
  004027A6: FF D6              call        esi
  004027A8: 89 45 AC           mov         dword ptr [ebp-54h],eax
  004027AB: 3B C3              cmp         eax,ebx
  004027AD: 75 17              jne         004027C6
  004027AF: 68 08 D3 40 00     push        40D308h
  004027B4: E8 87 0A 00 00     call        00403240
  004027B9: 83 C4 04           add         esp,4
  004027BC: 53                 push        ebx
  004027BD: 53                 push        ebx
  004027BE: 53                 push        ebx
  004027BF: 68 00 01 00 00     push        100h
  004027C4: FF D7              call        edi
  004027C6: FF 15 3C 34 41 00  call        dword ptr ds:[0041343Ch]
  004027CC: 3D B7 00 00 00     cmp         eax,0B7h
  004027D1: 75 17              jne         004027EA
  004027D3: 68 F8 D2 40 00     push        40D2F8h
  004027D8: E8 63 0A 00 00     call        00403240
  004027DD: 83 C4 04           add         esp,4
  004027E0: 53                 push        ebx
  004027E1: 53                 push        ebx
  004027E2: 53                 push        ebx
  004027E3: 68 00 01 00 00     push        100h
  004027E8: FF D7              call        edi
  004027EA: 68 E4 D2 40 00     push        40D2E4h
  004027EF: 53                 push        ebx
  004027F0: 53                 push        ebx
  004027F1: 8D 4D D4           lea         ecx,[ebp-2Ch]
  004027F4: 51                 push        ecx
  004027F5: FF D6              call        esi
  004027F7: A3 C8 D0 40 00     mov         dword ptr ds:[0040D0C8h],eax
  004027FC: 3B C3              cmp         eax,ebx
  004027FE: 75 17              jne         00402817
  00402800: 68 A8 D2 40 00     push        40D2A8h
  00402805: E8 36 0A 00 00     call        00403240
  0040280A: 83 C4 04           add         esp,4
  0040280D: 53                 push        ebx
  0040280E: 53                 push        ebx
  0040280F: 53                 push        ebx
  00402810: 68 00 01 00 00     push        100h
  00402815: FF D7              call        edi
  00402817: 68 98 D2 40 00     push        40D298h
  0040281C: 68 00 10 00 00     push        1000h
  00402821: 53                 push        ebx
  00402822: 6A 04              push        4
  00402824: 8D 55 D4           lea         edx,[ebp-2Ch]
  00402827: 52                 push        edx
  00402828: 6A FF              push        0FFFFFFFFh
  0040282A: FF 15 54 34 41 00  call        dword ptr ds:[00413454h]
  00402830: 8B F0              mov         esi,eax
  00402832: 89 75 E4           mov         dword ptr [ebp-1Ch],esi
  00402835: 3B F3              cmp         esi,ebx
  00402837: 75 17              jne         00402850
  00402839: 68 64 D2 40 00     push        40D264h
  0040283E: E8 FD 09 00 00     call        00403240
  00402843: 83 C4 04           add         esp,4
  00402846: 53                 push        ebx
  00402847: 53                 push        ebx
  00402848: 53                 push        ebx
  00402849: 68 00 01 00 00     push        100h
  0040284E: FF D7              call        edi
  00402850: 68 00 02 00 00     push        200h
  00402855: 53                 push        ebx
  00402856: 53                 push        ebx
  00402857: 6A 04              push        4
  00402859: 56                 push        esi
  0040285A: FF 15 50 34 41 00  call        dword ptr ds:[00413450h]
  00402860: 8B F0              mov         esi,eax
  00402862: 89 75 CC           mov         dword ptr [ebp-34h],esi
  00402865: 3B F3              cmp         esi,ebx
  00402867: 75 17              jne         00402880
  00402869: 68 48 D2 40 00     push        40D248h
  0040286E: E8 CD 09 00 00     call        00403240
  00402873: 83 C4 04           add         esp,4
  00402876: 53                 push        ebx
  00402877: 53                 push        ebx
  00402878: 53                 push        ebx
  00402879: 68 00 01 00 00     push        100h
  0040287E: FF D7              call        edi
  00402880: 53                 push        ebx
  00402881: 53                 push        ebx
  00402882: 68 D0 04 00 00     push        4D0h
  00402887: A1 7C 0C 41 00     mov         eax,dword ptr ds:[00410C7Ch]
  0040288C: 50                 push        eax
  0040288D: FF 15 90 34 41 00  call        dword ptr ds:[00413490h]
  00402893: 89 45 A8           mov         dword ptr [ebp-58h],eax
  00402896: 3B C3              cmp         eax,ebx
  00402898: 75 17              jne         004028B1
  0040289A: 68 28 D2 40 00     push        40D228h
  0040289F: E8 9C 09 00 00     call        00403240
  004028A4: 83 C4 04           add         esp,4
  004028A7: 53                 push        ebx
  004028A8: 53                 push        ebx
  004028A9: 53                 push        ebx
  004028AA: 68 00 01 00 00     push        100h
  004028AF: FF D7              call        edi
  004028B1: 8D 4E 04           lea         ecx,[esi+4]
  004028B4: 89 4D A0           mov         dword ptr [ebp-60h],ecx
  004028B7: 89 75 D0           mov         dword ptr [ebp-30h],esi
  004028BA: 83 CB FF           or          ebx,0FFFFFFFFh
  004028BD: 89 5D A4           mov         dword ptr [ebp-5Ch],ebx
  004028C0: 8B 55 AC           mov         edx,dword ptr [ebp-54h]
  004028C3: 52                 push        edx
  004028C4: FF 15 38 33 41 00  call        dword ptr ds:[00413338h]
  004028CA: 6A FF              push        0FFFFFFFFh
  004028CC: A1 C8 D0 40 00     mov         eax,dword ptr ds:[0040D0C8h]
  004028D1: 50                 push        eax
  004028D2: FF 15 40 33 41 00  call        dword ptr ds:[00413340h]
  004028D8: 89 45 B0           mov         dword ptr [ebp-50h],eax
  004028DB: 8B 0D 9C 0C 41 00  mov         ecx,dword ptr ds:[00410C9Ch]
  004028E1: 85 C9              test        ecx,ecx
  004028E3: 0F 84 02 02 00 00  je          00402AEB
  004028E9: 85 C0              test        eax,eax
  004028EB: 74 1D              je          0040290A
  004028ED: 68 1C D2 40 00     push        40D21Ch
  004028F2: E8 49 09 00 00     call        00403240
  004028F7: 83 C4 04           add         esp,4
  004028FA: 6A 00              push        0
  004028FC: 6A 00              push        0
  004028FE: 6A 00              push        0
  00402900: B8 00 01 00 00     mov         eax,100h
  00402905: 50                 push        eax
  00402906: FF D7              call        edi
  00402908: EB C0              jmp         004028CA
  0040290A: 8B 75 A0           mov         esi,dword ptr [ebp-60h]
  0040290D: B8 08 D2 40 00     mov         eax,40D208h
  00402912: 8A 10              mov         dl,byte ptr [eax]
  00402914: 8A CA              mov         cl,dl
  00402916: 3A 16              cmp         dl,byte ptr [esi]
  00402918: 75 1C              jne         00402936
  0040291A: 84 C9              test        cl,cl
  0040291C: 74 14              je          00402932
  0040291E: 8A 50 01           mov         dl,byte ptr [eax+1]
  00402921: 8A CA              mov         cl,dl
  00402923: 3A 56 01           cmp         dl,byte ptr [esi+1]
  00402926: 75 0E              jne         00402936
  00402928: 83 C0 02           add         eax,2
  0040292B: 83 C6 02           add         esi,2
  0040292E: 84 C9              test        cl,cl
  00402930: 75 E0              jne         00402912
  00402932: 33 C0              xor         eax,eax
  00402934: EB 05              jmp         0040293B
  00402936: 1B C0              sbb         eax,eax
  00402938: 83 D8 FF           sbb         eax,0FFFFFFFFh
  0040293B: 85 C0              test        eax,eax
  0040293D: 75 1D              jne         0040295C
  0040293F: 50                 push        eax
  00402940: 50                 push        eax
  00402941: 68 CD 04 00 00     push        4CDh
  00402946: A1 7C 0C 41 00     mov         eax,dword ptr ds:[00410C7Ch]
  0040294B: 50                 push        eax
  0040294C: FF 15 90 34 41 00  call        dword ptr ds:[00413490h]
  00402952: E8 E9 01 00 00     call        00402B40
  00402957: E9 63 01 00 00     jmp         00402ABF
  0040295C: A1 BC D0 40 00     mov         eax,dword ptr ds:[0040D0BCh]
  00402961: 85 C0              test        eax,eax
  00402963: 75 0D              jne         00402972
  00402965: A1 C0 D0 40 00     mov         eax,dword ptr ds:[0040D0C0h]
  0040296A: 85 C0              test        eax,eax
  0040296C: 0F 84 4D 01 00 00  je          00402ABF
  00402972: 33 F6              xor         esi,esi
  00402974: 89 75 9C           mov         dword ptr [ebp-64h],esi
  00402977: 8B 4D D0           mov         ecx,dword ptr [ebp-30h]
  0040297A: 8B 01              mov         eax,dword ptr [ecx]
  0040297C: 3B D8              cmp         ebx,eax
  0040297E: 74 17              je          00402997
  00402980: 8B D8              mov         ebx,eax
  00402982: 89 5D A4           mov         dword ptr [ebp-5Ch],ebx
  00402985: 8B 45 E0           mov         eax,dword ptr [ebp-20h]
  00402988: 85 C0              test        eax,eax
  0040298A: 75 0B              jne         00402997
  0040298C: BE 01 00 00 00     mov         esi,1
  00402991: 89 75 9C           mov         dword ptr [ebp-64h],esi
  00402994: 89 75 E0           mov         dword ptr [ebp-20h],esi
  00402997: 8B 55 A0           mov         edx,dword ptr [ebp-60h]
  0040299A: 52                 push        edx
  0040299B: A1 8C 0C 41 00     mov         eax,dword ptr ds:[00410C8Ch]
  004029A0: 50                 push        eax
  004029A1: E8 EA 01 00 00     call        00402B90
  004029A6: 83 C4 08           add         esp,8
  004029A9: 85 C0              test        eax,eax
  004029AB: 75 0F              jne         004029BC
  004029AD: 50                 push        eax
  004029AE: 50                 push        eax
  004029AF: 50                 push        eax
  004029B0: B8 00 01 00 00     mov         eax,100h
  004029B5: 50                 push        eax
  004029B6: FF 15 4C 34 41 00  call        dword ptr ds:[0041344Ch]
  004029BC: 85 F6              test        esi,esi
  004029BE: 8B 0D 90 0C 41 00  mov         ecx,dword ptr ds:[00410C90h]
  004029C4: 74 14              je          004029DA
  004029C6: 66 8B 15 04 D2 40  mov         dx,word ptr ds:[0040D204h]
            00
  004029CD: 66 89 11           mov         word ptr [ecx],dx
  004029D0: A0 06 D2 40 00     mov         al,byte ptr ds:[0040D206h]
  004029D5: 88 41 02           mov         byte ptr [ecx+2],al
  004029D8: EB 03              jmp         004029DD
  004029DA: C6 01 00           mov         byte ptr [ecx],0
  004029DD: A1 C4 D0 40 00     mov         eax,dword ptr ds:[0040D0C4h]
  004029E2: 85 C0              test        eax,eax
  004029E4: 74 2E              je          00402A14
  004029E6: 8B 45 E0           mov         eax,dword ptr [ebp-20h]
  004029E9: 85 C0              test        eax,eax
  004029EB: 74 27              je          00402A14
  004029ED: 8B 15 90 0C 41 00  mov         edx,dword ptr ds:[00410C90h]
  004029F3: 8B FA              mov         edi,edx
  004029F5: 83 C9 FF           or          ecx,0FFFFFFFFh
  004029F8: 33 C0              xor         eax,eax
  004029FA: F2 AE              repne scas  byte ptr es:[edi]
  004029FC: F7 D1              not         ecx
  004029FE: 49                 dec         ecx
  004029FF: 89 4D 98           mov         dword ptr [ebp-68h],ecx
  00402A02: 53                 push        ebx
  00402A03: 68 FC D1 40 00     push        40D1FCh
  00402A08: 03 CA              add         ecx,edx
  00402A0A: 51                 push        ecx
  00402A0B: FF 15 F4 34 41 00  call        dword ptr ds:[004134F4h]
  00402A11: 83 C4 0C           add         esp,0Ch
  00402A14: 8B 3D 8C 0C 41 00  mov         edi,dword ptr ds:[00410C8Ch]
  00402A1A: 83 C9 FF           or          ecx,0FFFFFFFFh
  00402A1D: 33 C0              xor         eax,eax
  00402A1F: F2 AE              repne scas  byte ptr es:[edi]
  00402A21: F7 D1              not         ecx
  00402A23: 2B F9              sub         edi,ecx
  00402A25: 8B F7              mov         esi,edi
  00402A27: 8B D1              mov         edx,ecx
  00402A29: 8B 3D 90 0C 41 00  mov         edi,dword ptr ds:[00410C90h]
  00402A2F: 83 C9 FF           or          ecx,0FFFFFFFFh
  00402A32: F2 AE              repne scas  byte ptr es:[edi]
  00402A34: 4F                 dec         edi
  00402A35: 8B CA              mov         ecx,edx
  00402A37: C1 E9 02           shr         ecx,2
  00402A3A: F3 A5              rep movs    dword ptr es:[edi],dword ptr [esi]
  00402A3C: 8B CA              mov         ecx,edx
  00402A3E: 83 E1 03           and         ecx,3
  00402A41: F3 A4              rep movs    byte ptr es:[edi],byte ptr [esi]
  00402A43: 8B 15 8C 0C 41 00  mov         edx,dword ptr ds:[00410C8Ch]
  00402A49: 80 3A 00           cmp         byte ptr [edx],0
  00402A4C: 74 1A              je          00402A68
  00402A4E: 8B FA              mov         edi,edx
  00402A50: 83 C9 FF           or          ecx,0FFFFFFFFh
  00402A53: 33 C0              xor         eax,eax
  00402A55: F2 AE              repne scas  byte ptr es:[edi]
  00402A57: F7 D1              not         ecx
  00402A59: 49                 dec         ecx
  00402A5A: 80 7C 11 FF 0A     cmp         byte ptr [ecx+edx-1],0Ah
  00402A5F: 75 07              jne         00402A68
  00402A61: B8 01 00 00 00     mov         eax,1
  00402A66: EB 02              jmp         00402A6A
  00402A68: 33 C0              xor         eax,eax
  00402A6A: 89 45 E0           mov         dword ptr [ebp-20h],eax
  00402A6D: A1 BC D0 40 00     mov         eax,dword ptr ds:[0040D0BCh]
  00402A72: 85 C0              test        eax,eax
  00402A74: 74 14              je          00402A8A
  00402A76: 6A 00              push        0
  00402A78: A1 90 0C 41 00     mov         eax,dword ptr ds:[00410C90h]
  00402A7D: 50                 push        eax
  00402A7E: 8B 4D A8           mov         ecx,dword ptr [ebp-58h]
  00402A81: 51                 push        ecx
  00402A82: E8 69 EE FF FF     call        004018F0
  00402A87: 83 C4 0C           add         esp,0Ch
  00402A8A: A1 C0 D0 40 00     mov         eax,dword ptr ds:[0040D0C0h]
  00402A8F: 85 C0              test        eax,eax
  00402A91: 74 2C              je          00402ABF
  00402A93: 8B 35 D0 D0 40 00  mov         esi,dword ptr ds:[0040D0D0h]
  00402A99: 83 FE FF           cmp         esi,0FFFFFFFFh
  00402A9C: 74 21              je          00402ABF
  00402A9E: 6A 00              push        0
  00402AA0: 8D 55 94           lea         edx,[ebp-6Ch]
  00402AA3: 52                 push        edx
  00402AA4: 8B 15 90 0C 41 00  mov         edx,dword ptr ds:[00410C90h]
  00402AAA: 8B FA              mov         edi,edx
  00402AAC: 83 C9 FF           or          ecx,0FFFFFFFFh
  00402AAF: 33 C0              xor         eax,eax
  00402AB1: F2 AE              repne scas  byte ptr es:[edi]
  00402AB3: F7 D1              not         ecx
  00402AB5: 49                 dec         ecx
  00402AB6: 51                 push        ecx
  00402AB7: 52                 push        edx
  00402AB8: 56                 push        esi
  00402AB9: FF 15 24 34 41 00  call        dword ptr ds:[00413424h]
  00402ABF: 8B 45 AC           mov         eax,dword ptr [ebp-54h]
  00402AC2: 50                 push        eax
  00402AC3: FF 15 38 33 41 00  call        dword ptr ds:[00413338h]
  00402AC9: 8B 3D 4C 34 41 00  mov         edi,dword ptr ds:[0041344Ch]
  00402ACF: E9 F6 FD FF FF     jmp         004028CA
  00402AD4: 8B 4D EC           mov         ecx,dword ptr [ebp-14h]
  00402AD7: 8B 11              mov         edx,dword ptr [ecx]
  00402AD9: 8B 02              mov         eax,dword ptr [edx]
  00402ADB: 33 C9              xor         ecx,ecx
  00402ADD: 3D 00 01 00 00     cmp         eax,100h
  00402AE2: 0F 94 C1           sete        cl
  00402AE5: 8B C1              mov         eax,ecx
  00402AE7: C3                 ret
  00402AE8: 8B 65 E8           mov         esp,dword ptr [ebp-18h]
  00402AEB: C7 45 FC FF FF FF  mov         dword ptr [ebp-4],0FFFFFFFFh
            FF
  00402AF2: 8B 75 AC           mov         esi,dword ptr [ebp-54h]
  00402AF5: 83 FE FF           cmp         esi,0FFFFFFFFh
  00402AF8: 74 13              je          00402B0D
  00402AFA: 56                 push        esi
  00402AFB: FF 15 38 33 41 00  call        dword ptr ds:[00413338h]
  00402B01: 83 FE FF           cmp         esi,0FFFFFFFFh
  00402B04: 74 07              je          00402B0D
  00402B06: 56                 push        esi
  00402B07: FF 15 3C 33 41 00  call        dword ptr ds:[0041333Ch]
  00402B0D: 8B 45 CC           mov         eax,dword ptr [ebp-34h]
  00402B10: 85 C0              test        eax,eax
  00402B12: 74 07              je          00402B1B
  00402B14: 50                 push        eax
  00402B15: FF 15 F4 33 41 00  call        dword ptr ds:[004133F4h]
  00402B1B: 8B 45 E4           mov         eax,dword ptr [ebp-1Ch]
  00402B1E: 83 F8 FF           cmp         eax,0FFFFFFFFh
  00402B21: 74 07              je          00402B2A
  00402B23: 50                 push        eax
  00402B24: FF 15 3C 33 41 00  call        dword ptr ds:[0041333Ch]
  00402B2A: 33 C0              xor         eax,eax
  00402B2C: 8B 4D F0           mov         ecx,dword ptr [ebp-10h]
  00402B2F: 64 89 0D 00 00 00  mov         dword ptr fs:[00000000h],ecx
            00
  00402B36: 5F                 pop         edi
  00402B37: 5E                 pop         esi
  00402B38: 5B                 pop         ebx
  00402B39: 8B E5              mov         esp,ebp
  00402B3B: 5D                 pop         ebp
  00402B3C: C2 04 00           ret         4
  00402B3F: 90                 nop
  00402B40: 51                 push        ecx
  00402B41: 56                 push        esi
  00402B42: 8B 35 D0 D0 40 00  mov         esi,dword ptr ds:[0040D0D0h]
  00402B48: 83 FE FF           cmp         esi,0FFFFFFFFh
  00402B4B: 74 31              je          00402B7E
  00402B4D: A1 34 11 41 00     mov         eax,dword ptr ds:[00411134h]
  00402B52: 57                 push        edi
  00402B53: 85 C0              test        eax,eax
  00402B55: BA E4 D3 40 00     mov         edx,40D3E4h
  00402B5A: 75 05              jne         00402B61
  00402B5C: BA DC D3 40 00     mov         edx,40D3DCh
  00402B61: 8D 44 24 08        lea         eax,[esp+8]
  00402B65: 6A 00              push        0
  00402B67: 50                 push        eax
  00402B68: 8B FA              mov         edi,edx
  00402B6A: 83 C9 FF           or          ecx,0FFFFFFFFh
  00402B6D: 33 C0              xor         eax,eax
  00402B6F: F2 AE              repne scas  byte ptr es:[edi]
  00402B71: F7 D1              not         ecx
  00402B73: 49                 dec         ecx
  00402B74: 51                 push        ecx
  00402B75: 52                 push        edx
  00402B76: 56                 push        esi
  00402B77: FF 15 24 34 41 00  call        dword ptr ds:[00413424h]
  00402B7D: 5F                 pop         edi
  00402B7E: 5E                 pop         esi
  00402B7F: 59                 pop         ecx
  00402B80: C3                 ret
  00402B81: 90                 nop
  00402B82: 90                 nop
  00402B83: 90                 nop
  00402B84: 90                 nop
  00402B85: 90                 nop
  00402B86: 90                 nop
  00402B87: 90                 nop
  00402B88: 90                 nop
  00402B89: 90                 nop
  00402B8A: 90                 nop
  00402B8B: 90                 nop
  00402B8C: 90                 nop
  00402B8D: 90                 nop
  00402B8E: 90                 nop
  00402B8F: 90                 nop
  00402B90: 53                 push        ebx
  00402B91: 55                 push        ebp
  00402B92: 8B 6C 24 0C        mov         ebp,dword ptr [esp+0Ch]
  00402B96: 56                 push        esi
  00402B97: 85 ED              test        ebp,ebp
  00402B99: 57                 push        edi
  00402B9A: 0F 84 E3 00 00 00  je          00402C83
  00402BA0: 8B 44 24 18        mov         eax,dword ptr [esp+18h]
  00402BA4: 85 C0              test        eax,eax
  00402BA6: 0F 84 D7 00 00 00  je          00402C83
  00402BAC: 68 00 02 00 00     push        200h
  00402BB1: 50                 push        eax
  00402BB2: 55                 push        ebp
  00402BB3: E8 78 1B 00 00     call        00404730
  00402BB8: 8B FD              mov         edi,ebp
  00402BBA: 83 C9 FF           or          ecx,0FFFFFFFFh
  00402BBD: 33 C0              xor         eax,eax
  00402BBF: 83 C4 0C           add         esp,0Ch
  00402BC2: C6 85 00 02 00 00  mov         byte ptr [ebp+00000200h],0
            00
  00402BC9: F2 AE              repne scas  byte ptr es:[edi]
  00402BCB: F7 D1              not         ecx
  00402BCD: 49                 dec         ecx
  00402BCE: 81 F9 00 02 00 00  cmp         ecx,200h
  00402BD4: 75 17              jne         00402BED
  00402BD6: 80 BD FF 01 00 00  cmp         byte ptr [ebp+000001FFh],0Ah
            0A
  00402BDD: 74 0E              je          00402BED
  00402BDF: C6 85 00 02 00 00  mov         byte ptr [ebp+00000200h],0Ah
            0A
  00402BE6: C6 85 01 02 00 00  mov         byte ptr [ebp+00000201h],0
            00
  00402BED: 68 E8 D3 40 00     push        40D3E8h
  00402BF2: 55                 push        ebp
  00402BF3: E8 B8 1A 00 00     call        004046B0
  00402BF8: 83 C4 08           add         esp,8
  00402BFB: 85 C0              test        eax,eax
  00402BFD: 74 1C              je          00402C1B
  00402BFF: C6 00 0D           mov         byte ptr [eax],0Dh
  00402C02: C6 40 01 0A        mov         byte ptr [eax+1],0Ah
  00402C06: 83 C0 02           add         eax,2
  00402C09: 68 E8 D3 40 00     push        40D3E8h
  00402C0E: 50                 push        eax
  00402C0F: E8 9C 1A 00 00     call        004046B0
  00402C14: 83 C4 08           add         esp,8
  00402C17: 85 C0              test        eax,eax
  00402C19: 75 E4              jne         00402BFF
  00402C1B: 8A 45 00           mov         al,byte ptr [ebp]
  00402C1E: 8B F5              mov         esi,ebp
  00402C20: 84 C0              test        al,al
  00402C22: 74 55              je          00402C79
  00402C24: 8D 5D 01           lea         ebx,[ebp+1]
  00402C27: 80 3E 0A           cmp         byte ptr [esi],0Ah
  00402C2A: 75 44              jne         00402C70
  00402C2C: 3B F5              cmp         esi,ebp
  00402C2E: 75 1F              jne         00402C4F
  00402C30: 8B FD              mov         edi,ebp
  00402C32: 83 C9 FF           or          ecx,0FFFFFFFFh
  00402C35: 33 C0              xor         eax,eax
  00402C37: F2 AE              repne scas  byte ptr es:[edi]
  00402C39: F7 D1              not         ecx
  00402C3B: 51                 push        ecx
  00402C3C: 8D 45 01           lea         eax,[ebp+1]
  00402C3F: 55                 push        ebp
  00402C40: 50                 push        eax
  00402C41: E8 2A 17 00 00     call        00404370
  00402C46: 83 C4 0C           add         esp,0Ch
  00402C49: C6 45 00 0D        mov         byte ptr [ebp],0Dh
  00402C4D: EB 1F              jmp         00402C6E
  00402C4F: 80 7E FF 0D        cmp         byte ptr [esi-1],0Dh
  00402C53: 74 1B              je          00402C70
  00402C55: 8B FE              mov         edi,esi
  00402C57: 83 C9 FF           or          ecx,0FFFFFFFFh
  00402C5A: 33 C0              xor         eax,eax
  00402C5C: F2 AE              repne scas  byte ptr es:[edi]
  00402C5E: F7 D1              not         ecx
  00402C60: 51                 push        ecx
  00402C61: 56                 push        esi
  00402C62: 53                 push        ebx
  00402C63: E8 08 17 00 00     call        00404370
  00402C68: 83 C4 0C           add         esp,0Ch
  00402C6B: C6 06 0D           mov         byte ptr [esi],0Dh
  00402C6E: 46                 inc         esi
  00402C6F: 43                 inc         ebx
  00402C70: 8A 46 01           mov         al,byte ptr [esi+1]
  00402C73: 46                 inc         esi
  00402C74: 43                 inc         ebx
  00402C75: 84 C0              test        al,al
  00402C77: 75 AE              jne         00402C27
  00402C79: B8 01 00 00 00     mov         eax,1
  00402C7E: 5F                 pop         edi
  00402C7F: 5E                 pop         esi
  00402C80: 5D                 pop         ebp
  00402C81: 5B                 pop         ebx
  00402C82: C3                 ret
  00402C83: 5F                 pop         edi
  00402C84: 5E                 pop         esi
  00402C85: 5D                 pop         ebp
  00402C86: 33 C0              xor         eax,eax
  00402C88: 5B                 pop         ebx
  00402C89: C3                 ret
  00402C8A: 90                 nop
  00402C8B: 90                 nop
  00402C8C: 90                 nop
  00402C8D: 90                 nop
  00402C8E: 90                 nop
  00402C8F: 90                 nop
  00402C90: 8B 44 24 08        mov         eax,dword ptr [esp+8]
  00402C94: 8B 4C 24 04        mov         ecx,dword ptr [esp+4]
  00402C98: 56                 push        esi
  00402C99: 8B 74 24 10        mov         esi,dword ptr [esp+10h]
  00402C9D: 57                 push        edi
  00402C9E: 8B 7C 24 18        mov         edi,dword ptr [esp+18h]
  00402CA2: 56                 push        esi
  00402CA3: 50                 push        eax
  00402CA4: 51                 push        ecx
  00402CA5: C7 07 00 00 00 00  mov         dword ptr [edi],0
  00402CAB: FF 15 60 34 41 00  call        dword ptr ds:[00413460h]
  00402CB1: 3B C6              cmp         eax,esi
  00402CB3: 75 09              jne         00402CBE
  00402CB5: 89 37              mov         dword ptr [edi],esi
  00402CB7: 33 C0              xor         eax,eax
  00402CB9: 5F                 pop         edi
  00402CBA: 5E                 pop         esi
  00402CBB: C2 10 00           ret         10h
  00402CBE: 5F                 pop         edi
  00402CBF: B8 01 00 00 00     mov         eax,1
  00402CC4: 5E                 pop         esi
  00402CC5: C2 10 00           ret         10h
  00402CC8: 90                 nop
  00402CC9: 90                 nop
  00402CCA: 90                 nop
  00402CCB: 90                 nop
  00402CCC: 90                 nop
  00402CCD: 90                 nop
  00402CCE: 90                 nop
  00402CCF: 90                 nop
  00402CD0: A1 7C 0C 41 00     mov         eax,dword ptr ds:[00410C7Ch]
  00402CD5: 81 EC 94 00 00 00  sub         esp,94h
  00402CDB: 56                 push        esi
  00402CDC: 50                 push        eax
  00402CDD: FF 15 74 34 41 00  call        dword ptr ds:[00413474h]
  00402CE3: 85 C0              test        eax,eax
  00402CE5: 75 0D              jne         00402CF4
  00402CE7: B8 01 00 00 00     mov         eax,1
  00402CEC: 5E                 pop         esi
  00402CED: 81 C4 94 00 00 00  add         esp,94h
  00402CF3: C3                 ret
  00402CF4: 8B 94 24 A0 00 00  mov         edx,dword ptr [esp+000000A0h]
            00
  00402CFB: 8D 4C 24 10        lea         ecx,[esp+10h]
  00402CFF: 68 01 10 00 00     push        1001h
  00402D04: 51                 push        ecx
  00402D05: 52                 push        edx
  00402D06: FF 15 5C 34 41 00  call        dword ptr ds:[0041345Ch]
  00402D0C: 8B F0              mov         esi,eax
  00402D0E: 83 FE FF           cmp         esi,0FFFFFFFFh
  00402D11: 74 42              je          00402D55
  00402D13: 8B 8C 24 9C 00 00  mov         ecx,dword ptr [esp+0000009Ch]
            00
  00402D1A: 8D 44 24 04        lea         eax,[esp+4]
  00402D1E: 50                 push        eax
  00402D1F: 6A 01              push        1
  00402D21: 68 4A 04 00 00     push        44Ah
  00402D26: 51                 push        ecx
  00402D27: 89 74 24 14        mov         dword ptr [esp+14h],esi
  00402D2B: C7 44 24 18 00 00  mov         dword ptr [esp+18h],0
            00 00
  00402D33: C7 44 24 1C 90 2C  mov         dword ptr [esp+1Ch],402C90h
            40 00
  00402D3B: FF 15 90 34 41 00  call        dword ptr ds:[00413490h]
  00402D41: 56                 push        esi
  00402D42: FF 15 64 34 41 00  call        dword ptr ds:[00413464h]
  00402D48: B8 01 00 00 00     mov         eax,1
  00402D4D: 5E                 pop         esi
  00402D4E: 81 C4 94 00 00 00  add         esp,94h
  00402D54: C3                 ret
  00402D55: 33 C0              xor         eax,eax
  00402D57: 5E                 pop         esi
  00402D58: 81 C4 94 00 00 00  add         esp,94h
  00402D5E: C3                 ret
  00402D5F: 90                 nop
  00402D60: 81 EC 4C 01 00 00  sub         esp,14Ch
  00402D66: 56                 push        esi
  00402D67: 57                 push        edi
  00402D68: BF 60 0A 41 00     mov         edi,410A60h
  00402D6D: 83 C9 FF           or          ecx,0FFFFFFFFh
  00402D70: 33 C0              xor         eax,eax
  00402D72: 8D 54 24 54        lea         edx,[esp+54h]
  00402D76: F2 AE              repne scas  byte ptr es:[edi]
  00402D78: F7 D1              not         ecx
  00402D7A: 2B F9              sub         edi,ecx
  00402D7C: C7 44 24 08 4C 00  mov         dword ptr [esp+8],4Ch
            00 00
  00402D84: 8B C1              mov         eax,ecx
  00402D86: 8B F7              mov         esi,edi
  00402D88: 8B FA              mov         edi,edx
  00402D8A: 8B 15 74 0C 41 00  mov         edx,dword ptr ds:[00410C74h]
  00402D90: C1 E9 02           shr         ecx,2
  00402D93: F3 A5              rep movs    dword ptr es:[edi],dword ptr [esi]
  00402D95: 8B C8              mov         ecx,eax
  00402D97: 8D 44 24 54        lea         eax,[esp+54h]
  00402D9B: 83 E1 03           and         ecx,3
  00402D9E: 89 54 24 10        mov         dword ptr [esp+10h],edx
  00402DA2: F3 A4              rep movs    byte ptr es:[edi],byte ptr [esi]
  00402DA4: 8B 0D 78 0C 41 00  mov         ecx,dword ptr ds:[00410C78h]
  00402DAA: 33 F6              xor         esi,esi
  00402DAC: 89 4C 24 0C        mov         dword ptr [esp+0Ch],ecx
  00402DB0: 8D 4C 24 08        lea         ecx,[esp+8]
  00402DB4: 51                 push        ecx
  00402DB5: C7 44 24 18 F0 D3  mov         dword ptr [esp+18h],40D3F0h
            40 00
  00402DBD: 89 74 24 1C        mov         dword ptr [esp+1Ch],esi
  00402DC1: 89 74 24 20        mov         dword ptr [esp+20h],esi
  00402DC5: C7 44 24 24 01 00  mov         dword ptr [esp+24h],1
            00 00
  00402DCD: 89 44 24 28        mov         dword ptr [esp+28h],eax
  00402DD1: C7 44 24 2C 00 01  mov         dword ptr [esp+2Ch],100h
            00 00
  00402DD9: 89 74 24 30        mov         dword ptr [esp+30h],esi
  00402DDD: 89 74 24 34        mov         dword ptr [esp+34h],esi
  00402DE1: 89 74 24 38        mov         dword ptr [esp+38h],esi
  00402DE5: 89 74 24 3C        mov         dword ptr [esp+3Ch],esi
  00402DE9: C7 44 24 40 06 08  mov         dword ptr [esp+40h],806h
            00 00
  00402DF1: 66 89 74 24 44     mov         word ptr [esp+44h],si
  00402DF6: 66 89 74 24 46     mov         word ptr [esp+46h],si
  00402DFB: C7 44 24 48 EC D3  mov         dword ptr [esp+48h],40D3ECh
            40 00
  00402E03: 89 74 24 4C        mov         dword ptr [esp+4Ch],esi
  00402E07: 89 74 24 50        mov         dword ptr [esp+50h],esi
  00402E0B: 89 74 24 54        mov         dword ptr [esp+54h],esi
  00402E0F: E8 9C 0F 00 00     call        00403DB0
  00402E14: 85 C0              test        eax,eax
  00402E16: 74 48              je          00402E60
  00402E18: A1 7C 0C 41 00     mov         eax,dword ptr ds:[00410C7Ch]
  00402E1D: 8D 54 24 54        lea         edx,[esp+54h]
  00402E21: 52                 push        edx
  00402E22: 50                 push        eax
  00402E23: E8 A8 FE FF FF     call        00402CD0
  00402E28: 8B D0              mov         edx,eax
  00402E2A: 83 C4 08           add         esp,8
  00402E2D: 3B D6              cmp         edx,esi
  00402E2F: 74 24              je          00402E55
  00402E31: 8D 7C 24 54        lea         edi,[esp+54h]
  00402E35: 83 C9 FF           or          ecx,0FFFFFFFFh
  00402E38: 33 C0              xor         eax,eax
  00402E3A: F2 AE              repne scas  byte ptr es:[edi]
  00402E3C: F7 D1              not         ecx
  00402E3E: 2B F9              sub         edi,ecx
  00402E40: 8B C1              mov         eax,ecx
  00402E42: 8B F7              mov         esi,edi
  00402E44: BF 60 0A 41 00     mov         edi,410A60h
  00402E49: C1 E9 02           shr         ecx,2
  00402E4C: F3 A5              rep movs    dword ptr es:[edi],dword ptr [esi]
  00402E4E: 8B C8              mov         ecx,eax
  00402E50: 83 E1 03           and         ecx,3
  00402E53: F3 A4              rep movs    byte ptr es:[edi],byte ptr [esi]
  00402E55: 8B C2              mov         eax,edx
  00402E57: 5F                 pop         edi
  00402E58: 5E                 pop         esi
  00402E59: 81 C4 4C 01 00 00  add         esp,14Ch
  00402E5F: C3                 ret
  00402E60: 5F                 pop         edi
  00402E61: 33 C0              xor         eax,eax
  00402E63: 5E                 pop         esi
  00402E64: 81 C4 4C 01 00 00  add         esp,14Ch
  00402E6A: C3                 ret
  00402E6B: 90                 nop
  00402E6C: 90                 nop
  00402E6D: 90                 nop
  00402E6E: 90                 nop
  00402E6F: 90                 nop
  00402E70: 56                 push        esi
  00402E71: 57                 push        edi
  00402E72: 8B 7C 24 0C        mov         edi,dword ptr [esp+0Ch]
  00402E76: 33 D2              xor         edx,edx
  00402E78: 8B 0F              mov         ecx,dword ptr [edi]
  00402E7A: 80 39 20           cmp         byte ptr [ecx],20h
  00402E7D: 75 08              jne         00402E87
  00402E7F: 8A 41 01           mov         al,byte ptr [ecx+1]
  00402E82: 41                 inc         ecx
  00402E83: 3C 20              cmp         al,20h
  00402E85: 74 F8              je          00402E7F
  00402E87: 8A 01              mov         al,byte ptr [ecx]
  00402E89: 33 F6              xor         esi,esi
  00402E8B: 41                 inc         ecx
  00402E8C: 84 C0              test        al,al
  00402E8E: 74 28              je          00402EB8
  00402E90: 3C 2D              cmp         al,2Dh
  00402E92: 75 0B              jne         00402E9F
  00402E94: 33 C0              xor         eax,eax
  00402E96: 85 F6              test        esi,esi
  00402E98: 0F 94 C0           sete        al
  00402E9B: 8B F0              mov         esi,eax
  00402E9D: EB 12              jmp         00402EB1
  00402E9F: 3C 30              cmp         al,30h
  00402EA1: 7C 15              jl          00402EB8
  00402EA3: 3C 39              cmp         al,39h
  00402EA5: 7F 11              jg          00402EB8
  00402EA7: 0F BE C0           movsx       eax,al
  00402EAA: 8D 14 92           lea         edx,[edx+edx*4]
  00402EAD: 8D 54 50 D0        lea         edx,[eax+edx*2-30h]
  00402EB1: 8A 01              mov         al,byte ptr [ecx]
  00402EB3: 41                 inc         ecx
  00402EB4: 84 C0              test        al,al
  00402EB6: 75 D8              jne         00402E90
  00402EB8: 85 F6              test        esi,esi
  00402EBA: 89 0F              mov         dword ptr [edi],ecx
  00402EBC: 74 02              je          00402EC0
  00402EBE: F7 DA              neg         edx
  00402EC0: 5F                 pop         edi
  00402EC1: 8B C2              mov         eax,edx
  00402EC3: 5E                 pop         esi
  00402EC4: C3                 ret
  00402EC5: 90                 nop
  00402EC6: 90                 nop
  00402EC7: 90                 nop
  00402EC8: 90                 nop
  00402EC9: 90                 nop
  00402ECA: 90                 nop
  00402ECB: 90                 nop
  00402ECC: 90                 nop
  00402ECD: 90                 nop
  00402ECE: 90                 nop
  00402ECF: 90                 nop
  00402ED0: 81 EC B0 00 00 00  sub         esp,0B0h
  00402ED6: 8D 4C 24 30        lea         ecx,[esp+30h]
  00402EDA: 68 80 00 00 00     push        80h
  00402EDF: 8D 44 24 34        lea         eax,[esp+34h]
  00402EE3: 51                 push        ecx
  00402EE4: 68 0C D4 40 00     push        40D40Ch
  00402EE9: 89 44 24 0C        mov         dword ptr [esp+0Ch],eax
  00402EED: E8 1E 06 00 00     call        00403510
  00402EF2: 83 C4 0C           add         esp,0Ch
  00402EF5: 8D 54 24 00        lea         edx,[esp]
  00402EF9: 52                 push        edx
  00402EFA: E8 71 FF FF FF     call        00402E70
  00402EFF: 83 C4 04           add         esp,4
  00402F02: 83 F8 0F           cmp         eax,0Fh
  00402F05: 74 76              je          00402F7D
  00402F07: 57                 push        edi
  00402F08: 56                 push        esi
  00402F09: 55                 push        ebp
  00402F0A: 8B 2D E8 34 41 00  mov         ebp,dword ptr ds:[004134E8h]
  00402F10: 53                 push        ebx
  00402F11: 6A 00              push        0
  00402F13: FF D5              call        ebp
  00402F15: 6A 01              push        1
  00402F17: 8B F0              mov         esi,eax
  00402F19: FF D5              call        ebp
  00402F1B: 8B D8              mov         ebx,eax
  00402F1D: 8B C6              mov         eax,esi
  00402F1F: 99                 cdq
  00402F20: 2B C2              sub         eax,edx
  00402F22: 6A 27              push        27h
  00402F24: 8B F8              mov         edi,eax
  00402F26: D1 FF              sar         edi,1
  00402F28: 2B F7              sub         esi,edi
  00402F2A: FF D5              call        ebp
  00402F2C: 8B AC 24 C4 00 00  mov         ebp,dword ptr [esp+000000C4h]
            00
  00402F33: 2B D8              sub         ebx,eax
  00402F35: 8D 44 24 14        lea         eax,[esp+14h]
  00402F39: C7 44 24 14 2C 00  mov         dword ptr [esp+14h],2Ch
            00 00
  00402F41: 50                 push        eax
  00402F42: 55                 push        ebp
  00402F43: FF 15 EC 34 41 00  call        dword ptr ds:[004134ECh]
  00402F49: 8D 4C 24 14        lea         ecx,[esp+14h]
  00402F4D: 03 FE              add         edi,esi
  00402F4F: 51                 push        ecx
  00402F50: 55                 push        ebp
  00402F51: 89 74 24 38        mov         dword ptr [esp+38h],esi
  00402F55: C7 44 24 3C 00 00  mov         dword ptr [esp+3Ch],0
            00 00
  00402F5D: 89 7C 24 40        mov         dword ptr [esp+40h],edi
  00402F61: 89 5C 24 44        mov         dword ptr [esp+44h],ebx
  00402F65: FF 15 F0 34 41 00  call        dword ptr ds:[004134F0h]
  00402F6B: 6A 01              push        1
  00402F6D: 55                 push        ebp
  00402F6E: FF 15 2C 35 41 00  call        dword ptr ds:[0041352Ch]
  00402F74: 5B                 pop         ebx
  00402F75: 5D                 pop         ebp
  00402F76: 5E                 pop         esi
  00402F77: 5F                 pop         edi
  00402F78: E9 1F 01 00 00     jmp         0040309C
  00402F7D: 8D 54 24 00        lea         edx,[esp]
  00402F81: C7 44 24 04 2C 00  mov         dword ptr [esp+4],2Ch
            00 00
  00402F89: 52                 push        edx
  00402F8A: E8 E1 FE FF FF     call        00402E70
  00402F8F: 83 C4 04           add         esp,4
  00402F92: 89 44 24 08        mov         dword ptr [esp+8],eax
  00402F96: 8D 44 24 00        lea         eax,[esp]
  00402F9A: 50                 push        eax
  00402F9B: E8 D0 FE FF FF     call        00402E70
  00402FA0: 83 C4 04           add         esp,4
  00402FA3: 8D 4C 24 00        lea         ecx,[esp]
  00402FA7: 89 44 24 0C        mov         dword ptr [esp+0Ch],eax
  00402FAB: 51                 push        ecx
  00402FAC: E8 BF FE FF FF     call        00402E70
  00402FB1: 83 C4 04           add         esp,4
  00402FB4: 8D 54 24 00        lea         edx,[esp]
  00402FB8: 89 44 24 10        mov         dword ptr [esp+10h],eax
  00402FBC: 52                 push        edx
  00402FBD: E8 AE FE FF FF     call        00402E70
  00402FC2: 83 C4 04           add         esp,4
  00402FC5: 89 44 24 14        mov         dword ptr [esp+14h],eax
  00402FC9: 8D 44 24 00        lea         eax,[esp]
  00402FCD: 50                 push        eax
  00402FCE: E8 9D FE FF FF     call        00402E70
  00402FD3: 83 C4 04           add         esp,4
  00402FD6: 8D 4C 24 00        lea         ecx,[esp]
  00402FDA: 89 44 24 18        mov         dword ptr [esp+18h],eax
  00402FDE: 51                 push        ecx
  00402FDF: E8 8C FE FF FF     call        00402E70
  00402FE4: 83 C4 04           add         esp,4
  00402FE7: 8D 54 24 00        lea         edx,[esp]
  00402FEB: 89 44 24 1C        mov         dword ptr [esp+1Ch],eax
  00402FEF: 52                 push        edx
  00402FF0: E8 7B FE FF FF     call        00402E70
  00402FF5: 83 C4 04           add         esp,4
  00402FF8: 89 44 24 20        mov         dword ptr [esp+20h],eax
  00402FFC: 8D 44 24 00        lea         eax,[esp]
  00403000: 50                 push        eax
  00403001: E8 6A FE FF FF     call        00402E70
  00403006: 83 C4 04           add         esp,4
  00403009: 8D 4C 24 00        lea         ecx,[esp]
  0040300D: 89 44 24 24        mov         dword ptr [esp+24h],eax
  00403011: 51                 push        ecx
  00403012: E8 59 FE FF FF     call        00402E70
  00403017: 83 C4 04           add         esp,4
  0040301A: 8D 54 24 00        lea         edx,[esp]
  0040301E: 89 44 24 28        mov         dword ptr [esp+28h],eax
  00403022: 52                 push        edx
  00403023: E8 48 FE FF FF     call        00402E70
  00403028: 83 C4 04           add         esp,4
  0040302B: 89 44 24 2C        mov         dword ptr [esp+2Ch],eax
  0040302F: 8D 44 24 00        lea         eax,[esp]
  00403033: 50                 push        eax
  00403034: E8 37 FE FF FF     call        00402E70
  00403039: 83 C4 04           add         esp,4
  0040303C: 8D 4C 24 00        lea         ecx,[esp]
  00403040: A3 BC D0 40 00     mov         dword ptr ds:[0040D0BCh],eax
  00403045: 51                 push        ecx
  00403046: E8 25 FE FF FF     call        00402E70
  0040304B: 83 C4 04           add         esp,4
  0040304E: 8D 54 24 00        lea         edx,[esp]
  00403052: A3 C0 D0 40 00     mov         dword ptr ds:[0040D0C0h],eax
  00403057: 52                 push        edx
  00403058: E8 13 FE FF FF     call        00402E70
  0040305D: 83 C4 04           add         esp,4
  00403060: A3 88 0C 41 00     mov         dword ptr ds:[00410C88h],eax
  00403065: 8D 44 24 00        lea         eax,[esp]
  00403069: 50                 push        eax
  0040306A: E8 01 FE FF FF     call        00402E70
  0040306F: 83 C4 04           add         esp,4
  00403072: 8D 4C 24 00        lea         ecx,[esp]
  00403076: A3 C4 D0 40 00     mov         dword ptr ds:[0040D0C4h],eax
  0040307B: 51                 push        ecx
  0040307C: E8 EF FD FF FF     call        00402E70
  00403081: 83 C4 04           add         esp,4
  00403084: A3 70 0C 41 00     mov         dword ptr ds:[00410C70h],eax
  00403089: 8B 84 24 B4 00 00  mov         eax,dword ptr [esp+000000B4h]
            00
  00403090: 8D 54 24 04        lea         edx,[esp+4]
  00403094: 52                 push        edx
  00403095: 50                 push        eax
  00403096: FF 15 F0 34 41 00  call        dword ptr ds:[004134F0h]
  0040309C: E8 6F 01 00 00     call        00403210
  004030A1: E8 0A 01 00 00     call        004031B0
  004030A6: E8 35 01 00 00     call        004031E0
  004030AB: 81 C4 B0 00 00 00  add         esp,0B0h
  004030B1: C3                 ret
  004030B2: 90                 nop
  004030B3: 90                 nop
  004030B4: 90                 nop
  004030B5: 90                 nop
  004030B6: 90                 nop
  004030B7: 90                 nop
  004030B8: 90                 nop
  004030B9: 90                 nop
  004030BA: 90                 nop
  004030BB: 90                 nop
  004030BC: 90                 nop
  004030BD: 90                 nop
  004030BE: 90                 nop
  004030BF: 90                 nop
  004030C0: 81 EC AC 00 00 00  sub         esp,0ACh
  004030C6: 8B 8C 24 B0 00 00  mov         ecx,dword ptr [esp+000000B0h]
            00
  004030CD: 8D 44 24 00        lea         eax,[esp]
  004030D1: 50                 push        eax
  004030D2: 51                 push        ecx
  004030D3: C7 44 24 08 2C 00  mov         dword ptr [esp+8],2Ch
            00 00
  004030DB: FF 15 EC 34 41 00  call        dword ptr ds:[004134ECh]
  004030E1: 85 C0              test        eax,eax
  004030E3: 74 7A              je          0040315F
  004030E5: 8B 15 70 0C 41 00  mov         edx,dword ptr ds:[00410C70h]
  004030EB: A1 C4 D0 40 00     mov         eax,dword ptr ds:[0040D0C4h]
  004030F0: 8B 0D 88 0C 41 00  mov         ecx,dword ptr ds:[00410C88h]
  004030F6: 52                 push        edx
  004030F7: 8B 15 C0 D0 40 00  mov         edx,dword ptr ds:[0040D0C0h]
  004030FD: 50                 push        eax
  004030FE: A1 BC D0 40 00     mov         eax,dword ptr ds:[0040D0BCh]
  00403103: 51                 push        ecx
  00403104: 8B 4C 24 34        mov         ecx,dword ptr [esp+34h]
  00403108: 52                 push        edx
  00403109: 8B 54 24 34        mov         edx,dword ptr [esp+34h]
  0040310D: 50                 push        eax
  0040310E: 8B 44 24 34        mov         eax,dword ptr [esp+34h]
  00403112: 51                 push        ecx
  00403113: 8B 4C 24 34        mov         ecx,dword ptr [esp+34h]
  00403117: 52                 push        edx
  00403118: 8B 54 24 34        mov         edx,dword ptr [esp+34h]
  0040311C: 50                 push        eax
  0040311D: 8B 44 24 34        mov         eax,dword ptr [esp+34h]
  00403121: 51                 push        ecx
  00403122: 8B 4C 24 34        mov         ecx,dword ptr [esp+34h]
  00403126: 52                 push        edx
  00403127: 8B 54 24 34        mov         edx,dword ptr [esp+34h]
  0040312B: 50                 push        eax
  0040312C: 8B 44 24 34        mov         eax,dword ptr [esp+34h]
  00403130: 51                 push        ecx
  00403131: 8B 4C 24 34        mov         ecx,dword ptr [esp+34h]
  00403135: 52                 push        edx
  00403136: 50                 push        eax
  00403137: 51                 push        ecx
  00403138: 6A 0F              push        0Fh
  0040313A: 8D 54 24 6C        lea         edx,[esp+6Ch]
  0040313E: 68 14 D4 40 00     push        40D414h
  00403143: 52                 push        edx
  00403144: FF 15 F4 34 41 00  call        dword ptr ds:[004134F4h]
  0040314A: 83 C4 48           add         esp,48h
  0040314D: 8D 44 24 2C        lea         eax,[esp+2Ch]
  00403151: 50                 push        eax
  00403152: 68 0C D4 40 00     push        40D40Ch
  00403157: E8 14 04 00 00     call        00403570
  0040315C: 83 C4 08           add         esp,8
  0040315F: 81 C4 AC 00 00 00  add         esp,0ACh
  00403165: C3                 ret
  00403166: 90                 nop
  00403167: 90                 nop
  00403168: 90                 nop
  00403169: 90                 nop
  0040316A: 90                 nop
  0040316B: 90                 nop
  0040316C: 90                 nop
  0040316D: 90                 nop
  0040316E: 90                 nop
  0040316F: 90                 nop
  00403170: A1 7C 0C 41 00     mov         eax,dword ptr ds:[00410C7Ch]
  00403175: 6A 00              push        0
  00403177: 6A 00              push        0
  00403179: 68 CB 04 00 00     push        4CBh
  0040317E: 50                 push        eax
  0040317F: FF 15 90 34 41 00  call        dword ptr ds:[00413490h]
  00403185: 8B 0D 78 0C 41 00  mov         ecx,dword ptr ds:[00410C78h]
  0040318B: F7 D8              neg         eax
  0040318D: 1B C0              sbb         eax,eax
  0040318F: 83 E0 08           and         eax,8
  00403192: 50                 push        eax
  00403193: 68 47 9C 00 00     push        9C47h
  00403198: 51                 push        ecx
  00403199: FF 15 30 35 41 00  call        dword ptr ds:[00413530h]
  0040319F: 50                 push        eax
  004031A0: FF 15 E4 34 41 00  call        dword ptr ds:[004134E4h]
  004031A6: C3                 ret
  004031A7: 90                 nop
  004031A8: 90                 nop
  004031A9: 90                 nop
  004031AA: 90                 nop
  004031AB: 90                 nop
  004031AC: 90                 nop
  004031AD: 90                 nop
  004031AE: 90                 nop
  004031AF: 90                 nop
  004031B0: A1 BC D0 40 00     mov         eax,dword ptr ds:[0040D0BCh]
  004031B5: 8B 0D 78 0C 41 00  mov         ecx,dword ptr ds:[00410C78h]
  004031BB: F7 D8              neg         eax
  004031BD: 1B C0              sbb         eax,eax
  004031BF: 83 E0 08           and         eax,8
  004031C2: 50                 push        eax
  004031C3: 68 46 9C 00 00     push        9C46h
  004031C8: 51                 push        ecx
  004031C9: FF 15 30 35 41 00  call        dword ptr ds:[00413530h]
  004031CF: 50                 push        eax
  004031D0: FF 15 E4 34 41 00  call        dword ptr ds:[004134E4h]
  004031D6: C3                 ret
  004031D7: 90                 nop
  004031D8: 90                 nop
  004031D9: 90                 nop
  004031DA: 90                 nop
  004031DB: 90                 nop
  004031DC: 90                 nop
  004031DD: 90                 nop
  004031DE: 90                 nop
  004031DF: 90                 nop
  004031E0: A1 C0 D0 40 00     mov         eax,dword ptr ds:[0040D0C0h]
  004031E5: 8B 0D 78 0C 41 00  mov         ecx,dword ptr ds:[00410C78h]
  004031EB: F7 D8              neg         eax
  004031ED: 1B C0              sbb         eax,eax
  004031EF: 83 E0 08           and         eax,8
  004031F2: 50                 push        eax
  004031F3: 68 4E 9C 00 00     push        9C4Eh
  004031F8: 51                 push        ecx
  004031F9: FF 15 30 35 41 00  call        dword ptr ds:[00413530h]
  004031FF: 50                 push        eax
  00403200: FF 15 E4 34 41 00  call        dword ptr ds:[004134E4h]
  00403206: C3                 ret
  00403207: 90                 nop
  00403208: 90                 nop
  00403209: 90                 nop
  0040320A: 90                 nop
  0040320B: 90                 nop
  0040320C: 90                 nop
  0040320D: 90                 nop
  0040320E: 90                 nop
  0040320F: 90                 nop
  00403210: 8B 0D 88 0C 41 00  mov         ecx,dword ptr ds:[00410C88h]
  00403216: 33 C0              xor         eax,eax
  00403218: 85 C9              test        ecx,ecx
  0040321A: 8B 0D 78 0C 41 00  mov         ecx,dword ptr ds:[00410C78h]
  00403220: 6A 13              push        13h
  00403222: 6A 00              push        0
  00403224: 6A 00              push        0
  00403226: 0F 95 C0           setne       al
  00403229: 6A 00              push        0
  0040322B: 83 C0 FE           add         eax,0FFFFFFFEh
  0040322E: 6A 00              push        0
  00403230: 50                 push        eax
  00403231: 51                 push        ecx
  00403232: FF 15 E0 34 41 00  call        dword ptr ds:[004134E0h]
  00403238: C3                 ret
  00403239: 90                 nop
  0040323A: 90                 nop
  0040323B: 90                 nop
  0040323C: 90                 nop
  0040323D: 90                 nop
  0040323E: 90                 nop
  0040323F: 90                 nop
  00403240: 8B 44 24 04        mov         eax,dword ptr [esp+4]
  00403244: 8B 0D 78 0C 41 00  mov         ecx,dword ptr ds:[00410C78h]
  0040324A: 6A 00              push        0
  0040324C: 68 44 D4 40 00     push        40D444h
  00403251: 50                 push        eax
  00403252: 51                 push        ecx
  00403253: FF 15 84 34 41 00  call        dword ptr ds:[00413484h]
  00403259: C3                 ret
  0040325A: 90                 nop
  0040325B: 90                 nop
  0040325C: 90                 nop
  0040325D: 90                 nop
  0040325E: 90                 nop
  0040325F: 90                 nop
  00403260: 83 EC 78           sub         esp,78h
  00403263: 53                 push        ebx
  00403264: 56                 push        esi
  00403265: 57                 push        edi
  00403266: B9 0F 00 00 00     mov         ecx,0Fh
  0040326B: BE F0 0B 41 00     mov         esi,410BF0h
  00403270: 8D 7C 24 48        lea         edi,[esp+48h]
  00403274: F3 A5              rep movs    dword ptr es:[edi],dword ptr [esi]
  00403276: B9 0F 00 00 00     mov         ecx,0Fh
  0040327B: 33 C0              xor         eax,eax
  0040327D: 8D 7C 24 0C        lea         edi,[esp+0Ch]
  00403281: 8D 54 24 0C        lea         edx,[esp+0Ch]
  00403285: F3 AB              rep stos    dword ptr es:[edi]
  00403287: A1 78 0C 41 00     mov         eax,dword ptr ds:[00410C78h]
  0040328C: 8D 4C 24 48        lea         ecx,[esp+48h]
  00403290: 52                 push        edx
  00403291: C7 44 24 10 3C 00  mov         dword ptr [esp+10h],3Ch
            00 00
  00403299: 89 44 24 14        mov         dword ptr [esp+14h],eax
  0040329D: 89 4C 24 1C        mov         dword ptr [esp+1Ch],ecx
  004032A1: C7 44 24 24 41 00  mov         dword ptr [esp+24h],41h
            00 00
  004032A9: E8 08 0B 00 00     call        00403DB6
  004032AE: 85 C0              test        eax,eax
  004032B0: 74 71              je          00403323
  004032B2: 8D 44 24 48        lea         eax,[esp+48h]
  004032B6: 50                 push        eax
  004032B7: FF 15 24 33 41 00  call        dword ptr ds:[00413324h]
  004032BD: 8B D8              mov         ebx,eax
  004032BF: 85 DB              test        ebx,ebx
  004032C1: 74 60              je          00403323
  004032C3: 8B 0D 7C 0C 41 00  mov         ecx,dword ptr ds:[00410C7Ch]
  004032C9: 6A 01              push        1
  004032CB: 53                 push        ebx
  004032CC: 6A 30              push        30h
  004032CE: 51                 push        ecx
  004032CF: FF 15 90 34 41 00  call        dword ptr ds:[00413490h]
  004032D5: 8B 15 80 0C 41 00  mov         edx,dword ptr ds:[00410C80h]
  004032DB: 52                 push        edx
  004032DC: FF 15 2C 33 41 00  call        dword ptr ds:[0041332Ch]
  004032E2: B9 0F 00 00 00     mov         ecx,0Fh
  004032E7: 8D 74 24 48        lea         esi,[esp+48h]
  004032EB: BF F0 0B 41 00     mov         edi,410BF0h
  004032F0: 8D 44 24 48        lea         eax,[esp+48h]
  004032F4: F3 A5              rep movs    dword ptr es:[edi],dword ptr [esi]
  004032F6: 50                 push        eax
  004032F7: 89 1D 80 0C 41 00  mov         dword ptr ds:[00410C80h],ebx
  004032FD: E8 8E 01 00 00     call        00403490
  00403302: 8B 0D 7C 0C 41 00  mov         ecx,dword ptr ds:[00410C7Ch]
  00403308: 83 C4 04           add         esp,4
  0040330B: 6A 00              push        0
  0040330D: 6A 00              push        0
  0040330F: 51                 push        ecx
  00403310: FF 15 D8 34 41 00  call        dword ptr ds:[004134D8h]
  00403316: 8B 15 7C 0C 41 00  mov         edx,dword ptr ds:[00410C7Ch]
  0040331C: 52                 push        edx
  0040331D: FF 15 DC 34 41 00  call        dword ptr ds:[004134DCh]
  00403323: 5F                 pop         edi
  00403324: 5E                 pop         esi
  00403325: 5B                 pop         ebx
  00403326: 83 C4 78           add         esp,78h
  00403329: C3                 ret
  0040332A: 90                 nop
  0040332B: 90                 nop
  0040332C: 90                 nop
  0040332D: 90                 nop
  0040332E: 90                 nop
  0040332F: 90                 nop
  00403330: 81 EC 84 00 00 00  sub         esp,84h
  00403336: 8D 4C 24 04        lea         ecx,[esp+4]
  0040333A: 68 80 00 00 00     push        80h
  0040333F: 8D 44 24 08        lea         eax,[esp+8]
  00403343: 51                 push        ecx
  00403344: 68 54 D4 40 00     push        40D454h
  00403349: 89 44 24 0C        mov         dword ptr [esp+0Ch],eax
  0040334D: E8 BE 01 00 00     call        00403510
  00403352: 83 C4 0C           add         esp,0Ch
  00403355: 8D 54 24 00        lea         edx,[esp]
  00403359: 52                 push        edx
  0040335A: E8 11 FB FF FF     call        00402E70
  0040335F: 83 C4 04           add         esp,4
  00403362: 83 F8 2A           cmp         eax,2Ah
  00403365: 74 1B              je          00403382
  00403367: 8B 84 24 88 00 00  mov         eax,dword ptr [esp+00000088h]
            00
  0040336E: 6A 00              push        0
  00403370: 50                 push        eax
  00403371: 6A 3C              push        3Ch
  00403373: 6A 1F              push        1Fh
  00403375: FF 15 D4 34 41 00  call        dword ptr ds:[004134D4h]
  0040337B: 81 C4 84 00 00 00  add         esp,84h
  00403381: C3                 ret
  00403382: 57                 push        edi
  00403383: 8D 4C 24 04        lea         ecx,[esp+4]
  00403387: 56                 push        esi
  00403388: 51                 push        ecx
  00403389: E8 E2 FA FF FF     call        00402E70
  0040338E: 8B B4 24 94 00 00  mov         esi,dword ptr [esp+00000094h]
            00
  00403395: 83 C4 04           add         esp,4
  00403398: 8D 54 24 08        lea         edx,[esp+8]
  0040339C: 52                 push        edx
  0040339D: 89 06              mov         dword ptr [esi],eax
  0040339F: E8 CC FA FF FF     call        00402E70
  004033A4: 83 C4 04           add         esp,4
  004033A7: 89 46 04           mov         dword ptr [esi+4],eax
  004033AA: 8D 44 24 08        lea         eax,[esp+8]
  004033AE: 50                 push        eax
  004033AF: E8 BC FA FF FF     call        00402E70
  004033B4: 83 C4 04           add         esp,4
  004033B7: 8D 4C 24 08        lea         ecx,[esp+8]
  004033BB: 89 46 08           mov         dword ptr [esi+8],eax
  004033BE: 51                 push        ecx
  004033BF: E8 AC FA FF FF     call        00402E70
  004033C4: 83 C4 04           add         esp,4
  004033C7: 8D 54 24 08        lea         edx,[esp+8]
  004033CB: 89 46 0C           mov         dword ptr [esi+0Ch],eax
  004033CE: 52                 push        edx
  004033CF: E8 9C FA FF FF     call        00402E70
  004033D4: 83 C4 04           add         esp,4
  004033D7: 89 46 10           mov         dword ptr [esi+10h],eax
  004033DA: 8D 44 24 08        lea         eax,[esp+8]
  004033DE: 50                 push        eax
  004033DF: E8 8C FA FF FF     call        00402E70
  004033E4: 83 C4 04           add         esp,4
  004033E7: 8D 4C 24 08        lea         ecx,[esp+8]
  004033EB: 88 46 14           mov         byte ptr [esi+14h],al
  004033EE: 51                 push        ecx
  004033EF: E8 7C FA FF FF     call        00402E70
  004033F4: 83 C4 04           add         esp,4
  004033F7: 8D 54 24 08        lea         edx,[esp+8]
  004033FB: 88 46 15           mov         byte ptr [esi+15h],al
  004033FE: 52                 push        edx
  004033FF: E8 6C FA FF FF     call        00402E70
  00403404: 83 C4 04           add         esp,4
  00403407: 88 46 16           mov         byte ptr [esi+16h],al
  0040340A: 8D 44 24 08        lea         eax,[esp+8]
  0040340E: 50                 push        eax
  0040340F: E8 5C FA FF FF     call        00402E70
  00403414: 83 C4 04           add         esp,4
  00403417: 8D 4C 24 08        lea         ecx,[esp+8]
  0040341B: 88 46 17           mov         byte ptr [esi+17h],al
  0040341E: 51                 push        ecx
  0040341F: E8 4C FA FF FF     call        00402E70
  00403424: 83 C4 04           add         esp,4
  00403427: 8D 54 24 08        lea         edx,[esp+8]
  0040342B: 88 46 18           mov         byte ptr [esi+18h],al
  0040342E: 52                 push        edx
  0040342F: E8 3C FA FF FF     call        00402E70
  00403434: 83 C4 04           add         esp,4
  00403437: 88 46 19           mov         byte ptr [esi+19h],al
  0040343A: 8D 44 24 08        lea         eax,[esp+8]
  0040343E: 50                 push        eax
  0040343F: E8 2C FA FF FF     call        00402E70
  00403444: 83 C4 04           add         esp,4
  00403447: 8D 4C 24 08        lea         ecx,[esp+8]
  0040344B: 88 46 1A           mov         byte ptr [esi+1Ah],al
  0040344E: 51                 push        ecx
  0040344F: E8 1C FA FF FF     call        00402E70
  00403454: 8B 7C 24 0C        mov         edi,dword ptr [esp+0Ch]
  00403458: 88 46 1B           mov         byte ptr [esi+1Bh],al
  0040345B: 83 C9 FF           or          ecx,0FFFFFFFFh
  0040345E: 33 C0              xor         eax,eax
  00403460: 83 C4 04           add         esp,4
  00403463: 8D 56 1C           lea         edx,[esi+1Ch]
  00403466: F2 AE              repne scas  byte ptr es:[edi]
  00403468: F7 D1              not         ecx
  0040346A: 2B F9              sub         edi,ecx
  0040346C: 8B C1              mov         eax,ecx
  0040346E: 8B F7              mov         esi,edi
  00403470: 8B FA              mov         edi,edx
  00403472: C1 E9 02           shr         ecx,2
  00403475: F3 A5              rep movs    dword ptr es:[edi],dword ptr [esi]
  00403477: 8B C8              mov         ecx,eax
  00403479: 83 E1 03           and         ecx,3
  0040347C: F3 A4              rep movs    byte ptr es:[edi],byte ptr [esi]
  0040347E: 5E                 pop         esi
  0040347F: 5F                 pop         edi
  00403480: 81 C4 84 00 00 00  add         esp,84h
  00403486: C3                 ret
  00403487: 90                 nop
  00403488: 90                 nop
  00403489: 90                 nop
  0040348A: 90                 nop
  0040348B: 90                 nop
  0040348C: 90                 nop
  0040348D: 90                 nop
  0040348E: 90                 nop
  0040348F: 90                 nop
  00403490: 8B 44 24 04        mov         eax,dword ptr [esp+4]
  00403494: 81 EC 80 00 00 00  sub         esp,80h
  0040349A: 33 D2              xor         edx,edx
  0040349C: 8A 50 1B           mov         dl,byte ptr [eax+1Bh]
  0040349F: 8D 48 1C           lea         ecx,[eax+1Ch]
  004034A2: 51                 push        ecx
  004034A3: 33 C9              xor         ecx,ecx
  004034A5: 8A 48 1A           mov         cl,byte ptr [eax+1Ah]
  004034A8: 52                 push        edx
  004034A9: 33 D2              xor         edx,edx
  004034AB: 51                 push        ecx
  004034AC: 8A 50 19           mov         dl,byte ptr [eax+19h]
  004034AF: 33 C9              xor         ecx,ecx
  004034B1: 8A 48 18           mov         cl,byte ptr [eax+18h]
  004034B4: 52                 push        edx
  004034B5: 33 D2              xor         edx,edx
  004034B7: 51                 push        ecx
  004034B8: 8A 50 17           mov         dl,byte ptr [eax+17h]
  004034BB: 33 C9              xor         ecx,ecx
  004034BD: 8A 48 16           mov         cl,byte ptr [eax+16h]
  004034C0: 52                 push        edx
  004034C1: 33 D2              xor         edx,edx
  004034C3: 51                 push        ecx
  004034C4: 8A 50 15           mov         dl,byte ptr [eax+15h]
  004034C7: 33 C9              xor         ecx,ecx
  004034C9: 8A 48 14           mov         cl,byte ptr [eax+14h]
  004034CC: 52                 push        edx
  004034CD: 8B 50 10           mov         edx,dword ptr [eax+10h]
  004034D0: 51                 push        ecx
  004034D1: 8B 48 0C           mov         ecx,dword ptr [eax+0Ch]
  004034D4: 52                 push        edx
  004034D5: 8B 50 08           mov         edx,dword ptr [eax+8]
  004034D8: 51                 push        ecx
  004034D9: 8B 48 04           mov         ecx,dword ptr [eax+4]
  004034DC: 52                 push        edx
  004034DD: 8B 10              mov         edx,dword ptr [eax]
  004034DF: 51                 push        ecx
  004034E0: 52                 push        edx
  004034E1: 6A 2A              push        2Ah
  004034E3: 8D 44 24 3C        lea         eax,[esp+3Ch]
  004034E7: 68 5C D4 40 00     push        40D45Ch
  004034EC: 50                 push        eax
  004034ED: FF 15 F4 34 41 00  call        dword ptr ds:[004134F4h]
  004034F3: 83 C4 44           add         esp,44h
  004034F6: 8D 4C 24 00        lea         ecx,[esp]
  004034FA: 51                 push        ecx
  004034FB: 68 54 D4 40 00     push        40D454h
  00403500: E8 6B 00 00 00     call        00403570
  00403505: 83 C4 08           add         esp,8
  00403508: 81 C4 80 00 00 00  add         esp,80h
  0040350E: C3                 ret
  0040350F: 90                 nop
  00403510: 51                 push        ecx
  00403511: 56                 push        esi
  00403512: 8B 74 24 10        mov         esi,dword ptr [esp+10h]
  00403516: 8D 44 24 04        lea         eax,[esp+4]
  0040351A: C7 44 24 04 00 00  mov         dword ptr [esp+4],0
            00 00
  00403522: C6 06 00           mov         byte ptr [esi],0
  00403525: 8B 0D B4 D0 40 00  mov         ecx,dword ptr ds:[0040D0B4h]
  0040352B: 50                 push        eax
  0040352C: 68 19 00 02 00     push        20019h
  00403531: 6A 00              push        0
  00403533: 51                 push        ecx
  00403534: 68 01 00 00 80     push        80000001h
  00403539: FF 15 0C 33 41 00  call        dword ptr ds:[0041330Ch]
  0040353F: 8B 44 24 0C        mov         eax,dword ptr [esp+0Ch]
  00403543: 8B 4C 24 04        mov         ecx,dword ptr [esp+4]
  00403547: 8D 54 24 14        lea         edx,[esp+14h]
  0040354B: 52                 push        edx
  0040354C: 56                 push        esi
  0040354D: 6A 00              push        0
  0040354F: 6A 00              push        0
  00403551: 50                 push        eax
  00403552: 51                 push        ecx
  00403553: FF 15 FC 32 41 00  call        dword ptr ds:[004132FCh]
  00403559: 8B 54 24 04        mov         edx,dword ptr [esp+4]
  0040355D: 52                 push        edx
  0040355E: FF 15 10 33 41 00  call        dword ptr ds:[00413310h]
  00403564: 5E                 pop         esi
  00403565: 59                 pop         ecx
  00403566: C3                 ret
  00403567: 90                 nop
  00403568: 90                 nop
  00403569: 90                 nop
  0040356A: 90                 nop
  0040356B: 90                 nop
  0040356C: 90                 nop
  0040356D: 90                 nop
  0040356E: 90                 nop
  0040356F: 90                 nop
  00403570: 83 EC 08           sub         esp,8
  00403573: 8B 15 B4 D0 40 00  mov         edx,dword ptr ds:[0040D0B4h]
  00403579: 8D 44 24 04        lea         eax,[esp+4]
  0040357D: 8D 4C 24 00        lea         ecx,[esp]
  00403581: 50                 push        eax
  00403582: 51                 push        ecx
  00403583: 6A 00              push        0
  00403585: 68 3F 00 0F 00     push        0F003Fh
  0040358A: 6A 00              push        0
  0040358C: 6A 00              push        0
  0040358E: 6A 00              push        0
  00403590: 52                 push        edx
  00403591: 68 01 00 00 80     push        80000001h
  00403596: FF 15 04 33 41 00  call        dword ptr ds:[00413304h]
  0040359C: 85 C0              test        eax,eax
  0040359E: 75 2F              jne         004035CF
  004035A0: 8B 54 24 10        mov         edx,dword ptr [esp+10h]
  004035A4: 57                 push        edi
  004035A5: 8B FA              mov         edi,edx
  004035A7: 83 C9 FF           or          ecx,0FFFFFFFFh
  004035AA: F2 AE              repne scas  byte ptr es:[edi]
  004035AC: F7 D1              not         ecx
  004035AE: 51                 push        ecx
  004035AF: 8B 4C 24 08        mov         ecx,dword ptr [esp+8]
  004035B3: 52                 push        edx
  004035B4: 6A 01              push        1
  004035B6: 50                 push        eax
  004035B7: 8B 44 24 20        mov         eax,dword ptr [esp+20h]
  004035BB: 50                 push        eax
  004035BC: 51                 push        ecx
  004035BD: FF 15 00 33 41 00  call        dword ptr ds:[00413300h]
  004035C3: 8B 54 24 04        mov         edx,dword ptr [esp+4]
  004035C7: 52                 push        edx
  004035C8: FF 15 10 33 41 00  call        dword ptr ds:[00413310h]
  004035CE: 5F                 pop         edi
  004035CF: 83 C4 08           add         esp,8
  004035D2: C3                 ret
  004035D3: 90                 nop
  004035D4: 90                 nop
  004035D5: 90                 nop
  004035D6: 90                 nop
  004035D7: 90                 nop
  004035D8: 90                 nop
  004035D9: 90                 nop
  004035DA: 90                 nop
  004035DB: 90                 nop
  004035DC: 90                 nop
  004035DD: 90                 nop
  004035DE: 90                 nop
  004035DF: 90                 nop
  004035E0: A1 A0 0C 41 00     mov         eax,dword ptr ds:[00410CA0h]
  004035E5: 56                 push        esi
  004035E6: 85 C0              test        eax,eax
  004035E8: 57                 push        edi
  004035E9: 0F 85 D5 00 00 00  jne         004036C4
  004035EF: B9 0A 00 00 00     mov         ecx,0Ah
  004035F4: 33 C0              xor         eax,eax
  004035F6: BF 38 0A 41 00     mov         edi,410A38h
  004035FB: 68 38 0A 41 00     push        410A38h
  00403600: F3 AB              rep stos    dword ptr es:[edi]
  00403602: 8B 35 44 0A 41 00  mov         esi,dword ptr ds:[00410A44h]
  00403608: A1 78 0C 41 00     mov         eax,dword ptr ds:[00410C78h]
  0040360D: 81 CE 01 00 01 00  or          esi,10001h
  00403613: C7 05 38 0A 41 00  mov         dword ptr ds:[00410A38h],28h
            28 00 00 00
  0040361D: A3 3C 0A 41 00     mov         dword ptr ds:[00410A3Ch],eax
  00403622: 89 35 44 0A 41 00  mov         dword ptr ds:[00410A44h],esi
  00403628: C6 05 68 0B 41 00  mov         byte ptr ds:[00410B68h],0
            00
  0040362F: C7 05 48 0A 41 00  mov         dword ptr ds:[00410A48h],410B68h
            68 0B 41 00
  00403639: 66 C7 05 50 0A 41  mov         word ptr ds:[00410A50h],80h
            00 80 00
  00403642: E8 75 07 00 00     call        00403DBC
  00403647: 85 C0              test        eax,eax
  00403649: A3 A0 0C 41 00     mov         dword ptr ds:[00410CA0h],eax
  0040364E: 75 10              jne         00403660
  00403650: 68 90 D4 40 00     push        40D490h
  00403655: E8 E6 FB FF FF     call        00403240
  0040365A: 83 C4 04           add         esp,4
  0040365D: 5F                 pop         edi
  0040365E: 5E                 pop         esi
  0040365F: C3                 ret
  00403660: 8B 0D 7C 0C 41 00  mov         ecx,dword ptr ds:[00410C7Ch]
  00403666: 8B 35 90 34 41 00  mov         esi,dword ptr ds:[00413490h]
  0040366C: 6A 00              push        0
  0040366E: 6A 01              push        1
  00403670: 68 CC 04 00 00     push        4CCh
  00403675: 51                 push        ecx
  00403676: FF D6              call        esi
  00403678: 33 D2              xor         edx,edx
  0040367A: A1 7C 0C 41 00     mov         eax,dword ptr ds:[00410C7Ch]
  0040367F: 89 15 58 0C 41 00  mov         dword ptr ds:[00410C58h],edx
  00403685: 68 58 0C 41 00     push        410C58h
  0040368A: 89 15 5C 0C 41 00  mov         dword ptr ds:[00410C5Ch],edx
  00403690: 89 15 60 0C 41 00  mov         dword ptr ds:[00410C60h],edx
  00403696: 89 15 64 0C 41 00  mov         dword ptr ds:[00410C64h],edx
  0040369C: 52                 push        edx
  0040369D: 68 34 04 00 00     push        434h
  004036A2: 50                 push        eax
  004036A3: 89 15 68 0C 41 00  mov         dword ptr ds:[00410C68h],edx
  004036A9: FF D6              call        esi
  004036AB: 8B 0D 58 0C 41 00  mov         ecx,dword ptr ds:[00410C58h]
  004036B1: A1 5C 0C 41 00     mov         eax,dword ptr ds:[00410C5Ch]
  004036B6: 3B C8              cmp         ecx,eax
  004036B8: 75 0A              jne         004036C4
  004036BA: C7 05 5C 0C 41 00  mov         dword ptr ds:[00410C5Ch],0FFFFFFFFh
            FF FF FF FF
  004036C4: 5F                 pop         edi
  004036C5: 5E                 pop         esi
  004036C6: C3                 ret
  004036C7: 90                 nop
  004036C8: 90                 nop
  004036C9: 90                 nop
  004036CA: 90                 nop
  004036CB: 90                 nop
  004036CC: 90                 nop
  004036CD: 90                 nop
  004036CE: 90                 nop
  004036CF: 90                 nop
  004036D0: 57                 push        edi
  004036D1: 8B 3D 48 0A 41 00  mov         edi,dword ptr ds:[00410A48h]
  004036D7: 85 FF              test        edi,edi
  004036D9: 74 2F              je          0040370A
  004036DB: 83 C9 FF           or          ecx,0FFFFFFFFh
  004036DE: 33 C0              xor         eax,eax
  004036E0: F2 AE              repne scas  byte ptr es:[edi]
  004036E2: F7 D1              not         ecx
  004036E4: 49                 dec         ecx
  004036E5: 74 23              je          0040370A
  004036E7: A1 44 0A 41 00     mov         eax,dword ptr ds:[00410A44h]
  004036EC: 56                 push        esi
  004036ED: 8B F0              mov         esi,eax
  004036EF: 0C 08              or          al,8
  004036F1: 68 38 0A 41 00     push        410A38h
  004036F6: A3 44 0A 41 00     mov         dword ptr ds:[00410A44h],eax
  004036FB: E8 10 00 00 00     call        00403710
  00403700: 83 C4 04           add         esp,4
  00403703: 89 35 44 0A 41 00  mov         dword ptr ds:[00410A44h],esi
  00403709: 5E                 pop         esi
  0040370A: 5F                 pop         edi
  0040370B: C3                 ret
  0040370C: 90                 nop
  0040370D: 90                 nop
  0040370E: 90                 nop
  0040370F: 90                 nop
  00403710: 8B 44 24 04        mov         eax,dword ptr [esp+4]
  00403714: 81 EC C0 00 00 00  sub         esp,0C0h
  0040371A: 8B 48 10           mov         ecx,dword ptr [eax+10h]
  0040371D: 89 0D 60 0C 41 00  mov         dword ptr ds:[00410C60h],ecx
  00403723: 8B 40 0C           mov         eax,dword ptr [eax+0Ch]
  00403726: 8B D0              mov         edx,eax
  00403728: 83 E2 01           and         edx,1
  0040372B: FE CA              dec         dl
  0040372D: F6 DA              neg         dl
  0040372F: 1B D2              sbb         edx,edx
  00403731: 83 E0 04           and         eax,4
  00403734: 42                 inc         edx
  00403735: 33 C9              xor         ecx,ecx
  00403737: 3C 04              cmp         al,4
  00403739: 52                 push        edx
  0040373A: 0F 94 C1           sete        cl
  0040373D: 51                 push        ecx
  0040373E: E8 4D 00 00 00     call        00403790
  00403743: 83 C4 08           add         esp,8
  00403746: 85 C0              test        eax,eax
  00403748: 75 3E              jne         00403788
  0040374A: 8B 15 60 0C 41 00  mov         edx,dword ptr ds:[00410C60h]
  00403750: 56                 push        esi
  00403751: 8B 35 A0 0C 41 00  mov         esi,dword ptr ds:[00410CA0h]
  00403757: 52                 push        edx
  00403758: 8D 44 24 08        lea         eax,[esp+8]
  0040375C: 68 B0 D4 40 00     push        40D4B0h
  00403761: 50                 push        eax
  00403762: E8 69 06 00 00     call        00403DD0
  00403767: 83 C4 0C           add         esp,0Ch
  0040376A: 85 F6              test        esi,esi
  0040376C: 75 06              jne         00403774
  0040376E: 8B 35 78 0C 41 00  mov         esi,dword ptr ds:[00410C78h]
  00403774: 6A 20              push        20h
  00403776: 8D 4C 24 08        lea         ecx,[esp+8]
  0040377A: 68 10 D1 40 00     push        40D110h
  0040377F: 51                 push        ecx
  00403780: 56                 push        esi
  00403781: FF 15 84 34 41 00  call        dword ptr ds:[00413484h]
  00403787: 5E                 pop         esi
  00403788: 81 C4 C0 00 00 00  add         esp,0C0h
  0040378E: C3                 ret
  0040378F: 90                 nop
  00403790: 83 EC 08           sub         esp,8
  00403793: 8B 0D 7C 0C 41 00  mov         ecx,dword ptr ds:[00410C7Ch]
  00403799: A1 5C 0C 41 00     mov         eax,dword ptr ds:[00410C5Ch]
  0040379E: 53                 push        ebx
  0040379F: 55                 push        ebp
  004037A0: 8B 2D 58 0C 41 00  mov         ebp,dword ptr ds:[00410C58h]
  004037A6: 56                 push        esi
  004037A7: 57                 push        edi
  004037A8: 51                 push        ecx
  004037A9: 33 F6              xor         esi,esi
  004037AB: 89 44 24 14        mov         dword ptr [esp+14h],eax
  004037AF: FF 15 74 34 41 00  call        dword ptr ds:[00413474h]
  004037B5: 8B F8              mov         edi,eax
  004037B7: 81 E7 FF FF 00 00  and         edi,0FFFFh
  004037BD: 57                 push        edi
  004037BE: E8 9D 07 00 00     call        00403F60
  004037C3: 8B D8              mov         ebx,eax
  004037C5: 83 C4 04           add         esp,4
  004037C8: 85 DB              test        ebx,ebx
  004037CA: 89 5C 24 14        mov         dword ptr [esp+14h],ebx
  004037CE: 75 08              jne         004037D8
  004037D0: 5F                 pop         edi
  004037D1: 5E                 pop         esi
  004037D2: 5D                 pop         ebp
  004037D3: 5B                 pop         ebx
  004037D4: 83 C4 08           add         esp,8
  004037D7: C3                 ret
  004037D8: 8B 15 7C 0C 41 00  mov         edx,dword ptr ds:[00410C7Ch]
  004037DE: 57                 push        edi
  004037DF: 53                 push        ebx
  004037E0: 52                 push        edx
  004037E1: FF 15 D0 34 41 00  call        dword ptr ds:[004134D0h]
  004037E7: 85 C0              test        eax,eax
  004037E9: 75 08              jne         004037F3
  004037EB: 5F                 pop         edi
  004037EC: 5E                 pop         esi
  004037ED: 5D                 pop         ebp
  004037EE: 5B                 pop         ebx
  004037EF: 83 C4 08           add         esp,8
  004037F2: C3                 ret
  004037F3: 8B 44 24 20        mov         eax,dword ptr [esp+20h]
  004037F7: 85 C0              test        eax,eax
  004037F9: 75 09              jne         00403804
  004037FB: 89 6C 24 10        mov         dword ptr [esp+10h],ebp
  004037FF: 4D                 dec         ebp
  00403800: 03 DD              add         ebx,ebp
  00403802: EB 1E              jmp         00403822
  00403804: 3B 6C 24 10        cmp         ebp,dword ptr [esp+10h]
  00403808: 74 01              je          0040380B
  0040380A: 45                 inc         ebp
  0040380B: A1 60 0C 41 00     mov         eax,dword ptr ds:[00410C60h]
  00403810: 03 DD              add         ebx,ebp
  00403812: 50                 push        eax
  00403813: FF 15 58 34 41 00  call        dword ptr ds:[00413458h]
  00403819: 2B FD              sub         edi,ebp
  0040381B: 2B F8              sub         edi,eax
  0040381D: 47                 inc         edi
  0040381E: 89 7C 24 10        mov         dword ptr [esp+10h],edi
  00403822: 8B 44 24 10        mov         eax,dword ptr [esp+10h]
  00403826: 85 C0              test        eax,eax
  00403828: 0F 8E D7 00 00 00  jle         00403905
  0040382E: 8B 44 24 1C        mov         eax,dword ptr [esp+1Ch]
  00403832: 8B 15 60 0C 41 00  mov         edx,dword ptr ds:[00410C60h]
  00403838: 85 C0              test        eax,eax
  0040383A: 8B FA              mov         edi,edx
  0040383C: 74 14              je          00403852
  0040383E: 83 C9 FF           or          ecx,0FFFFFFFFh
  00403841: 33 C0              xor         eax,eax
  00403843: F2 AE              repne scas  byte ptr es:[edi]
  00403845: F7 D1              not         ecx
  00403847: 49                 dec         ecx
  00403848: 51                 push        ecx
  00403849: 53                 push        ebx
  0040384A: 52                 push        edx
  0040384B: E8 E0 0F 00 00     call        00404830
  00403850: EB 12              jmp         00403864
  00403852: 83 C9 FF           or          ecx,0FFFFFFFFh
  00403855: 33 C0              xor         eax,eax
  00403857: F2 AE              repne scas  byte ptr es:[edi]
  00403859: F7 D1              not         ecx
  0040385B: 49                 dec         ecx
  0040385C: 51                 push        ecx
  0040385D: 53                 push        ebx
  0040385E: 52                 push        edx
  0040385F: E8 DC 7B 00 00     call        0040B440
  00403864: 8B F0              mov         esi,eax
  00403866: 83 C4 0C           add         esp,0Ch
  00403869: F7 DE              neg         esi
  0040386B: 1B F6              sbb         esi,esi
  0040386D: 46                 inc         esi
  0040386E: 85 F6              test        esi,esi
  00403870: 75 1D              jne         0040388F
  00403872: 8B 44 24 20        mov         eax,dword ptr [esp+20h]
  00403876: 85 C0              test        eax,eax
  00403878: 74 04              je          0040387E
  0040387A: 45                 inc         ebp
  0040387B: 43                 inc         ebx
  0040387C: EB 02              jmp         00403880
  0040387E: 4D                 dec         ebp
  0040387F: 4B                 dec         ebx
  00403880: 8B 44 24 10        mov         eax,dword ptr [esp+10h]
  00403884: 48                 dec         eax
  00403885: 85 C0              test        eax,eax
  00403887: 89 44 24 10        mov         dword ptr [esp+10h],eax
  0040388B: 7F A1              jg          0040382E
  0040388D: EB 76              jmp         00403905
  0040388F: 8B 3D 60 0C 41 00  mov         edi,dword ptr ds:[00410C60h]
  00403895: 83 C9 FF           or          ecx,0FFFFFFFFh
  00403898: 33 C0              xor         eax,eax
  0040389A: 89 2D 64 0C 41 00  mov         dword ptr ds:[00410C64h],ebp
  004038A0: F2 AE              repne scas  byte ptr es:[edi]
  004038A2: F7 D1              not         ecx
  004038A4: 8B 3D 90 34 41 00  mov         edi,dword ptr ds:[00413490h]
  004038AA: 49                 dec         ecx
  004038AB: 03 CD              add         ecx,ebp
  004038AD: 89 0D 68 0C 41 00  mov         dword ptr ds:[00410C68h],ecx
  004038B3: 51                 push        ecx
  004038B4: 8B 0D 7C 0C 41 00  mov         ecx,dword ptr ds:[00410C7Ch]
  004038BA: 55                 push        ebp
  004038BB: 68 B1 00 00 00     push        0B1h
  004038C0: 51                 push        ecx
  004038C1: FF D7              call        edi
  004038C3: 8B 15 7C 0C 41 00  mov         edx,dword ptr ds:[00410C7Ch]
  004038C9: 6A 00              push        0
  004038CB: 6A 00              push        0
  004038CD: 68 B7 00 00 00     push        0B7h
  004038D2: 52                 push        edx
  004038D3: FF D7              call        edi
  004038D5: A1 7C 0C 41 00     mov         eax,dword ptr ds:[00410C7Ch]
  004038DA: 50                 push        eax
  004038DB: FF 15 54 35 41 00  call        dword ptr ds:[00413554h]
  004038E1: 8B 44 24 20        mov         eax,dword ptr [esp+20h]
  004038E5: 85 C0              test        eax,eax
  004038E7: 74 0F              je          004038F8
  004038E9: 8B 0D 68 0C 41 00  mov         ecx,dword ptr ds:[00410C68h]
  004038EF: 41                 inc         ecx
  004038F0: 89 0D 58 0C 41 00  mov         dword ptr ds:[00410C58h],ecx
  004038F6: EB 0D              jmp         00403905
  004038F8: 8B 15 64 0C 41 00  mov         edx,dword ptr ds:[00410C64h]
  004038FE: 4A                 dec         edx
  004038FF: 89 15 58 0C 41 00  mov         dword ptr ds:[00410C58h],edx
  00403905: 8B 44 24 14        mov         eax,dword ptr [esp+14h]
  00403909: 50                 push        eax
  0040390A: E8 E1 05 00 00     call        00403EF0
  0040390F: 83 C4 04           add         esp,4
  00403912: 8B C6              mov         eax,esi
  00403914: 5F                 pop         edi
  00403915: 5E                 pop         esi
  00403916: 5D                 pop         ebp
  00403917: 5B                 pop         ebx
  00403918: 83 C4 08           add         esp,8
  0040391B: C3                 ret
  0040391C: 90                 nop
  0040391D: 90                 nop
  0040391E: 90                 nop
  0040391F: 90                 nop
  00403920: 83 EC 0C           sub         esp,0Ch
  00403923: A1 88 0C 41 00     mov         eax,dword ptr ds:[00410C88h]
  00403928: 8B 0D C4 D0 40 00  mov         ecx,dword ptr ds:[0040D0C4h]
  0040392E: 8B 15 70 0C 41 00  mov         edx,dword ptr ds:[00410C70h]
  00403934: 89 44 24 00        mov         dword ptr [esp],eax
  00403938: 8D 44 24 00        lea         eax,[esp]
  0040393C: 56                 push        esi
  0040393D: 89 4C 24 08        mov         dword ptr [esp+8],ecx
  00403941: 8B 0D 78 0C 41 00  mov         ecx,dword ptr ds:[00410C78h]
  00403947: 50                 push        eax
  00403948: 89 54 24 10        mov         dword ptr [esp+10h],edx
  0040394C: 8B 15 74 0C 41 00  mov         edx,dword ptr ds:[00410C74h]
  00403952: 68 F0 3A 40 00     push        403AF0h
  00403957: 51                 push        ecx
  00403958: 6A 67              push        67h
  0040395A: 52                 push        edx
  0040395B: FF 15 F8 34 41 00  call        dword ptr ds:[004134F8h]
  00403961: 8B F0              mov         esi,eax
  00403963: A1 78 0C 41 00     mov         eax,dword ptr ds:[00410C78h]
  00403968: 6A 01              push        1
  0040396A: 6A 00              push        0
  0040396C: 50                 push        eax
  0040396D: FF 15 D8 34 41 00  call        dword ptr ds:[004134D8h]
  00403973: 85 F6              test        esi,esi
  00403975: 74 3B              je          004039B2
  00403977: 8B 44 24 0C        mov         eax,dword ptr [esp+0Ch]
  0040397B: 8B 4C 24 04        mov         ecx,dword ptr [esp+4]
  0040397F: 8B 54 24 08        mov         edx,dword ptr [esp+8]
  00403983: 6A 00              push        0
  00403985: A3 70 0C 41 00     mov         dword ptr ds:[00410C70h],eax
  0040398A: 50                 push        eax
  0040398B: A1 7C 0C 41 00     mov         eax,dword ptr ds:[00410C7Ch]
  00403990: 68 C5 00 00 00     push        0C5h
  00403995: 50                 push        eax
  00403996: 89 0D 88 0C 41 00  mov         dword ptr ds:[00410C88h],ecx
  0040399C: 89 15 C4 D0 40 00  mov         dword ptr ds:[0040D0C4h],edx
  004039A2: FF 15 90 34 41 00  call        dword ptr ds:[00413490h]
  004039A8: E8 63 F8 FF FF     call        00403210
  004039AD: E8 BE F7 FF FF     call        00403170
  004039B2: 5E                 pop         esi
  004039B3: 83 C4 0C           add         esp,0Ch
  004039B6: C3                 ret
  004039B7: 90                 nop
  004039B8: 90                 nop
  004039B9: 90                 nop
  004039BA: 90                 nop
  004039BB: 90                 nop
  004039BC: 90                 nop
  004039BD: 90                 nop
  004039BE: 90                 nop
  004039BF: 90                 nop
  004039C0: 8B 44 24 08        mov         eax,dword ptr [esp+8]
  004039C4: 56                 push        esi
  004039C5: 2D 10 01 00 00     sub         eax,110h
  004039CA: 0F 84 B0 00 00 00  je          00403A80
  004039D0: 48                 dec         eax
  004039D1: 74 7A              je          00403A4D
  004039D3: 83 E8 02           sub         eax,2
  004039D6: 75 5E              jne         00403A36
  004039D8: A1 60 0B 41 00     mov         eax,dword ptr ds:[00410B60h]
  004039DD: 85 C0              test        eax,eax
  004039DF: 75 5B              jne         00403A3C
  004039E1: 83 3D 6C 0C 41 00  cmp         dword ptr ds:[00410C6Ch],8
            08
  004039E8: 7E 20              jle         00403A0A
  004039EA: C7 05 6C 0C 41 00  mov         dword ptr ds:[00410C6Ch],0
            00 00 00 00
  004039F4: E8 87 0E 00 00     call        00404880
  004039F9: 99                 cdq
  004039FA: B9 23 00 00 00     mov         ecx,23h
  004039FF: F7 F9              idiv        eax,ecx
  00403A01: 83 C2 14           add         edx,14h
  00403A04: 89 15 60 0B 41 00  mov         dword ptr ds:[00410B60h],edx
  00403A0A: 8B 0D 6C 0C 41 00  mov         ecx,dword ptr ds:[00410C6Ch]
  00403A10: 8B 54 24 08        mov         edx,dword ptr [esp+8]
  00403A14: 6A 00              push        0
  00403A16: 8B 04 8D 30 0C 41  mov         eax,dword ptr [ecx*4+00410C30h]
            00
  00403A1D: 41                 inc         ecx
  00403A1E: 50                 push        eax
  00403A1F: 68 70 01 00 00     push        170h
  00403A24: 68 EC 03 00 00     push        3ECh
  00403A29: 52                 push        edx
  00403A2A: 89 0D 6C 0C 41 00  mov         dword ptr ds:[00410C6Ch],ecx
  00403A30: FF 15 C0 34 41 00  call        dword ptr ds:[004134C0h]
  00403A36: 33 C0              xor         eax,eax
  00403A38: 5E                 pop         esi
  00403A39: C2 10 00           ret         10h
  00403A3C: A1 60 0B 41 00     mov         eax,dword ptr ds:[00410B60h]
  00403A41: 48                 dec         eax
  00403A42: A3 60 0B 41 00     mov         dword ptr ds:[00410B60h],eax
  00403A47: 33 C0              xor         eax,eax
  00403A49: 5E                 pop         esi
  00403A4A: C2 10 00           ret         10h
  00403A4D: 8B 44 24 10        mov         eax,dword ptr [esp+10h]
  00403A51: 25 FF FF 00 00     and         eax,0FFFFh
  00403A56: 7E DE              jle         00403A36
  00403A58: 83 F8 02           cmp         eax,2
  00403A5B: 7F D9              jg          00403A36
  00403A5D: A1 E8 0B 41 00     mov         eax,dword ptr ds:[00410BE8h]
  00403A62: 8B 74 24 08        mov         esi,dword ptr [esp+8]
  00403A66: 50                 push        eax
  00403A67: 56                 push        esi
  00403A68: FF 15 9C 34 41 00  call        dword ptr ds:[0041349Ch]
  00403A6E: 6A 01              push        1
  00403A70: 56                 push        esi
  00403A71: FF 15 C4 34 41 00  call        dword ptr ds:[004134C4h]
  00403A77: B8 01 00 00 00     mov         eax,1
  00403A7C: 5E                 pop         esi
  00403A7D: C2 10 00           ret         10h
  00403A80: 8B 74 24 08        mov         esi,dword ptr [esp+8]
  00403A84: 68 C4 D4 40 00     push        40D4C4h
  00403A89: 68 ED 03 00 00     push        3EDh
  00403A8E: 56                 push        esi
  00403A8F: FF 15 C8 34 41 00  call        dword ptr ds:[004134C8h]
  00403A95: 6A 04              push        4
  00403A97: 56                 push        esi
  00403A98: FF 15 CC 34 41 00  call        dword ptr ds:[004134CCh]
  00403A9E: 50                 push        eax
  00403A9F: 56                 push        esi
  00403AA0: E8 1B 02 00 00     call        00403CC0
  00403AA5: 83 C4 08           add         esp,8
  00403AA8: C7 05 6C 0C 41 00  mov         dword ptr ds:[00410C6Ch],0
            00 00 00 00
  00403AB2: C7 05 60 0B 41 00  mov         dword ptr ds:[00410B60h],5
            05 00 00 00
  00403ABC: 6A 00              push        0
  00403ABE: 6A 3C              push        3Ch
  00403AC0: 6A 01              push        1
  00403AC2: 56                 push        esi
  00403AC3: FF 15 7C 34 41 00  call        dword ptr ds:[0041347Ch]
  00403AC9: 6A 00              push        0
  00403ACB: A3 E8 0B 41 00     mov         dword ptr ds:[00410BE8h],eax
  00403AD0: E8 DB 0D 00 00     call        004048B0
  00403AD5: 83 C4 04           add         esp,4
  00403AD8: 50                 push        eax
  00403AD9: E8 92 0D 00 00     call        00404870
  00403ADE: 83 C4 04           add         esp,4
  00403AE1: B8 01 00 00 00     mov         eax,1
  00403AE6: 5E                 pop         esi
  00403AE7: C2 10 00           ret         10h
  00403AEA: 90                 nop
  00403AEB: 90                 nop
  00403AEC: 90                 nop
  00403AED: 90                 nop
  00403AEE: 90                 nop
  00403AEF: 90                 nop
  00403AF0: 8B 44 24 08        mov         eax,dword ptr [esp+8]
  00403AF4: 81 EC 90 00 00 00  sub         esp,90h
  00403AFA: 2D 10 01 00 00     sub         eax,110h
  00403AFF: 56                 push        esi
  00403B00: 57                 push        edi
  00403B01: 0F 84 1D 01 00 00  je          00403C24
  00403B07: 48                 dec         eax
  00403B08: 75 12              jne         00403B1C
  00403B0A: 8B 84 24 A4 00 00  mov         eax,dword ptr [esp+000000A4h]
            00
  00403B11: 25 FF FF 00 00     and         eax,0FFFFh
  00403B16: 48                 dec         eax
  00403B17: 74 30              je          00403B49
  00403B19: 48                 dec         eax
  00403B1A: 74 0D              je          00403B29
  00403B1C: 33 C0              xor         eax,eax
  00403B1E: 5F                 pop         edi
  00403B1F: 5E                 pop         esi
  00403B20: 81 C4 90 00 00 00  add         esp,90h
  00403B26: C2 10 00           ret         10h
  00403B29: 8B 84 24 9C 00 00  mov         eax,dword ptr [esp+0000009Ch]
            00
  00403B30: 6A 00              push        0
  00403B32: 50                 push        eax
  00403B33: FF 15 C4 34 41 00  call        dword ptr ds:[004134C4h]
  00403B39: B8 01 00 00 00     mov         eax,1
  00403B3E: 5F                 pop         edi
  00403B3F: 5E                 pop         esi
  00403B40: 81 C4 90 00 00 00  add         esp,90h
  00403B46: C2 10 00           ret         10h
  00403B49: 8B B4 24 9C 00 00  mov         esi,dword ptr [esp+0000009Ch]
            00
  00403B50: 8B 3D B4 34 41 00  mov         edi,dword ptr ds:[004134B4h]
  00403B56: 68 E8 03 00 00     push        3E8h
  00403B5B: 56                 push        esi
  00403B5C: FF D7              call        edi
  00403B5E: 8B 0D A4 0C 41 00  mov         ecx,dword ptr ds:[00410CA4h]
  00403B64: 68 E9 03 00 00     push        3E9h
  00403B69: 56                 push        esi
  00403B6A: 89 01              mov         dword ptr [ecx],eax
  00403B6C: FF D7              call        edi
  00403B6E: 8B 15 A4 0C 41 00  mov         edx,dword ptr ds:[00410CA4h]
  00403B74: 6A 10              push        10h
  00403B76: 33 FF              xor         edi,edi
  00403B78: 89 42 04           mov         dword ptr [edx+4],eax
  00403B7B: 8D 44 24 0C        lea         eax,[esp+0Ch]
  00403B7F: 50                 push        eax
  00403B80: 68 EB 03 00 00     push        3EBh
  00403B85: 56                 push        esi
  00403B86: FF 15 B8 34 41 00  call        dword ptr ds:[004134B8h]
  00403B8C: 85 C0              test        eax,eax
  00403B8E: 74 0F              je          00403B9F
  00403B90: 8D 4C 24 08        lea         ecx,[esp+8]
  00403B94: 51                 push        ecx
  00403B95: E8 E6 0E 00 00     call        00404A80
  00403B9A: 83 C4 04           add         esp,4
  00403B9D: 8B F8              mov         edi,eax
  00403B9F: A1 34 11 41 00     mov         eax,dword ptr ds:[00411134h]
  00403BA4: 85 C0              test        eax,eax
  00403BA6: A1 18 C0 40 00     mov         eax,dword ptr ds:[0040C018h]
  00403BAB: 75 05              jne         00403BB2
  00403BAD: A1 1C C0 40 00     mov         eax,dword ptr ds:[0040C01Ch]
  00403BB2: 8B 0D 14 C0 40 00  mov         ecx,dword ptr ds:[0040C014h]
  00403BB8: 3B F9              cmp         edi,ecx
  00403BBA: 72 31              jb          00403BED
  00403BBC: 3B F8              cmp         edi,eax
  00403BBE: 77 2D              ja          00403BED
  00403BC0: 8D 04 BF           lea         eax,[edi+edi*4]
  00403BC3: 6A 01              push        1
  00403BC5: 56                 push        esi
  00403BC6: 8D 04 80           lea         eax,[eax+eax*4]
  00403BC9: 8D 14 80           lea         edx,[eax+eax*4]
  00403BCC: A1 A4 0C 41 00     mov         eax,dword ptr ds:[00410CA4h]
  00403BD1: C1 E2 03           shl         edx,3
  00403BD4: 89 50 08           mov         dword ptr [eax+8],edx
  00403BD7: FF 15 C4 34 41 00  call        dword ptr ds:[004134C4h]
  00403BDD: B8 01 00 00 00     mov         eax,1
  00403BE2: 5F                 pop         edi
  00403BE3: 5E                 pop         esi
  00403BE4: 81 C4 90 00 00 00  add         esp,90h
  00403BEA: C2 10 00           ret         10h
  00403BED: 50                 push        eax
  00403BEE: 51                 push        ecx
  00403BEF: 8D 4C 24 20        lea         ecx,[esp+20h]
  00403BF3: 68 E4 D4 40 00     push        40D4E4h
  00403BF8: 51                 push        ecx
  00403BF9: E8 D2 01 00 00     call        00403DD0
  00403BFE: 83 C4 10           add         esp,10h
  00403C01: 8D 54 24 18        lea         edx,[esp+18h]
  00403C05: 6A 10              push        10h
  00403C07: 68 D8 D4 40 00     push        40D4D8h
  00403C0C: 52                 push        edx
  00403C0D: 56                 push        esi
  00403C0E: FF 15 84 34 41 00  call        dword ptr ds:[00413484h]
  00403C14: B8 01 00 00 00     mov         eax,1
  00403C19: 5F                 pop         edi
  00403C1A: 5E                 pop         esi
  00403C1B: 81 C4 90 00 00 00  add         esp,90h
  00403C21: C2 10 00           ret         10h
  00403C24: 8B B4 24 9C 00 00  mov         esi,dword ptr [esp+0000009Ch]
            00
  00403C2B: 6A 04              push        4
  00403C2D: 56                 push        esi
  00403C2E: FF 15 CC 34 41 00  call        dword ptr ds:[004134CCh]
  00403C34: 50                 push        eax
  00403C35: 56                 push        esi
  00403C36: E8 85 00 00 00     call        00403CC0
  00403C3B: 8B 84 24 B0 00 00  mov         eax,dword ptr [esp+000000B0h]
            00
  00403C42: 8B 3D BC 34 41 00  mov         edi,dword ptr ds:[004134BCh]
  00403C48: A3 A4 0C 41 00     mov         dword ptr ds:[00410CA4h],eax
  00403C4D: 83 C4 08           add         esp,8
  00403C50: 8B 10              mov         edx,dword ptr [eax]
  00403C52: 33 C9              xor         ecx,ecx
  00403C54: 83 FA 01           cmp         edx,1
  00403C57: 0F 94 C1           sete        cl
  00403C5A: 51                 push        ecx
  00403C5B: 68 E8 03 00 00     push        3E8h
  00403C60: 56                 push        esi
  00403C61: FF D7              call        edi
  00403C63: A1 A4 0C 41 00     mov         eax,dword ptr ds:[00410CA4h]
  00403C68: 33 D2              xor         edx,edx
  00403C6A: 83 78 04 01        cmp         dword ptr [eax+4],1
  00403C6E: 0F 94 C2           sete        dl
  00403C71: 52                 push        edx
  00403C72: 68 E9 03 00 00     push        3E9h
  00403C77: 56                 push        esi
  00403C78: FF D7              call        edi
  00403C7A: 8B 0D A4 0C 41 00  mov         ecx,dword ptr ds:[00410CA4h]
  00403C80: B8 D3 4D 62 10     mov         eax,10624DD3h
  00403C85: F7 61 08           mul         eax,dword ptr [ecx+8]
  00403C88: C1 EA 06           shr         edx,6
  00403C8B: 52                 push        edx
  00403C8C: 8D 54 24 0C        lea         edx,[esp+0Ch]
  00403C90: 68 D4 D4 40 00     push        40D4D4h
  00403C95: 52                 push        edx
  00403C96: E8 35 01 00 00     call        00403DD0
  00403C9B: 83 C4 0C           add         esp,0Ch
  00403C9E: 8D 44 24 08        lea         eax,[esp+8]
  00403CA2: 50                 push        eax
  00403CA3: 68 EB 03 00 00     push        3EBh
  00403CA8: 56                 push        esi
  00403CA9: FF 15 C8 34 41 00  call        dword ptr ds:[004134C8h]
  00403CAF: 5F                 pop         edi
  00403CB0: B8 01 00 00 00     mov         eax,1
  00403CB5: 5E                 pop         esi
  00403CB6: 81 C4 90 00 00 00  add         esp,90h
  00403CBC: C2 10 00           ret         10h
  00403CBF: 90                 nop
  00403CC0: 83 EC 28           sub         esp,28h
  00403CC3: 53                 push        ebx
  00403CC4: 8B 5C 24 30        mov         ebx,dword ptr [esp+30h]
  00403CC8: 55                 push        ebp
  00403CC9: 56                 push        esi
  00403CCA: 8D 44 24 24        lea         eax,[esp+24h]
  00403CCE: 57                 push        edi
  00403CCF: 8B 3D A8 34 41 00  mov         edi,dword ptr ds:[004134A8h]
  00403CD5: 50                 push        eax
  00403CD6: 53                 push        ebx
  00403CD7: FF D7              call        edi
  00403CD9: 8B 74 24 30        mov         esi,dword ptr [esp+30h]
  00403CDD: 8B 4C 24 28        mov         ecx,dword ptr [esp+28h]
  00403CE1: 8B 54 24 40        mov         edx,dword ptr [esp+40h]
  00403CE5: 8B 6C 24 34        mov         ebp,dword ptr [esp+34h]
  00403CE9: 8B 44 24 2C        mov         eax,dword ptr [esp+2Ch]
  00403CED: 2B F1              sub         esi,ecx
  00403CEF: 8D 4C 24 18        lea         ecx,[esp+18h]
  00403CF3: 2B E8              sub         ebp,eax
  00403CF5: 51                 push        ecx
  00403CF6: 52                 push        edx
  00403CF7: FF D7              call        edi
  00403CF9: 8B 44 24 24        mov         eax,dword ptr [esp+24h]
  00403CFD: 8B 4C 24 1C        mov         ecx,dword ptr [esp+1Ch]
  00403D01: 8B 7C 24 20        mov         edi,dword ptr [esp+20h]
  00403D05: 8B 54 24 18        mov         edx,dword ptr [esp+18h]
  00403D09: 2B C1              sub         eax,ecx
  00403D0B: 53                 push        ebx
  00403D0C: 2B FA              sub         edi,edx
  00403D0E: 89 44 24 14        mov         dword ptr [esp+14h],eax
  00403D12: FF 15 AC 34 41 00  call        dword ptr ds:[004134ACh]
  00403D18: 8B D8              mov         ebx,eax
  00403D1A: 6A 08              push        8
  00403D1C: 53                 push        ebx
  00403D1D: FF 15 28 33 41 00  call        dword ptr ds:[00413328h]
  00403D23: 6A 0A              push        0Ah
  00403D25: 53                 push        ebx
  00403D26: 89 44 24 48        mov         dword ptr [esp+48h],eax
  00403D2A: FF 15 28 33 41 00  call        dword ptr ds:[00413328h]
  00403D30: 53                 push        ebx
  00403D31: 8B 5C 24 40        mov         ebx,dword ptr [esp+40h]
  00403D35: 53                 push        ebx
  00403D36: 89 44 24 1C        mov         dword ptr [esp+1Ch],eax
  00403D3A: FF 15 B0 34 41 00  call        dword ptr ds:[004134B0h]
  00403D40: 8B C7              mov         eax,edi
  00403D42: 2B C6              sub         eax,esi
  00403D44: 99                 cdq
  00403D45: 2B C2              sub         eax,edx
  00403D47: 8B C8              mov         ecx,eax
  00403D49: 8B 44 24 18        mov         eax,dword ptr [esp+18h]
  00403D4D: D1 F9              sar         ecx,1
  00403D4F: 03 C8              add         ecx,eax
  00403D51: 79 04              jns         00403D57
  00403D53: 33 C9              xor         ecx,ecx
  00403D55: EB 0F              jmp         00403D66
  00403D57: 8B 44 24 40        mov         eax,dword ptr [esp+40h]
  00403D5B: 8D 14 31           lea         edx,[ecx+esi]
  00403D5E: 3B D0              cmp         edx,eax
  00403D60: 7E 04              jle         00403D66
  00403D62: 2B C6              sub         eax,esi
  00403D64: 8B C8              mov         ecx,eax
  00403D66: 8B 44 24 10        mov         eax,dword ptr [esp+10h]
  00403D6A: 2B C5              sub         eax,ebp
  00403D6C: 99                 cdq
  00403D6D: 2B C2              sub         eax,edx
  00403D6F: 8B 54 24 1C        mov         edx,dword ptr [esp+1Ch]
  00403D73: D1 F8              sar         eax,1
  00403D75: 03 C2              add         eax,edx
  00403D77: 79 04              jns         00403D7D
  00403D79: 33 C0              xor         eax,eax
  00403D7B: EB 0F              jmp         00403D8C
  00403D7D: 8B 54 24 14        mov         edx,dword ptr [esp+14h]
  00403D81: 8D 34 28           lea         esi,[eax+ebp]
  00403D84: 3B F2              cmp         esi,edx
  00403D86: 7E 04              jle         00403D8C
  00403D88: 2B D5              sub         edx,ebp
  00403D8A: 8B C2              mov         eax,edx
  00403D8C: 6A 05              push        5
  00403D8E: 6A 00              push        0
  00403D90: 6A 00              push        0
  00403D92: 50                 push        eax
  00403D93: 51                 push        ecx
  00403D94: 6A 00              push        0
  00403D96: 53                 push        ebx
  00403D97: FF 15 E0 34 41 00  call        dword ptr ds:[004134E0h]
  00403D9D: 5F                 pop         edi
  00403D9E: 5E                 pop         esi
  00403D9F: 5D                 pop         ebp
  00403DA0: 5B                 pop         ebx
  00403DA1: 83 C4 28           add         esp,28h
  00403DA4: C3                 ret
  00403DA5: 90                 nop
  00403DA6: 90                 nop
  00403DA7: 90                 nop
  00403DA8: 90                 nop
  00403DA9: 90                 nop
  00403DAA: 90                 nop
  00403DAB: 90                 nop
  00403DAC: 90                 nop
  00403DAD: 90                 nop
  00403DAE: 90                 nop
  00403DAF: 90                 nop
  00403DB0: FF 25 64 35 41 00  jmp         dword ptr ds:[00413564h]
  00403DB6: FF 25 60 35 41 00  jmp         dword ptr ds:[00413560h]
  00403DBC: FF 25 5C 35 41 00  jmp         dword ptr ds:[0041355Ch]
  00403DC2: CC                 int         3
  00403DC3: CC                 int         3
  00403DC4: CC                 int         3
  00403DC5: CC                 int         3
  00403DC6: CC                 int         3
  00403DC7: CC                 int         3
  00403DC8: CC                 int         3
  00403DC9: CC                 int         3
  00403DCA: CC                 int         3
  00403DCB: CC                 int         3
  00403DCC: CC                 int         3
  00403DCD: CC                 int         3
  00403DCE: CC                 int         3
  00403DCF: CC                 int         3
  00403DD0: 83 EC 20           sub         esp,20h
  00403DD3: 8B 44 24 24        mov         eax,dword ptr [esp+24h]
  00403DD7: 8B 4C 24 28        mov         ecx,dword ptr [esp+28h]
  00403DDB: 89 44 24 08        mov         dword ptr [esp+8],eax
  00403DDF: 89 44 24 00        mov         dword ptr [esp],eax
  00403DE3: 8D 44 24 2C        lea         eax,[esp+2Ch]
  00403DE7: 56                 push        esi
  00403DE8: 50                 push        eax
  00403DE9: 8D 54 24 08        lea         edx,[esp+8]
  00403DED: 51                 push        ecx
  00403DEE: 52                 push        edx
  00403DEF: C7 44 24 1C 42 00  mov         dword ptr [esp+1Ch],42h
            00 00
  00403DF7: C7 44 24 14 FF FF  mov         dword ptr [esp+14h],7FFFFFFFh
            FF 7F
  00403DFF: E8 9C 0F 00 00     call        00404DA0
  00403E04: 8B F0              mov         esi,eax
  00403E06: 8B 44 24 14        mov         eax,dword ptr [esp+14h]
  00403E0A: 83 C4 0C           add         esp,0Ch
  00403E0D: 48                 dec         eax
  00403E0E: 89 44 24 08        mov         dword ptr [esp+8],eax
  00403E12: 78 0E              js          00403E22
  00403E14: 8B 44 24 04        mov         eax,dword ptr [esp+4]
  00403E18: C6 00 00           mov         byte ptr [eax],0
  00403E1B: 8B C6              mov         eax,esi
  00403E1D: 5E                 pop         esi
  00403E1E: 83 C4 20           add         esp,20h
  00403E21: C3                 ret
  00403E22: 8D 4C 24 04        lea         ecx,[esp+4]
  00403E26: 51                 push        ecx
  00403E27: 6A 00              push        0
  00403E29: E8 42 0E 00 00     call        00404C70
  00403E2E: 83 C4 08           add         esp,8
  00403E31: 8B C6              mov         eax,esi
  00403E33: 5E                 pop         esi
  00403E34: 83 C4 20           add         esp,20h
  00403E37: C3                 ret
  00403E38: 90                 nop
  00403E39: 90                 nop
  00403E3A: 90                 nop
  00403E3B: 90                 nop
  00403E3C: 90                 nop
  00403E3D: 90                 nop
  00403E3E: 90                 nop
  00403E3F: 90                 nop
  00403E40: 53                 push        ebx
  00403E41: 8B 5C 24 0C        mov         ebx,dword ptr [esp+0Ch]
  00403E45: 0F AF 5C 24 08     imul        ebx,dword ptr [esp+8]
  00403E4A: 55                 push        ebp
  00403E4B: 56                 push        esi
  00403E4C: 83 FB E0           cmp         ebx,0FFFFFFE0h
  00403E4F: 57                 push        edi
  00403E50: 77 11              ja          00403E63
  00403E52: 85 DB              test        ebx,ebx
  00403E54: 76 08              jbe         00403E5E
  00403E56: 83 C3 0F           add         ebx,0Fh
  00403E59: 83 E3 F0           and         ebx,0FFFFFFF0h
  00403E5C: EB 05              jmp         00403E63
  00403E5E: BB 10 00 00 00     mov         ebx,10h
  00403E63: 8B 2D 68 34 41 00  mov         ebp,dword ptr ds:[00413468h]
  00403E69: 33 F6              xor         esi,esi
  00403E6B: 83 FB E0           cmp         ebx,0FFFFFFE0h
  00403E6E: 77 55              ja          00403EC5
  00403E70: 3B 1D 3C F6 40 00  cmp         ebx,dword ptr ds:[0040F63Ch]
  00403E76: 77 3C              ja          00403EB4
  00403E78: 6A 09              push        9
  00403E7A: E8 71 1A 00 00     call        004058F0
  00403E7F: 8B C3              mov         eax,ebx
  00403E81: 83 C4 04           add         esp,4
  00403E84: C1 E8 04           shr         eax,4
  00403E87: 50                 push        eax
  00403E88: E8 43 1F 00 00     call        00405DD0
  00403E8D: 83 C4 04           add         esp,4
  00403E90: 8B F0              mov         esi,eax
  00403E92: 6A 09              push        9
  00403E94: E8 D7 1A 00 00     call        00405970
  00403E99: 83 C4 04           add         esp,4
  00403E9C: 85 F6              test        esi,esi
  00403E9E: 74 18              je          00403EB8
  00403EA0: 8B CB              mov         ecx,ebx
  00403EA2: 33 C0              xor         eax,eax
  00403EA4: 8B D1              mov         edx,ecx
  00403EA6: 8B FE              mov         edi,esi
  00403EA8: C1 E9 02           shr         ecx,2
  00403EAB: F3 AB              rep stos    dword ptr es:[edi]
  00403EAD: 8B CA              mov         ecx,edx
  00403EAF: 83 E1 03           and         ecx,3
  00403EB2: F3 AA              rep stos    byte ptr es:[edi]
  00403EB4: 85 F6              test        esi,esi
  00403EB6: 75 2C              jne         00403EE4
  00403EB8: A1 84 22 41 00     mov         eax,dword ptr ds:[00412284h]
  00403EBD: 53                 push        ebx
  00403EBE: 6A 08              push        8
  00403EC0: 50                 push        eax
  00403EC1: FF D5              call        ebp
  00403EC3: 8B F0              mov         esi,eax
  00403EC5: 85 F6              test        esi,esi
  00403EC7: 75 1B              jne         00403EE4
  00403EC9: A1 D0 0C 41 00     mov         eax,dword ptr ds:[00410CD0h]
  00403ECE: 85 C0              test        eax,eax
  00403ED0: 74 12              je          00403EE4
  00403ED2: 53                 push        ebx
  00403ED3: E8 88 19 00 00     call        00405860
  00403ED8: 83 C4 04           add         esp,4
  00403EDB: 85 C0              test        eax,eax
  00403EDD: 75 8A              jne         00403E69
  00403EDF: 5F                 pop         edi
  00403EE0: 5E                 pop         esi
  00403EE1: 5D                 pop         ebp
  00403EE2: 5B                 pop         ebx
  00403EE3: C3                 ret
  00403EE4: 8B C6              mov         eax,esi
  00403EE6: 5F                 pop         edi
  00403EE7: 5E                 pop         esi
  00403EE8: 5D                 pop         ebp
  00403EE9: 5B                 pop         ebx
  00403EEA: C3                 ret
  00403EEB: 90                 nop
  00403EEC: 90                 nop
  00403EED: 90                 nop
  00403EEE: 90                 nop
  00403EEF: 90                 nop
  00403EF0: 51                 push        ecx
  00403EF1: 56                 push        esi
  00403EF2: 8B 74 24 0C        mov         esi,dword ptr [esp+0Ch]
  00403EF6: 85 F6              test        esi,esi
  00403EF8: 74 5B              je          00403F55
  00403EFA: 6A 09              push        9
  00403EFC: E8 EF 19 00 00     call        004058F0
  00403F01: 83 C4 04           add         esp,4
  00403F04: 8D 44 24 0C        lea         eax,[esp+0Ch]
  00403F08: 8D 4C 24 04        lea         ecx,[esp+4]
  00403F0C: 50                 push        eax
  00403F0D: 51                 push        ecx
  00403F0E: 56                 push        esi
  00403F0F: E8 FC 1D 00 00     call        00405D10
  00403F14: 83 C4 0C           add         esp,0Ch
  00403F17: 85 C0              test        eax,eax
  00403F19: 74 20              je          00403F3B
  00403F1B: 8B 54 24 0C        mov         edx,dword ptr [esp+0Ch]
  00403F1F: 50                 push        eax
  00403F20: 8B 44 24 08        mov         eax,dword ptr [esp+8]
  00403F24: 52                 push        edx
  00403F25: 50                 push        eax
  00403F26: E8 45 1E 00 00     call        00405D70
  00403F2B: 83 C4 0C           add         esp,0Ch
  00403F2E: 6A 09              push        9
  00403F30: E8 3B 1A 00 00     call        00405970
  00403F35: 83 C4 04           add         esp,4
  00403F38: 5E                 pop         esi
  00403F39: 59                 pop         ecx
  00403F3A: C3                 ret
  00403F3B: 6A 09              push        9
  00403F3D: E8 2E 1A 00 00     call        00405970
  00403F42: 8B 0D 84 22 41 00  mov         ecx,dword ptr ds:[00412284h]
  00403F48: 83 C4 04           add         esp,4
  00403F4B: 56                 push        esi
  00403F4C: 6A 00              push        0
  00403F4E: 51                 push        ecx
  00403F4F: FF 15 44 34 41 00  call        dword ptr ds:[00413444h]
  00403F55: 5E                 pop         esi
  00403F56: 59                 pop         ecx
  00403F57: C3                 ret
  00403F58: 90                 nop
  00403F59: 90                 nop
  00403F5A: 90                 nop
  00403F5B: 90                 nop
  00403F5C: 90                 nop
  00403F5D: 90                 nop
  00403F5E: 90                 nop
  00403F5F: 90                 nop
  00403F60: A1 D0 0C 41 00     mov         eax,dword ptr ds:[00410CD0h]
  00403F65: 8B 4C 24 04        mov         ecx,dword ptr [esp+4]
  00403F69: 50                 push        eax
  00403F6A: 51                 push        ecx
  00403F6B: E8 10 00 00 00     call        00403F80
  00403F70: 83 C4 08           add         esp,8
  00403F73: C3                 ret
  00403F74: 90                 nop
  00403F75: 90                 nop
  00403F76: 90                 nop
  00403F77: 90                 nop
  00403F78: 90                 nop
  00403F79: 90                 nop
  00403F7A: 90                 nop
  00403F7B: 90                 nop
  00403F7C: 90                 nop
  00403F7D: 90                 nop
  00403F7E: 90                 nop
  00403F7F: 90                 nop
  00403F80: 56                 push        esi
  00403F81: 8B 74 24 08        mov         esi,dword ptr [esp+8]
  00403F85: 83 FE E0           cmp         esi,0FFFFFFE0h
  00403F88: 57                 push        edi
  00403F89: 77 34              ja          00403FBF
  00403F8B: 85 F6              test        esi,esi
  00403F8D: 75 05              jne         00403F94
  00403F8F: BE 01 00 00 00     mov         esi,1
  00403F94: 8B 7C 24 10        mov         edi,dword ptr [esp+10h]
  00403F98: 83 FE E0           cmp         esi,0FFFFFFE0h
  00403F9B: 77 0B              ja          00403FA8
  00403F9D: 56                 push        esi
  00403F9E: E8 2D 00 00 00     call        00403FD0
  00403FA3: 83 C4 04           add         esp,4
  00403FA6: EB 02              jmp         00403FAA
  00403FA8: 33 C0              xor         eax,eax
  00403FAA: 85 C0              test        eax,eax
  00403FAC: 75 13              jne         00403FC1
  00403FAE: 85 FF              test        edi,edi
  00403FB0: 74 0F              je          00403FC1
  00403FB2: 56                 push        esi
  00403FB3: E8 A8 18 00 00     call        00405860
  00403FB8: 83 C4 04           add         esp,4
  00403FBB: 85 C0              test        eax,eax
  00403FBD: 75 D9              jne         00403F98
  00403FBF: 33 C0              xor         eax,eax
  00403FC1: 5F                 pop         edi
  00403FC2: 5E                 pop         esi
  00403FC3: C3                 ret
  00403FC4: 90                 nop
  00403FC5: 90                 nop
  00403FC6: 90                 nop
  00403FC7: 90                 nop
  00403FC8: 90                 nop
  00403FC9: 90                 nop
  00403FCA: 90                 nop
  00403FCB: 90                 nop
  00403FCC: 90                 nop
  00403FCD: 90                 nop
  00403FCE: 90                 nop
  00403FCF: 90                 nop
  00403FD0: 8B 44 24 04        mov         eax,dword ptr [esp+4]
  00403FD4: 56                 push        esi
  00403FD5: 57                 push        edi
  00403FD6: 8D 70 0F           lea         esi,[eax+0Fh]
  00403FD9: A1 3C F6 40 00     mov         eax,dword ptr ds:[0040F63Ch]
  00403FDE: 83 E6 F0           and         esi,0FFFFFFF0h
  00403FE1: 3B F0              cmp         esi,eax
  00403FE3: 77 2D              ja          00404012
  00403FE5: 6A 09              push        9
  00403FE7: E8 04 19 00 00     call        004058F0
  00403FEC: 8B CE              mov         ecx,esi
  00403FEE: 83 C4 04           add         esp,4
  00403FF1: C1 E9 04           shr         ecx,4
  00403FF4: 51                 push        ecx
  00403FF5: E8 D6 1D 00 00     call        00405DD0
  00403FFA: 83 C4 04           add         esp,4
  00403FFD: 8B F8              mov         edi,eax
  00403FFF: 6A 09              push        9
  00404001: E8 6A 19 00 00     call        00405970
  00404006: 83 C4 04           add         esp,4
  00404009: 85 FF              test        edi,edi
  0040400B: 74 05              je          00404012
  0040400D: 8B C7              mov         eax,edi
  0040400F: 5F                 pop         edi
  00404010: 5E                 pop         esi
  00404011: C3                 ret
  00404012: 8B 15 84 22 41 00  mov         edx,dword ptr ds:[00412284h]
  00404018: 56                 push        esi
  00404019: 6A 00              push        0
  0040401B: 52                 push        edx
  0040401C: FF 15 68 34 41 00  call        dword ptr ds:[00413468h]
  00404022: 5F                 pop         edi
  00404023: 5E                 pop         esi
  00404024: C3                 ret
  00404025: 90                 nop
  00404026: 90                 nop
  00404027: 90                 nop
  00404028: 90                 nop
  00404029: 90                 nop
  0040402A: 90                 nop
  0040402B: 90                 nop
  0040402C: 90                 nop
  0040402D: 90                 nop
  0040402E: 90                 nop
  0040402F: 90                 nop
  00404030: 56                 push        esi
  00404031: 57                 push        edi
  00404032: 6A 74              push        74h
  00404034: 6A 01              push        1
  00404036: 33 FF              xor         edi,edi
  00404038: E8 03 FE FF FF     call        00403E40
  0040403D: 8B F0              mov         esi,eax
  0040403F: 83 C4 08           add         esp,8
  00404042: 85 F6              test        esi,esi
  00404044: 74 4A              je          00404090
  00404046: 56                 push        esi
  00404047: E8 F4 23 00 00     call        00406440
  0040404C: 8B 44 24 18        mov         eax,dword ptr [esp+18h]
  00404050: 8B 54 24 24        mov         edx,dword ptr [esp+24h]
  00404054: 8B 4C 24 1C        mov         ecx,dword ptr [esp+1Ch]
  00404058: 83 C4 04           add         esp,4
  0040405B: 89 46 48           mov         dword ptr [esi+48h],eax
  0040405E: 8B 44 24 1C        mov         eax,dword ptr [esp+1Ch]
  00404062: 52                 push        edx
  00404063: 8B 54 24 10        mov         edx,dword ptr [esp+10h]
  00404067: 89 4E 4C           mov         dword ptr [esi+4Ch],ecx
  0040406A: 8B 4C 24 14        mov         ecx,dword ptr [esp+14h]
  0040406E: 50                 push        eax
  0040406F: 56                 push        esi
  00404070: 68 B0 40 40 00     push        4040B0h
  00404075: 51                 push        ecx
  00404076: 52                 push        edx
  00404077: C7 46 04 FF FF FF  mov         dword ptr [esi+4],0FFFFFFFFh
            FF
  0040407E: FF 15 10 34 41 00  call        dword ptr ds:[00413410h]
  00404084: 85 C0              test        eax,eax
  00404086: 75 20              jne         004040A8
  00404088: FF 15 3C 34 41 00  call        dword ptr ds:[0041343Ch]
  0040408E: 8B F8              mov         edi,eax
  00404090: 56                 push        esi
  00404091: E8 5A FE FF FF     call        00403EF0
  00404096: 83 C4 04           add         esp,4
  00404099: 85 FF              test        edi,edi
  0040409B: 74 09              je          004040A6
  0040409D: 57                 push        edi
  0040409E: E8 9D 22 00 00     call        00406340
  004040A3: 83 C4 04           add         esp,4
  004040A6: 33 C0              xor         eax,eax
  004040A8: 5F                 pop         edi
  004040A9: 5E                 pop         esi
  004040AA: C3                 ret
  004040AB: 90                 nop
  004040AC: 90                 nop
  004040AD: 90                 nop
  004040AE: 90                 nop
  004040AF: 90                 nop
  004040B0: 55                 push        ebp
  004040B1: 8B EC              mov         ebp,esp
  004040B3: 6A FF              push        0FFFFFFFFh
  004040B5: 68 20 C0 40 00     push        40C020h
  004040BA: 68 98 42 40 00     push        404298h
  004040BF: 64 A1 00 00 00 00  mov         eax,dword ptr fs:[00000000h]
  004040C5: 50                 push        eax
  004040C6: 64 89 25 00 00 00  mov         dword ptr fs:[00000000h],esp
            00
  004040CD: 83 C4 F4           add         esp,0FFFFFFF4h
  004040D0: 53                 push        ebx
  004040D1: 56                 push        esi
  004040D2: 57                 push        edi
  004040D3: 89 65 E8           mov         dword ptr [ebp-18h],esp
  004040D6: 8B 75 08           mov         esi,dword ptr [ebp+8]
  004040D9: 56                 push        esi
  004040DA: A1 28 FA 40 00     mov         eax,dword ptr ds:[0040FA28h]
  004040DF: 50                 push        eax
  004040E0: FF 15 08 34 41 00  call        dword ptr ds:[00413408h]
  004040E6: 85 C0              test        eax,eax
  004040E8: 75 0A              jne         004040F4
  004040EA: 6A 10              push        10h
  004040EC: E8 4F 0B 00 00     call        00404C40
  004040F1: 83 C4 04           add         esp,4
  004040F4: FF 15 48 34 41 00  call        dword ptr ds:[00413448h]
  004040FA: 89 06              mov         dword ptr [esi],eax
  004040FC: A1 8C 22 41 00     mov         eax,dword ptr ds:[0041228Ch]
  00404101: 85 C0              test        eax,eax
  00404103: 74 02              je          00404107
  00404105: FF D0              call        eax
  00404107: C7 45 FC 00 00 00  mov         dword ptr [ebp-4],0
            00
  0040410E: 8B 4E 4C           mov         ecx,dword ptr [esi+4Ch]
  00404111: 51                 push        ecx
  00404112: FF 56 48           call        dword ptr [esi+48h]
  00404115: 50                 push        eax
  00404116: E8 45 00 00 00     call        00404160
  0040411B: EB 21              jmp         0040413E
  0040411D: 8B 45 EC           mov         eax,dword ptr [ebp-14h]
  00404120: 8B 10              mov         edx,dword ptr [eax]
  00404122: 8B 0A              mov         ecx,dword ptr [edx]
  00404124: 89 4D E4           mov         dword ptr [ebp-1Ch],ecx
  00404127: 50                 push        eax
  00404128: 51                 push        ecx
  00404129: E8 C2 25 00 00     call        004066F0
  0040412E: 83 C4 08           add         esp,8
  00404131: C3                 ret
  00404132: 8B 65 E8           mov         esp,dword ptr [ebp-18h]
  00404135: 8B 45 E4           mov         eax,dword ptr [ebp-1Ch]
  00404138: 50                 push        eax
  00404139: E8 92 24 00 00     call        004065D0
  0040413E: 83 C4 04           add         esp,4
  00404141: C7 45 FC FF FF FF  mov         dword ptr [ebp-4],0FFFFFFFFh
            FF
  00404148: 33 C0              xor         eax,eax
  0040414A: 8B 4D F0           mov         ecx,dword ptr [ebp-10h]
  0040414D: 64 89 0D 00 00 00  mov         dword ptr fs:[00000000h],ecx
            00
  00404154: 5F                 pop         edi
  00404155: 5E                 pop         esi
  00404156: 5B                 pop         ebx
  00404157: 8B E5              mov         esp,ebp
  00404159: 5D                 pop         ebp
  0040415A: C2 04 00           ret         4
  0040415D: 90                 nop
  0040415E: 90                 nop
  0040415F: 90                 nop
  00404160: A1 90 22 41 00     mov         eax,dword ptr ds:[00412290h]
  00404165: 56                 push        esi
  00404166: 85 C0              test        eax,eax
  00404168: 74 02              je          0040416C
  0040416A: FF D0              call        eax
  0040416C: E8 EF 22 00 00     call        00406460
  00404171: 8B F0              mov         esi,eax
  00404173: 85 F6              test        esi,esi
  00404175: 75 0A              jne         00404181
  00404177: 6A 10              push        10h
  00404179: E8 C2 0A 00 00     call        00404C40
  0040417E: 83 C4 04           add         esp,4
  00404181: 56                 push        esi
  00404182: E8 59 23 00 00     call        004064E0
  00404187: 8B 44 24 0C        mov         eax,dword ptr [esp+0Ch]
  0040418B: 83 C4 04           add         esp,4
  0040418E: 50                 push        eax
  0040418F: FF 15 04 34 41 00  call        dword ptr ds:[00413404h]
  00404195: 5E                 pop         esi
  00404196: C3                 ret
  00404197: 90                 nop
  00404198: 90                 nop
  00404199: 90                 nop
  0040419A: 90                 nop
  0040419B: 90                 nop
  0040419C: 90                 nop
  0040419D: 90                 nop
  0040419E: 90                 nop
  0040419F: 90                 nop
  004041A0: 55                 push        ebp
  004041A1: 8B EC              mov         ebp,esp
  004041A3: 53                 push        ebx
  004041A4: 56                 push        esi
  004041A5: 57                 push        edi
  004041A6: 55                 push        ebp
  004041A7: 6A 00              push        0
  004041A9: 6A 00              push        0
  004041AB: 68 B8 41 40 00     push        4041B8h
  004041B0: FF 75 08           push        dword ptr [ebp+8]
  004041B3: E8 78 72 00 00     call        0040B430
  004041B8: 5D                 pop         ebp
  004041B9: 5F                 pop         edi
  004041BA: 5E                 pop         esi
  004041BB: 5B                 pop         ebx
  004041BC: 8B E5              mov         esp,ebp
  004041BE: 5D                 pop         ebp
  004041BF: C3                 ret
  004041C0: 8B 4C 24 04        mov         ecx,dword ptr [esp+4]
  004041C4: F7 41 04 06 00 00  test        dword ptr [ecx+4],6
            00
  004041CB: B8 01 00 00 00     mov         eax,1
  004041D0: 74 0F              je          004041E1
  004041D2: 8B 44 24 08        mov         eax,dword ptr [esp+8]
  004041D6: 8B 54 24 10        mov         edx,dword ptr [esp+10h]
  004041DA: 89 02              mov         dword ptr [edx],eax
  004041DC: B8 03 00 00 00     mov         eax,3
  004041E1: C3                 ret
  004041E2: 53                 push        ebx
  004041E3: 56                 push        esi
  004041E4: 57                 push        edi
  004041E5: 8B 44 24 10        mov         eax,dword ptr [esp+10h]
  004041E9: 50                 push        eax
  004041EA: 6A FE              push        0FFFFFFFEh
  004041EC: 68 C0 41 40 00     push        4041C0h
  004041F1: 64 FF 35 00 00 00  push        dword ptr fs:[00000000h]
            00
  004041F8: 64 89 25 00 00 00  mov         dword ptr fs:[00000000h],esp
            00
  004041FF: 8B 44 24 20        mov         eax,dword ptr [esp+20h]
  00404203: 8B 58 08           mov         ebx,dword ptr [eax+8]
  00404206: 8B 70 0C           mov         esi,dword ptr [eax+0Ch]
  00404209: 83 FE FF           cmp         esi,0FFFFFFFFh
  0040420C: 74 2E              je          0040423C
  0040420E: 3B 74 24 24        cmp         esi,dword ptr [esp+24h]
  00404212: 74 28              je          0040423C
  00404214: 8D 34 76           lea         esi,[esi+esi*2]
  00404217: 8B 0C B3           mov         ecx,dword ptr [ebx+esi*4]
  0040421A: 89 4C 24 08        mov         dword ptr [esp+8],ecx
  0040421E: 89 48 0C           mov         dword ptr [eax+0Ch],ecx
  00404221: 83 7C B3 04 00     cmp         dword ptr [ebx+esi*4+4],0
  00404226: 75 12              jne         0040423A
  00404228: 68 01 01 00 00     push        101h
  0040422D: 8B 44 B3 08        mov         eax,dword ptr [ebx+esi*4+8]
  00404231: E8 40 00 00 00     call        00404276
  00404236: FF 54 B3 08        call        dword ptr [ebx+esi*4+8]
  0040423A: EB C3              jmp         004041FF
  0040423C: 64 8F 05 00 00 00  pop         dword ptr fs:[00000000h]
            00
  00404243: 83 C4 0C           add         esp,0Ch
  00404246: 5F                 pop         edi
  00404247: 5E                 pop         esi
  00404248: 5B                 pop         ebx
  00404249: C3                 ret
  0040424A: 33 C0              xor         eax,eax
  0040424C: 64 8B 0D 00 00 00  mov         ecx,dword ptr fs:[00000000h]
            00
  00404253: 81 79 04 C0 41 40  cmp         dword ptr [ecx+4],4041C0h
            00
  0040425A: 75 10              jne         0040426C
  0040425C: 8B 51 0C           mov         edx,dword ptr [ecx+0Ch]
  0040425F: 8B 52 0C           mov         edx,dword ptr [edx+0Ch]
  00404262: 39 51 08           cmp         dword ptr [ecx+8],edx
  00404265: 75 05              jne         0040426C
  00404267: B8 01 00 00 00     mov         eax,1
  0040426C: C3                 ret
  0040426D: 53                 push        ebx
  0040426E: 51                 push        ecx
  0040426F: BB 24 D5 40 00     mov         ebx,40D524h
  00404274: EB 0A              jmp         00404280
  00404276: 53                 push        ebx
  00404277: 51                 push        ecx
  00404278: BB 24 D5 40 00     mov         ebx,40D524h
  0040427D: 8B 4D 08           mov         ecx,dword ptr [ebp+8]
  00404280: 89 4B 08           mov         dword ptr [ebx+8],ecx
  00404283: 89 43 04           mov         dword ptr [ebx+4],eax
  00404286: 89 6B 0C           mov         dword ptr [ebx+0Ch],ebp
  00404289: 59                 pop         ecx
  0040428A: 5B                 pop         ebx
  0040428B: C2 04 00           ret         4
  0040428E: CC                 int         3
  0040428F: CC                 int         3
  00404290: 56                 push        esi
  00404291: 43                 inc         ebx
  00404292: 32 30              xor         dh,byte ptr [eax]
  00404294: 58                 pop         eax
  00404295: 43                 inc         ebx
  00404296: 30 30              xor         byte ptr [eax],dh
  00404298: 55                 push        ebp
  00404299: 8B EC              mov         ebp,esp
  0040429B: 83 EC 08           sub         esp,8
  0040429E: 53                 push        ebx
  0040429F: 56                 push        esi
  004042A0: 57                 push        edi
  004042A1: 55                 push        ebp
  004042A2: FC                 cld
  004042A3: 8B 5D 0C           mov         ebx,dword ptr [ebp+0Ch]
  004042A6: 8B 45 08           mov         eax,dword ptr [ebp+8]
  004042A9: F7 40 04 06 00 00  test        dword ptr [eax+4],6
            00
  004042B0: 0F 85 82 00 00 00  jne         00404338
  004042B6: 89 45 F8           mov         dword ptr [ebp-8],eax
  004042B9: 8B 45 10           mov         eax,dword ptr [ebp+10h]
  004042BC: 89 45 FC           mov         dword ptr [ebp-4],eax
  004042BF: 8D 45 F8           lea         eax,[ebp-8]
  004042C2: 89 43 FC           mov         dword ptr [ebx-4],eax
  004042C5: 8B 73 0C           mov         esi,dword ptr [ebx+0Ch]
  004042C8: 8B 7B 08           mov         edi,dword ptr [ebx+8]
  004042CB: 83 FE FF           cmp         esi,0FFFFFFFFh
  004042CE: 74 61              je          00404331
  004042D0: 8D 0C 76           lea         ecx,[esi+esi*2]
  004042D3: 83 7C 8F 04 00     cmp         dword ptr [edi+ecx*4+4],0
  004042D8: 74 45              je          0040431F
  004042DA: 56                 push        esi
  004042DB: 55                 push        ebp
  004042DC: 8D 6B 10           lea         ebp,[ebx+10h]
  004042DF: FF 54 8F 04        call        dword ptr [edi+ecx*4+4]
  004042E3: 5D                 pop         ebp
  004042E4: 5E                 pop         esi
  004042E5: 8B 5D 0C           mov         ebx,dword ptr [ebp+0Ch]
  004042E8: 0B C0              or          eax,eax
  004042EA: 74 33              je          0040431F
  004042EC: 78 3C              js          0040432A
  004042EE: 8B 7B 08           mov         edi,dword ptr [ebx+8]
  004042F1: 53                 push        ebx
  004042F2: E8 A9 FE FF FF     call        004041A0
  004042F7: 83 C4 04           add         esp,4
  004042FA: 8D 6B 10           lea         ebp,[ebx+10h]
  004042FD: 56                 push        esi
  004042FE: 53                 push        ebx
  004042FF: E8 DE FE FF FF     call        004041E2
  00404304: 83 C4 08           add         esp,8
  00404307: 8D 0C 76           lea         ecx,[esi+esi*2]
  0040430A: 6A 01              push        1
  0040430C: 8B 44 8F 08        mov         eax,dword ptr [edi+ecx*4+8]
  00404310: E8 61 FF FF FF     call        00404276
  00404315: 8B 04 8F           mov         eax,dword ptr [edi+ecx*4]
  00404318: 89 43 0C           mov         dword ptr [ebx+0Ch],eax
  0040431B: FF 54 8F 08        call        dword ptr [edi+ecx*4+8]
  0040431F: 8B 7B 08           mov         edi,dword ptr [ebx+8]
  00404322: 8D 0C 76           lea         ecx,[esi+esi*2]
  00404325: 8B 34 8F           mov         esi,dword ptr [edi+ecx*4]
  00404328: EB A1              jmp         004042CB
  0040432A: B8 00 00 00 00     mov         eax,0
  0040432F: EB 1C              jmp         0040434D
  00404331: B8 01 00 00 00     mov         eax,1
  00404336: EB 15              jmp         0040434D
  00404338: 55                 push        ebp
  00404339: 8D 6B 10           lea         ebp,[ebx+10h]
  0040433C: 6A FF              push        0FFFFFFFFh
  0040433E: 53                 push        ebx
  0040433F: E8 9E FE FF FF     call        004041E2
  00404344: 83 C4 08           add         esp,8
  00404347: 5D                 pop         ebp
  00404348: B8 01 00 00 00     mov         eax,1
  0040434D: 5D                 pop         ebp
  0040434E: 5F                 pop         edi
  0040434F: 5E                 pop         esi
  00404350: 5B                 pop         ebx
  00404351: 8B E5              mov         esp,ebp
  00404353: 5D                 pop         ebp
  00404354: C3                 ret
  00404355: 55                 push        ebp
  00404356: 8B 4C 24 08        mov         ecx,dword ptr [esp+8]
  0040435A: 8B 29              mov         ebp,dword ptr [ecx]
  0040435C: 8B 41 1C           mov         eax,dword ptr [ecx+1Ch]
  0040435F: 50                 push        eax
  00404360: 8B 41 18           mov         eax,dword ptr [ecx+18h]
  00404363: 50                 push        eax
  00404364: E8 79 FE FF FF     call        004041E2
  00404369: 83 C4 08           add         esp,8
  0040436C: 5D                 pop         ebp
  0040436D: C2 04 00           ret         4
  00404370: 55                 push        ebp
  00404371: 8B EC              mov         ebp,esp
  00404373: 57                 push        edi
  00404374: 56                 push        esi
  00404375: 8B 75 0C           mov         esi,dword ptr [ebp+0Ch]
  00404378: 8B 4D 10           mov         ecx,dword ptr [ebp+10h]
  0040437B: 8B 7D 08           mov         edi,dword ptr [ebp+8]
  0040437E: 8B C1              mov         eax,ecx
  00404380: 8B D1              mov         edx,ecx
  00404382: 03 C6              add         eax,esi
  00404384: 3B FE              cmp         edi,esi
  00404386: 76 08              jbe         00404390
  00404388: 3B F8              cmp         edi,eax
  0040438A: 0F 82 78 01 00 00  jb          00404508
  00404390: F7 C7 03 00 00 00  test        edi,3
  00404396: 75 14              jne         004043AC
  00404398: C1 E9 02           shr         ecx,2
  0040439B: 83 E2 03           and         edx,3
  0040439E: 83 F9 08           cmp         ecx,8
  004043A1: 72 29              jb          004043CC
  004043A3: F3 A5              rep movs    dword ptr es:[edi],dword ptr [esi]
  004043A5: FF 24 95 B8 44 40  jmp         dword ptr [edx*4+004044B8h]
            00
  004043AC: 8B C7              mov         eax,edi
  004043AE: BA 03 00 00 00     mov         edx,3
  004043B3: 83 E9 04           sub         ecx,4
  004043B6: 72 0C              jb          004043C4
  004043B8: 83 E0 03           and         eax,3
  004043BB: 03 C8              add         ecx,eax
  004043BD: FF 24 85 D0 43 40  jmp         dword ptr [eax*4+004043D0h]
            00
  004043C4: FF 24 8D C8 44 40  jmp         dword ptr [ecx*4+004044C8h]
            00
  004043CB: 90                 nop
  004043CC: FF 24 8D 4C 44 40  jmp         dword ptr [ecx*4+0040444Ch]
            00
  004043D3: 90                 nop
  004043D4: E0 43              loopne      00404419
  004043D6: 40                 inc         eax
  004043D7: 00 0C 44           add         byte ptr [esp+eax*2],cl
  004043DA: 40                 inc         eax
  004043DB: 00 30              add         byte ptr [eax],dh
  004043DD: 44                 inc         esp
  004043DE: 40                 inc         eax
  004043DF: 00 23              add         byte ptr [ebx],ah
  004043E1: D1 8A 06 88 07 8A  ror         dword ptr [edx+8A078806h],1
  004043E7: 46                 inc         esi
  004043E8: 01 88 47 01 8A 46  add         dword ptr [eax+468A0147h],ecx
  004043EE: 02 C1              add         al,cl
  004043F0: E9 02 88 47 02     jmp         0287CBF7
  004043F5: 83 C6 03           add         esi,3
  004043F8: 83 C7 03           add         edi,3
  004043FB: 83 F9 08           cmp         ecx,8
  004043FE: 72 CC              jb          004043CC
  00404400: F3 A5              rep movs    dword ptr es:[edi],dword ptr [esi]
  00404402: FF 24 95 B8 44 40  jmp         dword ptr [edx*4+004044B8h]
            00
  00404409: 2E 8B C0           mov         eax,eax
  0040440C: 23 D1              and         edx,ecx
  0040440E: 8A 06              mov         al,byte ptr [esi]
  00404410: 88 07              mov         byte ptr [edi],al
  00404412: 8A 46 01           mov         al,byte ptr [esi+1]
  00404415: C1 E9 02           shr         ecx,2
  00404418: 88 47 01           mov         byte ptr [edi+1],al
  0040441B: 83 C6 02           add         esi,2
  0040441E: 83 C7 02           add         edi,2
  00404421: 83 F9 08           cmp         ecx,8
  00404424: 72 A6              jb          004043CC
  00404426: F3 A5              rep movs    dword ptr es:[edi],dword ptr [esi]
  00404428: FF 24 95 B8 44 40  jmp         dword ptr [edx*4+004044B8h]
            00
  0040442F: 90                 nop
  00404430: 23 D1              and         edx,ecx
  00404432: 8A 06              mov         al,byte ptr [esi]
  00404434: 88 07              mov         byte ptr [edi],al
  00404436: 46                 inc         esi
  00404437: C1 E9 02           shr         ecx,2
  0040443A: 47                 inc         edi
  0040443B: 83 F9 08           cmp         ecx,8
  0040443E: 72 8C              jb          004043CC
  00404440: F3 A5              rep movs    dword ptr es:[edi],dword ptr [esi]
  00404442: FF 24 95 B8 44 40  jmp         dword ptr [edx*4+004044B8h]
            00
  00404449: 2E 8B C0           mov         eax,eax
  0040444C: AF                 scas        dword ptr es:[edi]
  0040444D: 44                 inc         esp
  0040444E: 40                 inc         eax
  0040444F: 00 9C 44 40 00 94  add         byte ptr [esp+eax*2+44940040h],bl
            44
  00404456: 40                 inc         eax
  00404457: 00 8C 44 40 00 84  add         byte ptr [esp+eax*2+44840040h],cl
            44
  0040445E: 40                 inc         eax
  0040445F: 00 7C 44 40        add         byte ptr [esp+eax*2+40h],bh
  00404463: 00 74 44 40        add         byte ptr [esp+eax*2+40h],dh
  00404467: 00 6C 44 40        add         byte ptr [esp+eax*2+40h],ch
  0040446B: 00 8B 44 8E E4 89  add         byte ptr [ebx+89E48E44h],cl
  00404471: 44                 inc         esp
  00404472: 8F
  00404473: E4 8B              in          al,8Bh
  00404475: 44                 inc         esp
  00404476: 8E E8              mov         gs,ax
  00404478: 89 44 8F E8        mov         dword ptr [edi+ecx*4-18h],eax
  0040447C: 8B 44 8E EC        mov         eax,dword ptr [esi+ecx*4-14h]
  00404480: 89 44 8F EC        mov         dword ptr [edi+ecx*4-14h],eax
  00404484: 8B 44 8E F0        mov         eax,dword ptr [esi+ecx*4-10h]
  00404488: 89 44 8F F0        mov         dword ptr [edi+ecx*4-10h],eax
  0040448C: 8B 44 8E F4        mov         eax,dword ptr [esi+ecx*4-0Ch]
  00404490: 89 44 8F F4        mov         dword ptr [edi+ecx*4-0Ch],eax
  00404494: 8B 44 8E F8        mov         eax,dword ptr [esi+ecx*4-8]
  00404498: 89 44 8F F8        mov         dword ptr [edi+ecx*4-8],eax
  0040449C: 8B 44 8E FC        mov         eax,dword ptr [esi+ecx*4-4]
  004044A0: 89 44 8F FC        mov         dword ptr [edi+ecx*4-4],eax
  004044A4: 8D 04 8D 00 00 00  lea         eax,[ecx*4+00000000h]
            00
  004044AB: 03 F0              add         esi,eax
  004044AD: 03 F8              add         edi,eax
  004044AF: FF 24 95 B8 44 40  jmp         dword ptr [edx*4+004044B8h]
            00
  004044B6: 8B C0              mov         eax,eax
  004044B8: C8 44 40 00        enter       4044h,0
  004044BC: D0 44 40 00        rol         byte ptr [eax+eax*2],1
  004044C0: DC 44 40 00        fadd        qword ptr [eax+eax*2]
  004044C4: F0 44              lock inc    esp
  004044C6: 40                 inc         eax
  004044C7: 00 8B 45 08 5E 5F  add         byte ptr [ebx+5F5E0845h],cl
  004044CD: C9                 leave
  004044CE: C3                 ret
  004044CF: 90                 nop
  004044D0: 8A 06              mov         al,byte ptr [esi]
  004044D2: 88 07              mov         byte ptr [edi],al
  004044D4: 8B 45 08           mov         eax,dword ptr [ebp+8]
  004044D7: 5E                 pop         esi
  004044D8: 5F                 pop         edi
  004044D9: C9                 leave
  004044DA: C3                 ret
  004044DB: 90                 nop
  004044DC: 8A 06              mov         al,byte ptr [esi]
  004044DE: 88 07              mov         byte ptr [edi],al
  004044E0: 8A 46 01           mov         al,byte ptr [esi+1]
  004044E3: 88 47 01           mov         byte ptr [edi+1],al
  004044E6: 8B 45 08           mov         eax,dword ptr [ebp+8]
  004044E9: 5E                 pop         esi
  004044EA: 5F                 pop         edi
  004044EB: C9                 leave
  004044EC: C3                 ret
  004044ED: 2E 8B C0           mov         eax,eax
  004044F0: 8A 06              mov         al,byte ptr [esi]
  004044F2: 88 07              mov         byte ptr [edi],al
  004044F4: 8A 46 01           mov         al,byte ptr [esi+1]
  004044F7: 88 47 01           mov         byte ptr [edi+1],al
  004044FA: 8A 46 02           mov         al,byte ptr [esi+2]
  004044FD: 88 47 02           mov         byte ptr [edi+2],al
  00404500: 8B 45 08           mov         eax,dword ptr [ebp+8]
  00404503: 5E                 pop         esi
  00404504: 5F                 pop         edi
  00404505: C9                 leave
  00404506: C3                 ret
  00404507: 90                 nop
  00404508: 8D 74 31 FC        lea         esi,[ecx+esi-4]
  0040450C: 8D 7C 39 FC        lea         edi,[ecx+edi-4]
  00404510: F7 C7 03 00 00 00  test        edi,3
  00404516: 75 24              jne         0040453C
  00404518: C1 E9 02           shr         ecx,2
  0040451B: 83 E2 03           and         edx,3
  0040451E: 83 F9 08           cmp         ecx,8
  00404521: 72 0D              jb          00404530
  00404523: FD                 std
  00404524: F3 A5              rep movs    dword ptr es:[edi],dword ptr [esi]
  00404526: FC                 cld
  00404527: FF 24 95 50 46 40  jmp         dword ptr [edx*4+00404650h]
            00
  0040452E: 8B C0              mov         eax,eax
  00404530: F7 D9              neg         ecx
  00404532: FF 24 8D 00 46 40  jmp         dword ptr [ecx*4+00404600h]
            00
  00404539: 2E 8B C0           mov         eax,eax
  0040453C: 8B C7              mov         eax,edi
  0040453E: BA 03 00 00 00     mov         edx,3
  00404543: 83 F9 04           cmp         ecx,4
  00404546: 72 0C              jb          00404554
  00404548: 83 E0 03           and         eax,3
  0040454B: 2B C8              sub         ecx,eax
  0040454D: FF 24 85 58 45 40  jmp         dword ptr [eax*4+00404558h]
            00
  00404554: FF 24 8D 50 46 40  jmp         dword ptr [ecx*4+00404650h]
            00
  0040455B: 90                 nop
  0040455C: 68 45 40 00 88     push        88004045h
  00404561: 45                 inc         ebp
  00404562: 40                 inc         eax
  00404563: 00 B0 45 40 00 8A  add         byte ptr [eax+8A004045h],dh
  00404569: 46                 inc         esi
  0040456A: 03 23              add         esp,dword ptr [ebx]
  0040456C: D1 88 47 03 4E C1  ror         dword ptr [eax+C14E0347h],1
  00404572: E9 02 4F 83 F9     jmp         F9C39479
  00404577: 08 72 B6           or          byte ptr [edx-4Ah],dh
  0040457A: FD                 std
  0040457B: F3 A5              rep movs    dword ptr es:[edi],dword ptr [esi]
  0040457D: FC                 cld
  0040457E: FF 24 95 50 46 40  jmp         dword ptr [edx*4+00404650h]
            00
  00404585: 2E 8B C0           mov         eax,eax
  00404588: 8A 46 03           mov         al,byte ptr [esi+3]
  0040458B: 23 D1              and         edx,ecx
  0040458D: 88 47 03           mov         byte ptr [edi+3],al
  00404590: 8A 46 02           mov         al,byte ptr [esi+2]
  00404593: C1 E9 02           shr         ecx,2
  00404596: 88 47 02           mov         byte ptr [edi+2],al
  00404599: 83 EE 02           sub         esi,2
  0040459C: 83 EF 02           sub         edi,2
  0040459F: 83 F9 08           cmp         ecx,8
  004045A2: 72 8C              jb          00404530
  004045A4: FD                 std
  004045A5: F3 A5              rep movs    dword ptr es:[edi],dword ptr [esi]
  004045A7: FC                 cld
  004045A8: FF 24 95 50 46 40  jmp         dword ptr [edx*4+00404650h]
            00
  004045AF: 90                 nop
  004045B0: 8A 46 03           mov         al,byte ptr [esi+3]
  004045B3: 23 D1              and         edx,ecx
  004045B5: 88 47 03           mov         byte ptr [edi+3],al
  004045B8: 8A 46 02           mov         al,byte ptr [esi+2]
  004045BB: 88 47 02           mov         byte ptr [edi+2],al
  004045BE: 8A 46 01           mov         al,byte ptr [esi+1]
  004045C1: C1 E9 02           shr         ecx,2
  004045C4: 88 47 01           mov         byte ptr [edi+1],al
  004045C7: 83 EE 03           sub         esi,3
  004045CA: 83 EF 03           sub         edi,3
  004045CD: 83 F9 08           cmp         ecx,8
  004045D0: 0F 82 5A FF FF FF  jb          00404530
  004045D6: FD                 std
  004045D7: F3 A5              rep movs    dword ptr es:[edi],dword ptr [esi]
  004045D9: FC                 cld
  004045DA: FF 24 95 50 46 40  jmp         dword ptr [edx*4+00404650h]
            00
  004045E1: 2E 8B C0           mov         eax,eax
  004045E4: 04 46              add         al,46h
  004045E6: 40                 inc         eax
  004045E7: 00 0C 46           add         byte ptr [esi+eax*2],cl
  004045EA: 40                 inc         eax
  004045EB: 00 14 46           add         byte ptr [esi+eax*2],dl
  004045EE: 40                 inc         eax
  004045EF: 00 1C 46           add         byte ptr [esi+eax*2],bl
  004045F2: 40                 inc         eax
  004045F3: 00 24 46           add         byte ptr [esi+eax*2],ah
  004045F6: 40                 inc         eax
  004045F7: 00 2C 46           add         byte ptr [esi+eax*2],ch
  004045FA: 40                 inc         eax
  004045FB: 00 34 46           add         byte ptr [esi+eax*2],dh
  004045FE: 40                 inc         eax
  004045FF: 00 47 46           add         byte ptr [edi+46h],al
  00404602: 40                 inc         eax
  00404603: 00 8B 44 8E 1C 89  add         byte ptr [ebx+891C8E44h],cl
  00404609: 44                 inc         esp
  0040460A: 8F
  0040460B: 1C 8B              sbb         al,8Bh
  0040460D: 44                 inc         esp
  0040460E: 8E 18              mov         ds,word ptr [eax]
  00404610: 89 44 8F 18        mov         dword ptr [edi+ecx*4+18h],eax
  00404614: 8B 44 8E 14        mov         eax,dword ptr [esi+ecx*4+14h]
  00404618: 89 44 8F 14        mov         dword ptr [edi+ecx*4+14h],eax
  0040461C: 8B 44 8E 10        mov         eax,dword ptr [esi+ecx*4+10h]
  00404620: 89 44 8F 10        mov         dword ptr [edi+ecx*4+10h],eax
  00404624: 8B 44 8E 0C        mov         eax,dword ptr [esi+ecx*4+0Ch]
  00404628: 89 44 8F 0C        mov         dword ptr [edi+ecx*4+0Ch],eax
  0040462C: 8B 44 8E 08        mov         eax,dword ptr [esi+ecx*4+8]
  00404630: 89 44 8F 08        mov         dword ptr [edi+ecx*4+8],eax
  00404634: 8B 44 8E 04        mov         eax,dword ptr [esi+ecx*4+4]
  00404638: 89 44 8F 04        mov         dword ptr [edi+ecx*4+4],eax
  0040463C: 8D 04 8D 00 00 00  lea         eax,[ecx*4+00000000h]
            00
  00404643: 03 F0              add         esi,eax
  00404645: 03 F8              add         edi,eax
  00404647: FF 24 95 50 46 40  jmp         dword ptr [edx*4+00404650h]
            00
  0040464E: 8B C0              mov         eax,eax
  00404650: 60                 pushad
  00404651: 46                 inc         esi
  00404652: 40                 inc         eax
  00404653: 00 68 46           add         byte ptr [eax+46h],ch
  00404656: 40                 inc         eax
  00404657: 00 78 46           add         byte ptr [eax+46h],bh
  0040465A: 40                 inc         eax
  0040465B: 00 8C 46 40 00 8B  add         byte ptr [esi+eax*2+458B0040h],cl
            45
  00404662: 08 5E 5F           or          byte ptr [esi+5Fh],bl
  00404665: C9                 leave
  00404666: C3                 ret
  00404667: 90                 nop
  00404668: 8A 46 03           mov         al,byte ptr [esi+3]
  0040466B: 88 47 03           mov         byte ptr [edi+3],al
  0040466E: 8B 45 08           mov         eax,dword ptr [ebp+8]
  00404671: 5E                 pop         esi
  00404672: 5F                 pop         edi
  00404673: C9                 leave
  00404674: C3                 ret
  00404675: 2E 8B C0           mov         eax,eax
  00404678: 8A 46 03           mov         al,byte ptr [esi+3]
  0040467B: 88 47 03           mov         byte ptr [edi+3],al
  0040467E: 8A 46 02           mov         al,byte ptr [esi+2]
  00404681: 88 47 02           mov         byte ptr [edi+2],al
  00404684: 8B 45 08           mov         eax,dword ptr [ebp+8]
  00404687: 5E                 pop         esi
  00404688: 5F                 pop         edi
  00404689: C9                 leave
  0040468A: C3                 ret
  0040468B: 90                 nop
  0040468C: 8A 46 03           mov         al,byte ptr [esi+3]
  0040468F: 88 47 03           mov         byte ptr [edi+3],al
  00404692: 8A 46 02           mov         al,byte ptr [esi+2]
  00404695: 88 47 02           mov         byte ptr [edi+2],al
  00404698: 8A 46 01           mov         al,byte ptr [esi+1]
  0040469B: 88 47 01           mov         byte ptr [edi+1],al
  0040469E: 8B 45 08           mov         eax,dword ptr [ebp+8]
  004046A1: 5E                 pop         esi
  004046A2: 5F                 pop         edi
  004046A3: C9                 leave
  004046A4: C3                 ret
  004046A5: CC                 int         3
  004046A6: CC                 int         3
  004046A7: CC                 int         3
  004046A8: CC                 int         3
  004046A9: CC                 int         3
  004046AA: CC                 int         3
  004046AB: CC                 int         3
  004046AC: CC                 int         3
  004046AD: CC                 int         3
  004046AE: CC                 int         3
  004046AF: CC                 int         3
  004046B0: 8B 4C 24 08        mov         ecx,dword ptr [esp+8]
  004046B4: 57                 push        edi
  004046B5: 53                 push        ebx
  004046B6: 56                 push        esi
  004046B7: 8A 11              mov         dl,byte ptr [ecx]
  004046B9: 8B 7C 24 10        mov         edi,dword ptr [esp+10h]
  004046BD: 84 D2              test        dl,dl
  004046BF: 74 69              je          0040472A
  004046C1: 8A 71 01           mov         dh,byte ptr [ecx+1]
  004046C4: 84 F6              test        dh,dh
  004046C6: 74 4F              je          00404717
  004046C8: 8B F7              mov         esi,edi
  004046CA: 8B 4C 24 14        mov         ecx,dword ptr [esp+14h]
  004046CE: 8A 07              mov         al,byte ptr [edi]
  004046D0: 46                 inc         esi
  004046D1: 38 D0              cmp         al,dl
  004046D3: 74 15              je          004046EA
  004046D5: 84 C0              test        al,al
  004046D7: 74 0B              je          004046E4
  004046D9: 8A 06              mov         al,byte ptr [esi]
  004046DB: 46                 inc         esi
  004046DC: 38 D0              cmp         al,dl
  004046DE: 74 0A              je          004046EA
  004046E0: 84 C0              test        al,al
  004046E2: 75 F5              jne         004046D9
  004046E4: 5E                 pop         esi
  004046E5: 5B                 pop         ebx
  004046E6: 5F                 pop         edi
  004046E7: 33 C0              xor         eax,eax
  004046E9: C3                 ret
  004046EA: 8A 06              mov         al,byte ptr [esi]
  004046EC: 46                 inc         esi
  004046ED: 38 F0              cmp         al,dh
  004046EF: 75 EB              jne         004046DC
  004046F1: 8D 7E FF           lea         edi,[esi-1]
  004046F4: 8A 61 02           mov         ah,byte ptr [ecx+2]
  004046F7: 84 E4              test        ah,ah
  004046F9: 74 28              je          00404723
  004046FB: 8A 06              mov         al,byte ptr [esi]
  004046FD: 83 C6 02           add         esi,2
  00404700: 38 E0              cmp         al,ah
  00404702: 75 C4              jne         004046C8
  00404704: 8A 41 03           mov         al,byte ptr [ecx+3]
  00404707: 84 C0              test        al,al
  00404709: 74 18              je          00404723
  0040470B: 8A 66 FF           mov         ah,byte ptr [esi-1]
  0040470E: 83 C1 02           add         ecx,2
  00404711: 38 E0              cmp         al,ah
  00404713: 74 DF              je          004046F4
  00404715: EB B1              jmp         004046C8
  00404717: 33 C0              xor         eax,eax
  00404719: 5E                 pop         esi
  0040471A: 5B                 pop         ebx
  0040471B: 5F                 pop         edi
  0040471C: 8A C2              mov         al,dl
  0040471E: E9 33 22 00 00     jmp         00406956
  00404723: 8D 47 FF           lea         eax,[edi-1]
  00404726: 5E                 pop         esi
  00404727: 5B                 pop         ebx
  00404728: 5F                 pop         edi
  00404729: C3                 ret
  0040472A: 8B C7              mov         eax,edi
  0040472C: 5E                 pop         esi
  0040472D: 5B                 pop         ebx
  0040472E: 5F                 pop         edi
  0040472F: C3                 ret
  00404730: 8B 4C 24 0C        mov         ecx,dword ptr [esp+0Ch]
  00404734: 57                 push        edi
  00404735: 85 C9              test        ecx,ecx
  00404737: 74 7A              je          004047B3
  00404739: 56                 push        esi
  0040473A: 53                 push        ebx
  0040473B: 8B D9              mov         ebx,ecx
  0040473D: 8B 74 24 14        mov         esi,dword ptr [esp+14h]
  00404741: F7 C6 03 00 00 00  test        esi,3
  00404747: 8B 7C 24 10        mov         edi,dword ptr [esp+10h]
  0040474B: 75 07              jne         00404754
  0040474D: C1 E9 02           shr         ecx,2
  00404750: 75 6F              jne         004047C1
  00404752: EB 21              jmp         00404775
  00404754: 8A 06              mov         al,byte ptr [esi]
  00404756: 46                 inc         esi
  00404757: 88 07              mov         byte ptr [edi],al
  00404759: 47                 inc         edi
  0040475A: 49                 dec         ecx
  0040475B: 74 25              je          00404782
  0040475D: 84 C0              test        al,al
  0040475F: 74 29              je          0040478A
  00404761: F7 C6 03 00 00 00  test        esi,3
  00404767: 75 EB              jne         00404754
  00404769: 8B D9              mov         ebx,ecx
  0040476B: C1 E9 02           shr         ecx,2
  0040476E: 75 51              jne         004047C1
  00404770: 83 E3 03           and         ebx,3
  00404773: 74 0D              je          00404782
  00404775: 8A 06              mov         al,byte ptr [esi]
  00404777: 46                 inc         esi
  00404778: 88 07              mov         byte ptr [edi],al
  0040477A: 47                 inc         edi
  0040477B: 84 C0              test        al,al
  0040477D: 74 2F              je          004047AE
  0040477F: 4B                 dec         ebx
  00404780: 75 F3              jne         00404775
  00404782: 8B 44 24 10        mov         eax,dword ptr [esp+10h]
  00404786: 5B                 pop         ebx
  00404787: 5E                 pop         esi
  00404788: 5F                 pop         edi
  00404789: C3                 ret
  0040478A: F7 C7 03 00 00 00  test        edi,3
  00404790: 74 12              je          004047A4
  00404792: 88 07              mov         byte ptr [edi],al
  00404794: 47                 inc         edi
  00404795: 49                 dec         ecx
  00404796: 0F 84 8A 00 00 00  je          00404826
  0040479C: F7 C7 03 00 00 00  test        edi,3
  004047A2: 75 EE              jne         00404792
  004047A4: 8B D9              mov         ebx,ecx
  004047A6: C1 E9 02           shr         ecx,2
  004047A9: 75 6C              jne         00404817
  004047AB: 88 07              mov         byte ptr [edi],al
  004047AD: 47                 inc         edi
  004047AE: 4B                 dec         ebx
  004047AF: 75 FA              jne         004047AB
  004047B1: 5B                 pop         ebx
  004047B2: 5E                 pop         esi
  004047B3: 8B 44 24 08        mov         eax,dword ptr [esp+8]
  004047B7: 5F                 pop         edi
  004047B8: C3                 ret
  004047B9: 89 17              mov         dword ptr [edi],edx
  004047BB: 83 C7 04           add         edi,4
  004047BE: 49                 dec         ecx
  004047BF: 74 AF              je          00404770
  004047C1: BA FF FE FE 7E     mov         edx,7EFEFEFFh
  004047C6: 8B 06              mov         eax,dword ptr [esi]
  004047C8: 03 D0              add         edx,eax
  004047CA: 83 F0 FF           xor         eax,0FFFFFFFFh
  004047CD: 33 C2              xor         eax,edx
  004047CF: 8B 16              mov         edx,dword ptr [esi]
  004047D1: 83 C6 04           add         esi,4
  004047D4: A9 00 01 01 81     test        eax,81010100h
  004047D9: 74 DE              je          004047B9
  004047DB: 84 D2              test        dl,dl
  004047DD: 74 2C              je          0040480B
  004047DF: 84 F6              test        dh,dh
  004047E1: 74 1E              je          00404801
  004047E3: F7 C2 00 00 FF 00  test        edx,0FF0000h
  004047E9: 74 0C              je          004047F7
  004047EB: F7 C2 00 00 00 FF  test        edx,0FF000000h
  004047F1: 75 C6              jne         004047B9
  004047F3: 89 17              mov         dword ptr [edi],edx
  004047F5: EB 18              jmp         0040480F
  004047F7: 81 E2 FF FF 00 00  and         edx,0FFFFh
  004047FD: 89 17              mov         dword ptr [edi],edx
  004047FF: EB 0E              jmp         0040480F
  00404801: 81 E2 FF 00 00 00  and         edx,0FFh
  00404807: 89 17              mov         dword ptr [edi],edx
  00404809: EB 04              jmp         0040480F
  0040480B: 33 D2              xor         edx,edx
  0040480D: 89 17              mov         dword ptr [edi],edx
  0040480F: 83 C7 04           add         edi,4
  00404812: 33 C0              xor         eax,eax
  00404814: 49                 dec         ecx
  00404815: 74 0A              je          00404821
  00404817: 33 C0              xor         eax,eax
  00404819: 89 07              mov         dword ptr [edi],eax
  0040481B: 83 C7 04           add         edi,4
  0040481E: 49                 dec         ecx
  0040481F: 75 F8              jne         00404819
  00404821: 83 E3 03           and         ebx,3
  00404824: 75 85              jne         004047AB
  00404826: 8B 44 24 10        mov         eax,dword ptr [esp+10h]
  0040482A: 5B                 pop         ebx
  0040482B: 5E                 pop         esi
  0040482C: 5F                 pop         edi
  0040482D: C3                 ret
  0040482E: CC                 int         3
  0040482F: CC                 int         3
  00404830: 55                 push        ebp
  00404831: 8B EC              mov         ebp,esp
  00404833: 57                 push        edi
  00404834: 56                 push        esi
  00404835: 53                 push        ebx
  00404836: 8B 4D 10           mov         ecx,dword ptr [ebp+10h]
  00404839: E3 26              jecxz       00404861
  0040483B: 8B D9              mov         ebx,ecx
  0040483D: 8B 7D 08           mov         edi,dword ptr [ebp+8]
  00404840: 8B F7              mov         esi,edi
  00404842: 33 C0              xor         eax,eax
  00404844: F2 AE              repne scas  byte ptr es:[edi]
  00404846: F7 D9              neg         ecx
  00404848: 03 CB              add         ecx,ebx
  0040484A: 8B FE              mov         edi,esi
  0040484C: 8B 75 0C           mov         esi,dword ptr [ebp+0Ch]
  0040484F: F3 A6              repe cmps   byte ptr [esi],byte ptr es:[edi]
  00404851: 8A 46 FF           mov         al,byte ptr [esi-1]
  00404854: 33 C9              xor         ecx,ecx
  00404856: 3A 47 FF           cmp         al,byte ptr [edi-1]
  00404859: 77 04              ja          0040485F
  0040485B: 74 04              je          00404861
  0040485D: 49                 dec         ecx
  0040485E: 49                 dec         ecx
  0040485F: F7 D1              not         ecx
  00404861: 8B C1              mov         eax,ecx
  00404863: 5B                 pop         ebx
  00404864: 5E                 pop         esi
  00404865: 5F                 pop         edi
  00404866: C9                 leave
  00404867: C3                 ret
  00404868: CC                 int         3
  00404869: CC                 int         3
  0040486A: CC                 int         3
  0040486B: CC                 int         3
  0040486C: CC                 int         3
  0040486D: CC                 int         3
  0040486E: CC                 int         3
  0040486F: CC                 int         3
  00404870: E8 EB 1B 00 00     call        00406460
  00404875: 8B 4C 24 04        mov         ecx,dword ptr [esp+4]
  00404879: 89 48 14           mov         dword ptr [eax+14h],ecx
  0040487C: C3                 ret
  0040487D: 90                 nop
  0040487E: 90                 nop
  0040487F: 90                 nop
  00404880: E8 DB 1B 00 00     call        00406460
  00404885: 8B 48 14           mov         ecx,dword ptr [eax+14h]
  00404888: 8D 14 49           lea         edx,[ecx+ecx*2]
  0040488B: 8D 14 91           lea         edx,[ecx+edx*4]
  0040488E: C1 E2 04           shl         edx,4
  00404891: 03 D1              add         edx,ecx
  00404893: C1 E2 08           shl         edx,8
  00404896: 2B D1              sub         edx,ecx
  00404898: 8D 8C 91 C3 9E 26  lea         ecx,[ecx+edx*4+00269EC3h]
            00
  0040489F: 89 48 14           mov         dword ptr [eax+14h],ecx
  004048A2: 8B C1              mov         eax,ecx
  004048A4: C1 E8 10           shr         eax,10h
  004048A7: 25 FF 7F 00 00     and         eax,7FFFh
  004048AC: C3                 ret
  004048AD: 90                 nop
  004048AE: 90                 nop
  004048AF: 90                 nop
  004048B0: 81 EC CC 00 00 00  sub         esp,0CCh
  004048B6: 8D 44 24 10        lea         eax,[esp+10h]
  004048BA: 50                 push        eax
  004048BB: FF 15 00 34 41 00  call        dword ptr ds:[00413400h]
  004048C1: 8D 4C 24 00        lea         ecx,[esp]
  004048C5: 51                 push        ecx
  004048C6: FF 15 F8 33 41 00  call        dword ptr ds:[004133F8h]
  004048CC: 66 8B 54 24 0A     mov         dx,word ptr [esp+0Ah]
  004048D1: 66 3B 15 BA 0C 41  cmp         dx,word ptr ds:[00410CBAh]
            00
  004048D8: 75 3F              jne         00404919
  004048DA: 66 8B 44 24 08     mov         ax,word ptr [esp+8]
  004048DF: 66 3B 05 B8 0C 41  cmp         ax,word ptr ds:[00410CB8h]
            00
  004048E6: 75 31              jne         00404919
  004048E8: 66 8B 4C 24 06     mov         cx,word ptr [esp+6]
  004048ED: 66 3B 0D B6 0C 41  cmp         cx,word ptr ds:[00410CB6h]
            00
  004048F4: 75 23              jne         00404919
  004048F6: 66 8B 54 24 02     mov         dx,word ptr [esp+2]
  004048FB: 66 3B 15 B2 0C 41  cmp         dx,word ptr ds:[00410CB2h]
            00
  00404902: 75 15              jne         00404919
  00404904: 66 8B 44 24 00     mov         ax,word ptr [esp]
  00404909: 66 3B 05 B0 0C 41  cmp         ax,word ptr ds:[00410CB0h]
            00
  00404910: 75 07              jne         00404919
  00404912: A1 A8 0C 41 00     mov         eax,dword ptr ds:[00410CA8h]
  00404917: EB 66              jmp         0040497F
  00404919: 8D 4C 24 20        lea         ecx,[esp+20h]
  0040491D: 51                 push        ecx
  0040491E: FF 15 FC 33 41 00  call        dword ptr ds:[004133FCh]
  00404924: 83 F8 FF           cmp         eax,0FFFFFFFFh
  00404927: 74 26              je          0040494F
  00404929: 83 F8 02           cmp         eax,2
  0040492C: 75 1D              jne         0040494B
  0040492E: 66 83 BC 24 BA 00  cmp         word ptr [esp+000000BAh],0
            00 00 00
  00404937: 74 12              je          0040494B
  00404939: 8B 84 24 C8 00 00  mov         eax,dword ptr [esp+000000C8h]
            00
  00404940: 85 C0              test        eax,eax
  00404942: 74 07              je          0040494B
  00404944: B8 01 00 00 00     mov         eax,1
  00404949: EB 07              jmp         00404952
  0040494B: 33 C0              xor         eax,eax
  0040494D: EB 03              jmp         00404952
  0040494F: 83 C8 FF           or          eax,0FFFFFFFFh
  00404952: 8B 54 24 00        mov         edx,dword ptr [esp]
  00404956: 8B 4C 24 04        mov         ecx,dword ptr [esp+4]
  0040495A: 89 15 B0 0C 41 00  mov         dword ptr ds:[00410CB0h],edx
  00404960: 8B 54 24 08        mov         edx,dword ptr [esp+8]
  00404964: 89 0D B4 0C 41 00  mov         dword ptr ds:[00410CB4h],ecx
  0040496A: 8B 4C 24 0C        mov         ecx,dword ptr [esp+0Ch]
  0040496E: A3 A8 0C 41 00     mov         dword ptr ds:[00410CA8h],eax
  00404973: 89 15 B8 0C 41 00  mov         dword ptr ds:[00410CB8h],edx
  00404979: 89 0D BC 0C 41 00  mov         dword ptr ds:[00410CBCh],ecx
  0040497F: 8B 54 24 1C        mov         edx,dword ptr [esp+1Ch]
  00404983: 8B 4C 24 18        mov         ecx,dword ptr [esp+18h]
  00404987: 50                 push        eax
  00404988: 8B 44 24 1E        mov         eax,dword ptr [esp+1Eh]
  0040498C: 81 E2 FF FF 00 00  and         edx,0FFFFh
  00404992: 25 FF FF 00 00     and         eax,0FFFFh
  00404997: 52                 push        edx
  00404998: 8B 54 24 1E        mov         edx,dword ptr [esp+1Eh]
  0040499C: 81 E1 FF FF 00 00  and         ecx,0FFFFh
  004049A2: 50                 push        eax
  004049A3: 8B 44 24 1E        mov         eax,dword ptr [esp+1Eh]
  004049A7: 51                 push        ecx
  004049A8: 8B 4C 24 20        mov         ecx,dword ptr [esp+20h]
  004049AC: 81 E2 FF FF 00 00  and         edx,0FFFFh
  004049B2: 25 FF FF 00 00     and         eax,0FFFFh
  004049B7: 52                 push        edx
  004049B8: 81 E1 FF FF 00 00  and         ecx,0FFFFh
  004049BE: 50                 push        eax
  004049BF: 51                 push        ecx
  004049C0: E8 4B 20 00 00     call        00406A10
  004049C5: 8B 8C 24 EC 00 00  mov         ecx,dword ptr [esp+000000ECh]
            00
  004049CC: 83 C4 1C           add         esp,1Ch
  004049CF: 85 C9              test        ecx,ecx
  004049D1: 74 02              je          004049D5
  004049D3: 89 01              mov         dword ptr [ecx],eax
  004049D5: 81 C4 CC 00 00 00  add         esp,0CCh
  004049DB: C3                 ret
  004049DC: 90                 nop
  004049DD: 90                 nop
  004049DE: 90                 nop
  004049DF: 90                 nop
  004049E0: 53                 push        ebx
  004049E1: 55                 push        ebp
  004049E2: 56                 push        esi
  004049E3: 57                 push        edi
  004049E4: 8B 7C 24 14        mov         edi,dword ptr [esp+14h]
  004049E8: 83 3D CC FC 40 00  cmp         dword ptr ds:[0040FCCCh],1
            01
  004049EF: 7E 11              jle         00404A02
  004049F1: 33 C0              xor         eax,eax
  004049F3: 6A 08              push        8
  004049F5: 8A 07              mov         al,byte ptr [edi]
  004049F7: 50                 push        eax
  004049F8: E8 03 21 00 00     call        00406B00
  004049FD: 83 C4 08           add         esp,8
  00404A00: EB 10              jmp         00404A12
  00404A02: 8B 15 C0 FA 40 00  mov         edx,dword ptr ds:[0040FAC0h]
  00404A08: 33 C9              xor         ecx,ecx
  00404A0A: 8A 0F              mov         cl,byte ptr [edi]
  00404A0C: 8A 04 4A           mov         al,byte ptr [edx+ecx*2]
  00404A0F: 83 E0 08           and         eax,8
  00404A12: 85 C0              test        eax,eax
  00404A14: 74 03              je          00404A19
  00404A16: 47                 inc         edi
  00404A17: EB CF              jmp         004049E8
  00404A19: 33 C0              xor         eax,eax
  00404A1B: 8A 07              mov         al,byte ptr [edi]
  00404A1D: 47                 inc         edi
  00404A1E: 8B F0              mov         esi,eax
  00404A20: 83 FE 2D           cmp         esi,2Dh
  00404A23: 8B EE              mov         ebp,esi
  00404A25: 74 05              je          00404A2C
  00404A27: 83 FE 2B           cmp         esi,2Bh
  00404A2A: 75 07              jne         00404A33
  00404A2C: 33 C9              xor         ecx,ecx
  00404A2E: 8A 0F              mov         cl,byte ptr [edi]
  00404A30: 47                 inc         edi
  00404A31: 8B F1              mov         esi,ecx
  00404A33: 33 DB              xor         ebx,ebx
  00404A35: 83 3D CC FC 40 00  cmp         dword ptr ds:[0040FCCCh],1
            01
  00404A3C: 7E 0D              jle         00404A4B
  00404A3E: 6A 04              push        4
  00404A40: 56                 push        esi
  00404A41: E8 BA 20 00 00     call        00406B00
  00404A46: 83 C4 08           add         esp,8
  00404A49: EB 0C              jmp         00404A57
  00404A4B: 8B 15 C0 FA 40 00  mov         edx,dword ptr ds:[0040FAC0h]
  00404A51: 8A 04 72           mov         al,byte ptr [edx+esi*2]
  00404A54: 83 E0 04           and         eax,4
  00404A57: 85 C0              test        eax,eax
  00404A59: 74 10              je          00404A6B
  00404A5B: 8D 04 9B           lea         eax,[ebx+ebx*4]
  00404A5E: 33 C9              xor         ecx,ecx
  00404A60: 8A 0F              mov         cl,byte ptr [edi]
  00404A62: 47                 inc         edi
  00404A63: 8D 5C 46 D0        lea         ebx,[esi+eax*2-30h]
  00404A67: 8B F1              mov         esi,ecx
  00404A69: EB CA              jmp         00404A35
  00404A6B: 83 FD 2D           cmp         ebp,2Dh
  00404A6E: 8B C3              mov         eax,ebx
  00404A70: 75 02              jne         00404A74
  00404A72: F7 D8              neg         eax
  00404A74: 5F                 pop         edi
  00404A75: 5E                 pop         esi
  00404A76: 5D                 pop         ebp
  00404A77: 5B                 pop         ebx
  00404A78: C3                 ret
  00404A79: 90                 nop
  00404A7A: 90                 nop
  00404A7B: 90                 nop
  00404A7C: 90                 nop
  00404A7D: 90                 nop
  00404A7E: 90                 nop
  00404A7F: 90                 nop
  00404A80: 8B 44 24 04        mov         eax,dword ptr [esp+4]
  00404A84: 50                 push        eax
  00404A85: E8 56 FF FF FF     call        004049E0
  00404A8A: 83 C4 04           add         esp,4
  00404A8D: C3                 ret
  00404A8E: 90                 nop
  00404A8F: 90                 nop
  00404A90: 55                 push        ebp
  00404A91: 8B EC              mov         ebp,esp
  00404A93: 6A FF              push        0FFFFFFFFh
  00404A95: 68 30 C0 40 00     push        40C030h
  00404A9A: 68 98 42 40 00     push        404298h
  00404A9F: 64 A1 00 00 00 00  mov         eax,dword ptr fs:[00000000h]
  00404AA5: 50                 push        eax
  00404AA6: 64 89 25 00 00 00  mov         dword ptr fs:[00000000h],esp
            00
  00404AAD: 83 C4 A8           add         esp,0FFFFFFA8h
  00404AB0: 53                 push        ebx
  00404AB1: 56                 push        esi
  00404AB2: 57                 push        edi
  00404AB3: 89 65 E8           mov         dword ptr [ebp-18h],esp
  00404AB6: FF 15 D8 33 41 00  call        dword ptr ds:[004133D8h]
  00404ABC: 33 D2              xor         edx,edx
  00404ABE: 8A D4              mov         dl,ah
  00404AC0: 89 15 5C 0D 41 00  mov         dword ptr ds:[00410D5Ch],edx
  00404AC6: 8B C8              mov         ecx,eax
  00404AC8: 81 E1 FF 00 00 00  and         ecx,0FFh
  00404ACE: 89 0D 58 0D 41 00  mov         dword ptr ds:[00410D58h],ecx
  00404AD4: C1 E1 08           shl         ecx,8
  00404AD7: 03 CA              add         ecx,edx
  00404AD9: 89 0D 54 0D 41 00  mov         dword ptr ds:[00410D54h],ecx
  00404ADF: C1 E8 10           shr         eax,10h
  00404AE2: A3 50 0D 41 00     mov         dword ptr ds:[00410D50h],eax
  00404AE7: E8 94 0D 00 00     call        00405880
  00404AEC: 85 C0              test        eax,eax
  00404AEE: 75 0A              jne         00404AFA
  00404AF0: 6A 1C              push        1Ch
  00404AF2: E8 49 01 00 00     call        00404C40
  00404AF7: 83 C4 04           add         esp,4
  00404AFA: E8 E1 18 00 00     call        004063E0
  00404AFF: 85 C0              test        eax,eax
  00404B01: 75 0A              jne         00404B0D
  00404B03: 6A 10              push        10h
  00404B05: E8 36 01 00 00     call        00404C40
  00404B0A: 83 C4 04           add         esp,4
  00404B0D: C7 45 FC 00 00 00  mov         dword ptr [ebp-4],0
            00
  00404B14: E8 37 29 00 00     call        00407450
  00404B19: E8 22 29 00 00     call        00407440
  00404B1E: FF 15 DC 33 41 00  call        dword ptr ds:[004133DCh]
  00404B24: A3 88 22 41 00     mov         dword ptr ds:[00412288h],eax
  00404B29: E8 B2 24 00 00     call        00406FE0
  00404B2E: A3 C0 0C 41 00     mov         dword ptr ds:[00410CC0h],eax
  00404B33: 85 C0              test        eax,eax
  00404B35: 74 09              je          00404B40
  00404B37: A1 88 22 41 00     mov         eax,dword ptr ds:[00412288h]
  00404B3C: 85 C0              test        eax,eax
  00404B3E: 75 0A              jne         00404B4A
  00404B40: 6A FF              push        0FFFFFFFFh
  00404B42: E8 69 1A 00 00     call        004065B0
  00404B47: 83 C4 04           add         esp,4
  00404B4A: E8 E1 21 00 00     call        00406D30
  00404B4F: E8 EC 20 00 00     call        00406C40
  00404B54: E8 27 1A 00 00     call        00406580
  00404B59: 8B 35 88 22 41 00  mov         esi,dword ptr ds:[00412288h]
  00404B5F: 89 75 9C           mov         dword ptr [ebp-64h],esi
  00404B62: 80 3E 22           cmp         byte ptr [esi],22h
  00404B65: 0F 85 BE 00 00 00  jne         00404C29
  00404B6B: 46                 inc         esi
  00404B6C: 89 75 9C           mov         dword ptr [ebp-64h],esi
  00404B6F: 8A 06              mov         al,byte ptr [esi]
  00404B71: 3C 22              cmp         al,22h
  00404B73: 74 1C              je          00404B91
  00404B75: 84 C0              test        al,al
  00404B77: 74 18              je          00404B91
  00404B79: 25 FF 00 00 00     and         eax,0FFh
  00404B7E: 50                 push        eax
  00404B7F: E8 5C 20 00 00     call        00406BE0
  00404B84: 83 C4 04           add         esp,4
  00404B87: 85 C0              test        eax,eax
  00404B89: 74 E0              je          00404B6B
  00404B8B: 46                 inc         esi
  00404B8C: 89 75 9C           mov         dword ptr [ebp-64h],esi
  00404B8F: EB DA              jmp         00404B6B
  00404B91: 80 3E 22           cmp         byte ptr [esi],22h
  00404B94: 75 04              jne         00404B9A
  00404B96: 46                 inc         esi
  00404B97: 89 75 9C           mov         dword ptr [ebp-64h],esi
  00404B9A: 8A 06              mov         al,byte ptr [esi]
  00404B9C: 84 C0              test        al,al
  00404B9E: 74 0A              je          00404BAA
  00404BA0: 3C 20              cmp         al,20h
  00404BA2: 77 06              ja          00404BAA
  00404BA4: 46                 inc         esi
  00404BA5: 89 75 9C           mov         dword ptr [ebp-64h],esi
  00404BA8: EB F0              jmp         00404B9A
  00404BAA: C7 45 D0 00 00 00  mov         dword ptr [ebp-30h],0
            00
  00404BB1: 8D 45 A4           lea         eax,[ebp-5Ch]
  00404BB4: 50                 push        eax
  00404BB5: FF 15 E0 33 41 00  call        dword ptr ds:[004133E0h]
  00404BBB: F6 45 D0 01        test        byte ptr [ebp-30h],1
  00404BBF: 74 0A              je          00404BCB
  00404BC1: 8B 45 D4           mov         eax,dword ptr [ebp-2Ch]
  00404BC4: 25 FF FF 00 00     and         eax,0FFFFh
  00404BC9: EB 05              jmp         00404BD0
  00404BCB: B8 0A 00 00 00     mov         eax,0Ah
  00404BD0: 50                 push        eax
  00404BD1: 56                 push        esi
  00404BD2: 6A 00              push        0
  00404BD4: 6A 00              push        0
  00404BD6: FF 15 E4 33 41 00  call        dword ptr ds:[004133E4h]
  00404BDC: 50                 push        eax
  00404BDD: E8 CE CE FF FF     call        00401AB0
  00404BE2: 89 45 A0           mov         dword ptr [ebp-60h],eax
  00404BE5: 50                 push        eax
  00404BE6: E8 C5 19 00 00     call        004065B0
  00404BEB: EB 21              jmp         00404C0E
  00404BED: 8B 45 EC           mov         eax,dword ptr [ebp-14h]
  00404BF0: 8B 08              mov         ecx,dword ptr [eax]
  00404BF2: 8B 09              mov         ecx,dword ptr [ecx]
  00404BF4: 89 4D 98           mov         dword ptr [ebp-68h],ecx
  00404BF7: 50                 push        eax
  00404BF8: 51                 push        ecx
  00404BF9: E8 F2 1A 00 00     call        004066F0
  00404BFE: 83 C4 08           add         esp,8
  00404C01: C3                 ret
  00404C02: 8B 65 E8           mov         esp,dword ptr [ebp-18h]
  00404C05: 8B 55 98           mov         edx,dword ptr [ebp-68h]
  00404C08: 52                 push        edx
  00404C09: E8 C2 19 00 00     call        004065D0
  00404C0E: 83 C4 04           add         esp,4
  00404C11: C7 45 FC FF FF FF  mov         dword ptr [ebp-4],0FFFFFFFFh
            FF
  00404C18: 8B 4D F0           mov         ecx,dword ptr [ebp-10h]
  00404C1B: 64 89 0D 00 00 00  mov         dword ptr fs:[00000000h],ecx
            00
  00404C22: 5F                 pop         edi
  00404C23: 5E                 pop         esi
  00404C24: 5B                 pop         ebx
  00404C25: 8B E5              mov         esp,ebp
  00404C27: 5D                 pop         ebp
  00404C28: C3                 ret
  00404C29: 80 3E 20           cmp         byte ptr [esi],20h
  00404C2C: 0F 86 68 FF FF FF  jbe         00404B9A
  00404C32: 46                 inc         esi
  00404C33: 89 75 9C           mov         dword ptr [ebp-64h],esi
  00404C36: EB F1              jmp         00404C29
  00404C38: 90                 nop
  00404C39: 90                 nop
  00404C3A: 90                 nop
  00404C3B: 90                 nop
  00404C3C: 90                 nop
  00404C3D: 90                 nop
  00404C3E: 90                 nop
  00404C3F: 90                 nop
  00404C40: 83 3D C8 0C 41 00  cmp         dword ptr ds:[00410CC8h],1
            01
  00404C47: 75 05              jne         00404C4E
  00404C49: E8 12 2A 00 00     call        00407660
  00404C4E: 8B 44 24 04        mov         eax,dword ptr [esp+4]
  00404C52: 50                 push        eax
  00404C53: E8 48 2A 00 00     call        004076A0
  00404C58: 83 C4 04           add         esp,4
  00404C5B: 68 FF 00 00 00     push        0FFh
  00404C60: FF 15 40 D5 40 00  call        dword ptr ds:[0040D540h]
  00404C66: 83 C4 04           add         esp,4
  00404C69: C3                 ret
  00404C6A: 90                 nop
  00404C6B: 90                 nop
  00404C6C: 90                 nop
  00404C6D: 90                 nop
  00404C6E: 90                 nop
  00404C6F: 90                 nop
  00404C70: 53                 push        ebx
  00404C71: 55                 push        ebp
  00404C72: 56                 push        esi
  00404C73: 8B 74 24 14        mov         esi,dword ptr [esp+14h]
  00404C77: 57                 push        edi
  00404C78: 8B 46 0C           mov         eax,dword ptr [esi+0Ch]
  00404C7B: 8B 6E 10           mov         ebp,dword ptr [esi+10h]
  00404C7E: A8 82              test        al,82h
  00404C80: 0F 84 0D 01 00 00  je          00404D93
  00404C86: A8 40              test        al,40h
  00404C88: 0F 85 05 01 00 00  jne         00404D93
  00404C8E: 33 DB              xor         ebx,ebx
  00404C90: A8 01              test        al,1
  00404C92: 74 15              je          00404CA9
  00404C94: A8 10              test        al,10h
  00404C96: 89 5E 04           mov         dword ptr [esi+4],ebx
  00404C99: 0F 84 F4 00 00 00  je          00404D93
  00404C9F: 8B 4E 08           mov         ecx,dword ptr [esi+8]
  00404CA2: 24 FE              and         al,0FEh
  00404CA4: 89 0E              mov         dword ptr [esi],ecx
  00404CA6: 89 46 0C           mov         dword ptr [esi+0Ch],eax
  00404CA9: 8B 46 0C           mov         eax,dword ptr [esi+0Ch]
  00404CAC: 89 5E 04           mov         dword ptr [esi+4],ebx
  00404CAF: 24 EF              and         al,0EFh
  00404CB1: 0C 02              or          al,2
  00404CB3: A9 0C 01 00 00     test        eax,10Ch
  00404CB8: 89 46 0C           mov         dword ptr [esi+0Ch],eax
  00404CBB: 75 26              jne         00404CE3
  00404CBD: 81 FE 60 F6 40 00  cmp         esi,40F660h
  00404CC3: 74 08              je          00404CCD
  00404CC5: 81 FE 80 F6 40 00  cmp         esi,40F680h
  00404CCB: 75 0D              jne         00404CDA
  00404CCD: 55                 push        ebp
  00404CCE: E8 9D 2F 00 00     call        00407C70
  00404CD3: 83 C4 04           add         esp,4
  00404CD6: 85 C0              test        eax,eax
  00404CD8: 75 09              jne         00404CE3
  00404CDA: 56                 push        esi
  00404CDB: E8 30 2F 00 00     call        00407C10
  00404CE0: 83 C4 04           add         esp,4
  00404CE3: F7 46 0C 08 01 00  test        dword ptr [esi+0Ch],108h
            00
  00404CEA: 74 6F              je          00404D5B
  00404CEC: 8B 46 08           mov         eax,dword ptr [esi+8]
  00404CEF: 8B 3E              mov         edi,dword ptr [esi]
  00404CF1: 8B 4E 18           mov         ecx,dword ptr [esi+18h]
  00404CF4: 2B F8              sub         edi,eax
  00404CF6: 8D 50 01           lea         edx,[eax+1]
  00404CF9: 49                 dec         ecx
  00404CFA: 3B FB              cmp         edi,ebx
  00404CFC: 89 16              mov         dword ptr [esi],edx
  00404CFE: 89 4E 04           mov         dword ptr [esi+4],ecx
  00404D01: 7E 18              jle         00404D1B
  00404D03: 57                 push        edi
  00404D04: 50                 push        eax
  00404D05: 55                 push        ebp
  00404D06: E8 75 2C 00 00     call        00407980
  00404D0B: 8B 56 08           mov         edx,dword ptr [esi+8]
  00404D0E: 8B D8              mov         ebx,eax
  00404D10: 8A 44 24 20        mov         al,byte ptr [esp+20h]
  00404D14: 83 C4 0C           add         esp,0Ch
  00404D17: 88 02              mov         byte ptr [edx],al
  00404D19: EB 56              jmp         00404D71
  00404D1B: 83 FD FF           cmp         ebp,0FFFFFFFFh
  00404D1E: 74 19              je          00404D39
  00404D20: 8B D5              mov         edx,ebp
  00404D22: 8B C5              mov         eax,ebp
  00404D24: C1 FA 05           sar         edx,5
  00404D27: 83 E0 1F           and         eax,1Fh
  00404D2A: 8B 0C 95 60 11 41  mov         ecx,dword ptr [edx*4+00411160h]
            00
  00404D31: 8D 04 C0           lea         eax,[eax+eax*8]
  00404D34: 8D 04 81           lea         eax,[ecx+eax*4]
  00404D37: EB 05              jmp         00404D3E
  00404D39: B8 D8 FD 40 00     mov         eax,40FDD8h
  00404D3E: F6 40 04 20        test        byte ptr [eax+4],20h
  00404D42: 74 0C              je          00404D50
  00404D44: 6A 02              push        2
  00404D46: 53                 push        ebx
  00404D47: 55                 push        ebp
  00404D48: E8 33 2B 00 00     call        00407880
  00404D4D: 83 C4 0C           add         esp,0Ch
  00404D50: 8B 56 08           mov         edx,dword ptr [esi+8]
  00404D53: 8A 44 24 14        mov         al,byte ptr [esp+14h]
  00404D57: 88 02              mov         byte ptr [edx],al
  00404D59: EB 16              jmp         00404D71
  00404D5B: BF 01 00 00 00     mov         edi,1
  00404D60: 8D 4C 24 14        lea         ecx,[esp+14h]
  00404D64: 57                 push        edi
  00404D65: 51                 push        ecx
  00404D66: 55                 push        ebp
  00404D67: E8 14 2C 00 00     call        00407980
  00404D6C: 83 C4 0C           add         esp,0Ch
  00404D6F: 8B D8              mov         ebx,eax
  00404D71: 3B DF              cmp         ebx,edi
  00404D73: 74 10              je          00404D85
  00404D75: 8B 46 0C           mov         eax,dword ptr [esi+0Ch]
  00404D78: 0C 20              or          al,20h
  00404D7A: 89 46 0C           mov         dword ptr [esi+0Ch],eax
  00404D7D: 83 C8 FF           or          eax,0FFFFFFFFh
  00404D80: 5F                 pop         edi
  00404D81: 5E                 pop         esi
  00404D82: 5D                 pop         ebp
  00404D83: 5B                 pop         ebx
  00404D84: C3                 ret
  00404D85: 8B 44 24 14        mov         eax,dword ptr [esp+14h]
  00404D89: 25 FF 00 00 00     and         eax,0FFh
  00404D8E: 5F                 pop         edi
  00404D8F: 5E                 pop         esi
  00404D90: 5D                 pop         ebp
  00404D91: 5B                 pop         ebx
  00404D92: C3                 ret
  00404D93: 0C 20              or          al,20h
  00404D95: 5F                 pop         edi
  00404D96: 89 46 0C           mov         dword ptr [esi+0Ch],eax
  00404D99: 5E                 pop         esi
  00404D9A: 5D                 pop         ebp
  00404D9B: 83 C8 FF           or          eax,0FFFFFFFFh
  00404D9E: 5B                 pop         ebx
  00404D9F: C3                 ret
  00404DA0: 81 EC 4C 02 00 00  sub         esp,24Ch
  00404DA6: 53                 push        ebx
  00404DA7: 55                 push        ebp
  00404DA8: 56                 push        esi
  00404DA9: 57                 push        edi
  00404DAA: 8B BC 24 64 02 00  mov         edi,dword ptr [esp+00000264h]
            00
  00404DB1: 33 C9              xor         ecx,ecx
  00404DB3: 33 ED              xor         ebp,ebp
  00404DB5: 89 4C 24 1C        mov         dword ptr [esp+1Ch],ecx
  00404DB9: 8A 1F              mov         bl,byte ptr [edi]
  00404DBB: 47                 inc         edi
  00404DBC: 84 DB              test        bl,bl
  00404DBE: 88 5C 24 40        mov         byte ptr [esp+40h],bl
  00404DC2: 89 BC 24 64 02 00  mov         dword ptr [esp+00000264h],edi
            00
  00404DC9: 0F 84 28 08 00 00  je          004055F7
  00404DCF: 8B 74 24 28        mov         esi,dword ptr [esp+28h]
  00404DD3: EB 08              jmp         00404DDD
  00404DD5: 8B 74 24 28        mov         esi,dword ptr [esp+28h]
  00404DD9: 8B 4C 24 3C        mov         ecx,dword ptr [esp+3Ch]
  00404DDD: 8B 44 24 1C        mov         eax,dword ptr [esp+1Ch]
  00404DE1: 33 D2              xor         edx,edx
  00404DE3: 3B C2              cmp         eax,edx
  00404DE5: 0F 8C 0C 08 00 00  jl          004055F7
  00404DEB: 80 FB 20           cmp         bl,20h
  00404DEE: 7C 13              jl          00404E03
  00404DF0: 80 FB 78           cmp         bl,78h
  00404DF3: 7F 0E              jg          00404E03
  00404DF5: 0F BE C3           movsx       eax,bl
  00404DF8: 8A 80 20 C0 40 00  mov         al,byte ptr [eax+0040C020h]
  00404DFE: 83 E0 0F           and         eax,0Fh
  00404E01: EB 02              jmp         00404E05
  00404E03: 33 C0              xor         eax,eax
  00404E05: 0F BE 84 C1 40 C0  movsx       eax,byte ptr [ecx+eax*8+0040C040h]
            40 00
  00404E0D: C1 F8 04           sar         eax,4
  00404E10: 83 F8 07           cmp         eax,7
  00404E13: 89 44 24 3C        mov         dword ptr [esp+3Ch],eax
  00404E17: 0F 87 BD 07 00 00  ja          004055DA
  00404E1D: FF 24 85 1C 56 40  jmp         dword ptr [eax*4+0040561Ch]
            00
  00404E24: 89 54 24 44        mov         dword ptr [esp+44h],edx
  00404E28: 89 54 24 34        mov         dword ptr [esp+34h],edx
  00404E2C: 89 54 24 28        mov         dword ptr [esp+28h],edx
  00404E30: 89 54 24 24        mov         dword ptr [esp+24h],edx
  00404E34: 89 54 24 10        mov         dword ptr [esp+10h],edx
  00404E38: C7 44 24 18 FF FF  mov         dword ptr [esp+18h],0FFFFFFFFh
            FF FF
  00404E40: 89 54 24 2C        mov         dword ptr [esp+2Ch],edx
  00404E44: E9 91 07 00 00     jmp         004055DA
  00404E49: 0F BE C3           movsx       eax,bl
  00404E4C: 83 C0 E0           add         eax,0FFFFFFE0h
  00404E4F: 83 F8 10           cmp         eax,10h
  00404E52: 0F 87 82 07 00 00  ja          004055DA
  00404E58: 33 C9              xor         ecx,ecx
  00404E5A: 8A 88 54 56 40 00  mov         cl,byte ptr [eax+00405654h]
  00404E60: FF 24 8D 3C 56 40  jmp         dword ptr [ecx*4+0040563Ch]
            00
  00404E67: 8B 44 24 10        mov         eax,dword ptr [esp+10h]
  00404E6B: 0C 04              or          al,4
  00404E6D: 89 44 24 10        mov         dword ptr [esp+10h],eax
  00404E71: E9 64 07 00 00     jmp         004055DA
  00404E76: 8B 44 24 10        mov         eax,dword ptr [esp+10h]
  00404E7A: 0C 01              or          al,1
  00404E7C: 89 44 24 10        mov         dword ptr [esp+10h],eax
  00404E80: E9 55 07 00 00     jmp         004055DA
  00404E85: 8B 44 24 10        mov         eax,dword ptr [esp+10h]
  00404E89: 0C 02              or          al,2
  00404E8B: 89 44 24 10        mov         dword ptr [esp+10h],eax
  00404E8F: E9 46 07 00 00     jmp         004055DA
  00404E94: 8B 44 24 10        mov         eax,dword ptr [esp+10h]
  00404E98: 0C 80              or          al,80h
  00404E9A: 89 44 24 10        mov         dword ptr [esp+10h],eax
  00404E9E: E9 37 07 00 00     jmp         004055DA
  00404EA3: 8B 44 24 10        mov         eax,dword ptr [esp+10h]
  00404EA7: 0C 08              or          al,8
  00404EA9: 89 44 24 10        mov         dword ptr [esp+10h],eax
  00404EAD: E9 28 07 00 00     jmp         004055DA
  00404EB2: 80 FB 2A           cmp         bl,2Ah
  00404EB5: 75 32              jne         00404EE9
  00404EB7: 8D 94 24 68 02 00  lea         edx,[esp+00000268h]
            00
  00404EBE: 52                 push        edx
  00404EBF: E8 3C 09 00 00     call        00405800
  00404EC4: 83 C4 04           add         esp,4
  00404EC7: 89 44 24 28        mov         dword ptr [esp+28h],eax
  00404ECB: 85 C0              test        eax,eax
  00404ECD: 0F 8D 07 07 00 00  jge         004055DA
  00404ED3: 8B 54 24 10        mov         edx,dword ptr [esp+10h]
  00404ED7: 83 CA 04           or          edx,4
  00404EDA: F7 D8              neg         eax
  00404EDC: 89 54 24 10        mov         dword ptr [esp+10h],edx
  00404EE0: 89 44 24 28        mov         dword ptr [esp+28h],eax
  00404EE4: E9 F1 06 00 00     jmp         004055DA
  00404EE9: 0F BE CB           movsx       ecx,bl
  00404EEC: 8D 04 B6           lea         eax,[esi+esi*4]
  00404EEF: 8D 54 41 D0        lea         edx,[ecx+eax*2-30h]
  00404EF3: 89 54 24 28        mov         dword ptr [esp+28h],edx
  00404EF7: E9 DE 06 00 00     jmp         004055DA
  00404EFC: 89 54 24 18        mov         dword ptr [esp+18h],edx
  00404F00: E9 D5 06 00 00     jmp         004055DA
  00404F05: 80 FB 2A           cmp         bl,2Ah
  00404F08: 75 29              jne         00404F33
  00404F0A: 8D 84 24 68 02 00  lea         eax,[esp+00000268h]
            00
  00404F11: 50                 push        eax
  00404F12: E8 E9 08 00 00     call        00405800
  00404F17: 83 C4 04           add         esp,4
  00404F1A: 89 44 24 18        mov         dword ptr [esp+18h],eax
  00404F1E: 85 C0              test        eax,eax
  00404F20: 0F 8D B4 06 00 00  jge         004055DA
  00404F26: C7 44 24 18 FF FF  mov         dword ptr [esp+18h],0FFFFFFFFh
            FF FF
  00404F2E: E9 A7 06 00 00     jmp         004055DA
  00404F33: 8B 44 24 18        mov         eax,dword ptr [esp+18h]
  00404F37: 0F BE D3           movsx       edx,bl
  00404F3A: 8D 0C 80           lea         ecx,[eax+eax*4]
  00404F3D: 8D 44 4A D0        lea         eax,[edx+ecx*2-30h]
  00404F41: 89 44 24 18        mov         dword ptr [esp+18h],eax
  00404F45: E9 90 06 00 00     jmp         004055DA
  00404F4A: 0F BE C3           movsx       eax,bl
  00404F4D: 83 C0 B7           add         eax,0FFFFFFB7h
  00404F50: 83 F8 2E           cmp         eax,2Eh
  00404F53: 0F 87 81 06 00 00  ja          004055DA
  00404F59: 33 C9              xor         ecx,ecx
  00404F5B: 8A 88 7C 56 40 00  mov         cl,byte ptr [eax+0040567Ch]
  00404F61: FF 24 8D 68 56 40  jmp         dword ptr [ecx*4+00405668h]
            00
  00404F68: 8B 44 24 10        mov         eax,dword ptr [esp+10h]
  00404F6C: 0C 10              or          al,10h
  00404F6E: 89 44 24 10        mov         dword ptr [esp+10h],eax
  00404F72: E9 63 06 00 00     jmp         004055DA
  00404F77: 80 3F 36           cmp         byte ptr [edi],36h
  00404F7A: 75 20              jne         00404F9C
  00404F7C: 80 7F 01 34        cmp         byte ptr [edi+1],34h
  00404F80: 75 1A              jne         00404F9C
  00404F82: 8B 44 24 10        mov         eax,dword ptr [esp+10h]
  00404F86: 83 C7 02           add         edi,2
  00404F89: 80 CC 80           or          ah,80h
  00404F8C: 89 BC 24 64 02 00  mov         dword ptr [esp+00000264h],edi
            00
  00404F93: 89 44 24 10        mov         dword ptr [esp+10h],eax
  00404F97: E9 3E 06 00 00     jmp         004055DA
  00404F9C: 89 54 24 3C        mov         dword ptr [esp+3Ch],edx
  00404FA0: A1 C0 FA 40 00     mov         eax,dword ptr ds:[0040FAC0h]
  00404FA5: 89 54 24 2C        mov         dword ptr [esp+2Ch],edx
  00404FA9: 8B 54 24 40        mov         edx,dword ptr [esp+40h]
  00404FAD: 81 E2 FF 00 00 00  and         edx,0FFh
  00404FB3: F6 44 50 01 80     test        byte ptr [eax+edx*2+1],80h
  00404FB8: 74 23              je          00404FDD
  00404FBA: 8B 94 24 60 02 00  mov         edx,dword ptr [esp+00000260h]
            00
  00404FC1: 8D 4C 24 1C        lea         ecx,[esp+1Ch]
  00404FC5: 0F BE C3           movsx       eax,bl
  00404FC8: 51                 push        ecx
  00404FC9: 52                 push        edx
  00404FCA: 50                 push        eax
  00404FCB: E8 60 07 00 00     call        00405730
  00404FD0: 8A 1F              mov         bl,byte ptr [edi]
  00404FD2: 83 C4 0C           add         esp,0Ch
  00404FD5: 47                 inc         edi
  00404FD6: 89 BC 24 64 02 00  mov         dword ptr [esp+00000264h],edi
            00
  00404FDD: 8B 94 24 60 02 00  mov         edx,dword ptr [esp+00000260h]
            00
  00404FE4: 8D 4C 24 1C        lea         ecx,[esp+1Ch]
  00404FE8: 0F BE C3           movsx       eax,bl
  00404FEB: 51                 push        ecx
  00404FEC: 52                 push        edx
  00404FED: 50                 push        eax
  00404FEE: E8 3D 07 00 00     call        00405730
  00404FF3: 83 C4 0C           add         esp,0Ch
  00404FF6: E9 DF 05 00 00     jmp         004055DA
  00404FFB: 8B 44 24 10        mov         eax,dword ptr [esp+10h]
  00404FFF: 0C 20              or          al,20h
  00405001: 89 44 24 10        mov         dword ptr [esp+10h],eax
  00405005: E9 D0 05 00 00     jmp         004055DA
  0040500A: 8B 44 24 10        mov         eax,dword ptr [esp+10h]
  0040500E: 80 CC 08           or          ah,8
  00405011: 89 44 24 10        mov         dword ptr [esp+10h],eax
  00405015: E9 C0 05 00 00     jmp         004055DA
  0040501A: 0F BE C3           movsx       eax,bl
  0040501D: 83 C0 BD           add         eax,0FFFFFFBDh
  00405020: 83 F8 35           cmp         eax,35h
  00405023: 0F 87 97 04 00 00  ja          004054C0
  00405029: 33 C9              xor         ecx,ecx
  0040502B: 8A 88 F0 56 40 00  mov         cl,byte ptr [eax+004056F0h]
  00405031: FF 24 8D AC 56 40  jmp         dword ptr [ecx*4+004056ACh]
            00
  00405038: 8B 44 24 10        mov         eax,dword ptr [esp+10h]
  0040503C: A9 30 08 00 00     test        eax,830h
  00405041: 75 07              jne         0040504A
  00405043: 80 CC 08           or          ah,8
  00405046: 89 44 24 10        mov         dword ptr [esp+10h],eax
  0040504A: F7 44 24 10 10 08  test        dword ptr [esp+10h],810h
            00 00
  00405052: 74 39              je          0040508D
  00405054: 8D 94 24 68 02 00  lea         edx,[esp+00000268h]
            00
  0040505B: 52                 push        edx
  0040505C: E8 DF 07 00 00     call        00405840
  00405061: 83 C4 04           add         esp,4
  00405064: 50                 push        eax
  00405065: 8D 44 24 60        lea         eax,[esp+60h]
  00405069: 50                 push        eax
  0040506A: E8 31 2C 00 00     call        00407CA0
  0040506F: 8B E8              mov         ebp,eax
  00405071: 83 C4 08           add         esp,8
  00405074: 85 ED              test        ebp,ebp
  00405076: 7D 2E              jge         004050A6
  00405078: 8D 54 24 5C        lea         edx,[esp+5Ch]
  0040507C: C7 44 24 34 01 00  mov         dword ptr [esp+34h],1
            00 00
  00405084: 89 54 24 14        mov         dword ptr [esp+14h],edx
  00405088: E9 33 04 00 00     jmp         004054C0
  0040508D: 8D 8C 24 68 02 00  lea         ecx,[esp+00000268h]
            00
  00405094: 51                 push        ecx
  00405095: E8 66 07 00 00     call        00405800
  0040509A: 83 C4 04           add         esp,4
  0040509D: 88 44 24 5C        mov         byte ptr [esp+5Ch],al
  004050A1: BD 01 00 00 00     mov         ebp,1
  004050A6: 8D 54 24 5C        lea         edx,[esp+5Ch]
  004050AA: 89 54 24 14        mov         dword ptr [esp+14h],edx
  004050AE: E9 0D 04 00 00     jmp         004054C0
  004050B3: 8D 84 24 68 02 00  lea         eax,[esp+00000268h]
            00
  004050BA: 50                 push        eax
  004050BB: E8 40 07 00 00     call        00405800
  004050C0: 83 C4 04           add         esp,4
  004050C3: 85 C0              test        eax,eax
  004050C5: 74 3A              je          00405101
  004050C7: 8B 48 04           mov         ecx,dword ptr [eax+4]
  004050CA: 85 C9              test        ecx,ecx
  004050CC: 74 33              je          00405101
  004050CE: 8B 54 24 10        mov         edx,dword ptr [esp+10h]
  004050D2: F6 C6 08           test        dh,8
  004050D5: 74 16              je          004050ED
  004050D7: 0F BF 28           movsx       ebp,word ptr [eax]
  004050DA: 89 4C 24 14        mov         dword ptr [esp+14h],ecx
  004050DE: C7 44 24 2C 01 00  mov         dword ptr [esp+2Ch],1
            00 00
  004050E6: D1 ED              shr         ebp,1
  004050E8: E9 D3 03 00 00     jmp         004054C0
  004050ED: 0F BF 28           movsx       ebp,word ptr [eax]
  004050F0: C7 44 24 2C 00 00  mov         dword ptr [esp+2Ch],0
            00 00
  004050F8: 89 4C 24 14        mov         dword ptr [esp+14h],ecx
  004050FC: E9 BF 03 00 00     jmp         004054C0
  00405101: 8B 3D 48 D5 40 00  mov         edi,dword ptr ds:[0040D548h]
  00405107: 83 C9 FF           or          ecx,0FFFFFFFFh
  0040510A: 33 C0              xor         eax,eax
  0040510C: 89 7C 24 14        mov         dword ptr [esp+14h],edi
  00405110: F2 AE              repne scas  byte ptr es:[edi]
  00405112: F7 D1              not         ecx
  00405114: 49                 dec         ecx
  00405115: 8B E9              mov         ebp,ecx
  00405117: E9 A4 03 00 00     jmp         004054C0
  0040511C: 8B 44 24 10        mov         eax,dword ptr [esp+10h]
  00405120: A9 30 08 00 00     test        eax,830h
  00405125: 75 07              jne         0040512E
  00405127: 80 CC 08           or          ah,8
  0040512A: 89 44 24 10        mov         dword ptr [esp+10h],eax
  0040512E: 8B 44 24 18        mov         eax,dword ptr [esp+18h]
  00405132: BE FF FF FF 7F     mov         esi,7FFFFFFFh
  00405137: 83 F8 FF           cmp         eax,0FFFFFFFFh
  0040513A: 74 02              je          0040513E
  0040513C: 8B F0              mov         esi,eax
  0040513E: 8D 8C 24 68 02 00  lea         ecx,[esp+00000268h]
            00
  00405145: 51                 push        ecx
  00405146: E8 B5 06 00 00     call        00405800
  0040514B: 8B C8              mov         ecx,eax
  0040514D: 8B 44 24 14        mov         eax,dword ptr [esp+14h]
  00405151: 83 C4 04           add         esp,4
  00405154: 89 4C 24 14        mov         dword ptr [esp+14h],ecx
  00405158: A9 10 08 00 00     test        eax,810h
  0040515D: 74 3A              je          00405199
  0040515F: 85 C9              test        ecx,ecx
  00405161: 75 0A              jne         0040516D
  00405163: 8B 0D 4C D5 40 00  mov         ecx,dword ptr ds:[0040D54Ch]
  00405169: 89 4C 24 14        mov         dword ptr [esp+14h],ecx
  0040516D: 8B D6              mov         edx,esi
  0040516F: 4E                 dec         esi
  00405170: 85 D2              test        edx,edx
  00405172: C7 44 24 2C 01 00  mov         dword ptr [esp+2Ch],1
            00 00
  0040517A: 8B C1              mov         eax,ecx
  0040517C: 74 10              je          0040518E
  0040517E: 66 83 38 00        cmp         word ptr [eax],0
  00405182: 74 0A              je          0040518E
  00405184: 83 C0 02           add         eax,2
  00405187: 8B D6              mov         edx,esi
  00405189: 4E                 dec         esi
  0040518A: 85 D2              test        edx,edx
  0040518C: 75 F0              jne         0040517E
  0040518E: 2B C1              sub         eax,ecx
  00405190: D1 F8              sar         eax,1
  00405192: 8B E8              mov         ebp,eax
  00405194: E9 27 03 00 00     jmp         004054C0
  00405199: 85 C9              test        ecx,ecx
  0040519B: 75 0A              jne         004051A7
  0040519D: 8B 0D 48 D5 40 00  mov         ecx,dword ptr ds:[0040D548h]
  004051A3: 89 4C 24 14        mov         dword ptr [esp+14h],ecx
  004051A7: 8B D6              mov         edx,esi
  004051A9: 4E                 dec         esi
  004051AA: 85 D2              test        edx,edx
  004051AC: 8B C1              mov         eax,ecx
  004051AE: 74 0D              je          004051BD
  004051B0: 80 38 00           cmp         byte ptr [eax],0
  004051B3: 74 08              je          004051BD
  004051B5: 40                 inc         eax
  004051B6: 8B D6              mov         edx,esi
  004051B8: 4E                 dec         esi
  004051B9: 85 D2              test        edx,edx
  004051BB: 75 F3              jne         004051B0
  004051BD: 2B C1              sub         eax,ecx
  004051BF: 8B E8              mov         ebp,eax
  004051C1: E9 FA 02 00 00     jmp         004054C0
  004051C6: 8D 84 24 68 02 00  lea         eax,[esp+00000268h]
            00
  004051CD: 50                 push        eax
  004051CE: E8 2D 06 00 00     call        00405800
  004051D3: 8A 4C 24 14        mov         cl,byte ptr [esp+14h]
  004051D7: 83 C4 04           add         esp,4
  004051DA: F6 C1 20           test        cl,20h
  004051DD: 74 15              je          004051F4
  004051DF: 66 8B 4C 24 1C     mov         cx,word ptr [esp+1Ch]
  004051E4: C7 44 24 34 01 00  mov         dword ptr [esp+34h],1
            00 00
  004051EC: 66 89 08           mov         word ptr [eax],cx
  004051EF: E9 CC 02 00 00     jmp         004054C0
  004051F4: 8B 54 24 1C        mov         edx,dword ptr [esp+1Ch]
  004051F8: C7 44 24 34 01 00  mov         dword ptr [esp+34h],1
            00 00
  00405200: 89 10              mov         dword ptr [eax],edx
  00405202: E9 B9 02 00 00     jmp         004054C0
  00405207: C7 44 24 44 01 00  mov         dword ptr [esp+44h],1
            00 00
  0040520F: 80 C3 20           add         bl,20h
  00405212: 8B 54 24 10        mov         edx,dword ptr [esp+10h]
  00405216: 8D 44 24 5C        lea         eax,[esp+5Ch]
  0040521A: 89 44 24 14        mov         dword ptr [esp+14h],eax
  0040521E: 8B 44 24 18        mov         eax,dword ptr [esp+18h]
  00405222: 83 CA 40           or          edx,40h
  00405225: 85 C0              test        eax,eax
  00405227: 89 54 24 10        mov         dword ptr [esp+10h],edx
  0040522B: 7D 0A              jge         00405237
  0040522D: C7 44 24 18 06 00  mov         dword ptr [esp+18h],6
            00 00
  00405235: EB 0F              jmp         00405246
  00405237: 75 0D              jne         00405246
  00405239: 80 FB 67           cmp         bl,67h
  0040523C: 75 08              jne         00405246
  0040523E: C7 44 24 18 01 00  mov         dword ptr [esp+18h],1
            00 00
  00405246: 8B 84 24 68 02 00  mov         eax,dword ptr [esp+00000268h]
            00
  0040524D: 8B 7C 24 18        mov         edi,dword ptr [esp+18h]
  00405251: 83 C0 08           add         eax,8
  00405254: 89 84 24 68 02 00  mov         dword ptr [esp+00000268h],eax
            00
  0040525B: 8B 48 F8           mov         ecx,dword ptr [eax-8]
  0040525E: 89 4C 24 4C        mov         dword ptr [esp+4Ch],ecx
  00405262: 8B 50 FC           mov         edx,dword ptr [eax-4]
  00405265: 8B 44 24 44        mov         eax,dword ptr [esp+44h]
  00405269: 89 54 24 50        mov         dword ptr [esp+50h],edx
  0040526D: 0F BE CB           movsx       ecx,bl
  00405270: 50                 push        eax
  00405271: 57                 push        edi
  00405272: 8D 54 24 64        lea         edx,[esp+64h]
  00405276: 51                 push        ecx
  00405277: 8D 44 24 58        lea         eax,[esp+58h]
  0040527B: 52                 push        edx
  0040527C: 50                 push        eax
  0040527D: FF 15 90 FE 40 00  call        dword ptr ds:[0040FE90h]
  00405283: 8B 74 24 24        mov         esi,dword ptr [esp+24h]
  00405287: 83 C4 14           add         esp,14h
  0040528A: 81 E6 80 00 00 00  and         esi,80h
  00405290: 74 12              je          004052A4
  00405292: 85 FF              test        edi,edi
  00405294: 75 0E              jne         004052A4
  00405296: 8D 4C 24 5C        lea         ecx,[esp+5Ch]
  0040529A: 51                 push        ecx
  0040529B: FF 15 9C FE 40 00  call        dword ptr ds:[0040FE9Ch]
  004052A1: 83 C4 04           add         esp,4
  004052A4: 80 FB 67           cmp         bl,67h
  004052A7: 75 12              jne         004052BB
  004052A9: 85 F6              test        esi,esi
  004052AB: 75 0E              jne         004052BB
  004052AD: 8D 54 24 5C        lea         edx,[esp+5Ch]
  004052B1: 52                 push        edx
  004052B2: FF 15 94 FE 40 00  call        dword ptr ds:[0040FE94h]
  004052B8: 83 C4 04           add         esp,4
  004052BB: 80 7C 24 5C 2D     cmp         byte ptr [esp+5Ch],2Dh
  004052C0: 75 13              jne         004052D5
  004052C2: 8B 44 24 10        mov         eax,dword ptr [esp+10h]
  004052C6: 80 CC 01           or          ah,1
  004052C9: 89 44 24 10        mov         dword ptr [esp+10h],eax
  004052CD: 8D 44 24 5D        lea         eax,[esp+5Dh]
  004052D1: 89 44 24 14        mov         dword ptr [esp+14h],eax
  004052D5: 8B 7C 24 14        mov         edi,dword ptr [esp+14h]
  004052D9: 83 C9 FF           or          ecx,0FFFFFFFFh
  004052DC: 33 C0              xor         eax,eax
  004052DE: F2 AE              repne scas  byte ptr es:[edi]
  004052E0: F7 D1              not         ecx
  004052E2: 49                 dec         ecx
  004052E3: 8B E9              mov         ebp,ecx
  004052E5: E9 D6 01 00 00     jmp         004054C0
  004052EA: 8B 44 24 10        mov         eax,dword ptr [esp+10h]
  004052EE: C7 44 24 30 0A 00  mov         dword ptr [esp+30h],0Ah
            00 00
  004052F6: 0C 40              or          al,40h
  004052F8: 89 44 24 10        mov         dword ptr [esp+10h],eax
  004052FC: EB 69              jmp         00405367
  004052FE: C7 44 24 30 0A 00  mov         dword ptr [esp+30h],0Ah
            00 00
  00405306: EB 5F              jmp         00405367
  00405308: C7 44 24 18 08 00  mov         dword ptr [esp+18h],8
            00 00
  00405310: C7 44 24 38 07 00  mov         dword ptr [esp+38h],7
            00 00
  00405318: EB 08              jmp         00405322
  0040531A: C7 44 24 38 27 00  mov         dword ptr [esp+38h],27h
            00 00
  00405322: 8A 44 24 10        mov         al,byte ptr [esp+10h]
  00405326: C7 44 24 30 10 00  mov         dword ptr [esp+30h],10h
            00 00
  0040532E: A8 80              test        al,80h
  00405330: 74 35              je          00405367
  00405332: 8A 4C 24 38        mov         cl,byte ptr [esp+38h]
  00405336: C6 44 24 22 30     mov         byte ptr [esp+22h],30h
  0040533B: 80 C1 51           add         cl,51h
  0040533E: C7 44 24 24 02 00  mov         dword ptr [esp+24h],2
            00 00
  00405346: 88 4C 24 23        mov         byte ptr [esp+23h],cl
  0040534A: EB 1B              jmp         00405367
  0040534C: 8A 44 24 10        mov         al,byte ptr [esp+10h]
  00405350: C7 44 24 30 08 00  mov         dword ptr [esp+30h],8
            00 00
  00405358: A8 80              test        al,80h
  0040535A: 74 0B              je          00405367
  0040535C: 8B 44 24 10        mov         eax,dword ptr [esp+10h]
  00405360: 80 CC 02           or          ah,2
  00405363: 89 44 24 10        mov         dword ptr [esp+10h],eax
  00405367: 8B 5C 24 10        mov         ebx,dword ptr [esp+10h]
  0040536B: F6 C7 80           test        bh,80h
  0040536E: 74 12              je          00405382
  00405370: 8D 94 24 68 02 00  lea         edx,[esp+00000268h]
            00
  00405377: 52                 push        edx
  00405378: E8 A3 04 00 00     call        00405820
  0040537D: 83 C4 04           add         esp,4
  00405380: EB 62              jmp         004053E4
  00405382: F6 C3 20           test        bl,20h
  00405385: 74 33              je          004053BA
  00405387: F6 C3 40           test        bl,40h
  0040538A: 74 16              je          004053A2
  0040538C: 8D 84 24 68 02 00  lea         eax,[esp+00000268h]
            00
  00405393: 50                 push        eax
  00405394: E8 67 04 00 00     call        00405800
  00405399: 0F BF C0           movsx       eax,ax
  0040539C: 83 C4 04           add         esp,4
  0040539F: 99                 cdq
  004053A0: EB 42              jmp         004053E4
  004053A2: 8D 8C 24 68 02 00  lea         ecx,[esp+00000268h]
            00
  004053A9: 51                 push        ecx
  004053AA: E8 51 04 00 00     call        00405800
  004053AF: 83 C4 04           add         esp,4
  004053B2: 25 FF FF 00 00     and         eax,0FFFFh
  004053B7: 99                 cdq
  004053B8: EB 2A              jmp         004053E4
  004053BA: F6 C3 40           test        bl,40h
  004053BD: 74 13              je          004053D2
  004053BF: 8D 94 24 68 02 00  lea         edx,[esp+00000268h]
            00
  004053C6: 52                 push        edx
  004053C7: E8 34 04 00 00     call        00405800
  004053CC: 83 C4 04           add         esp,4
  004053CF: 99                 cdq
  004053D0: EB 12              jmp         004053E4
  004053D2: 8D 84 24 68 02 00  lea         eax,[esp+00000268h]
            00
  004053D9: 50                 push        eax
  004053DA: E8 21 04 00 00     call        00405800
  004053DF: 83 C4 04           add         esp,4
  004053E2: 33 D2              xor         edx,edx
  004053E4: F6 C3 40           test        bl,40h
  004053E7: 74 1E              je          00405407
  004053E9: 85 D2              test        edx,edx
  004053EB: 7F 1A              jg          00405407
  004053ED: 7C 04              jl          004053F3
  004053EF: 85 C0              test        eax,eax
  004053F1: 73 14              jae         00405407
  004053F3: F7 D8              neg         eax
  004053F5: 83 D2 00           adc         edx,0
  004053F8: 8B F0              mov         esi,eax
  004053FA: F7 DA              neg         edx
  004053FC: 80 CF 01           or          bh,1
  004053FF: 8B FA              mov         edi,edx
  00405401: 89 5C 24 10        mov         dword ptr [esp+10h],ebx
  00405405: EB 04              jmp         0040540B
  00405407: 8B F0              mov         esi,eax
  00405409: 8B FA              mov         edi,edx
  0040540B: F6 C7 80           test        bh,80h
  0040540E: 75 03              jne         00405413
  00405410: 83 E7 00           and         edi,0
  00405413: 8B 4C 24 18        mov         ecx,dword ptr [esp+18h]
  00405417: 85 C9              test        ecx,ecx
  00405419: 7D 07              jge         00405422
  0040541B: B9 01 00 00 00     mov         ecx,1
  00405420: EB 07              jmp         00405429
  00405422: 83 E3 F7           and         ebx,0FFFFFFF7h
  00405425: 89 5C 24 10        mov         dword ptr [esp+10h],ebx
  00405429: 8B D6              mov         edx,esi
  0040542B: 0B D7              or          edx,edi
  0040542D: 75 08              jne         00405437
  0040542F: C7 44 24 24 00 00  mov         dword ptr [esp+24h],0
            00 00
  00405437: 8D 84 24 5B 02 00  lea         eax,[esp+0000025Bh]
            00
  0040543E: 89 44 24 14        mov         dword ptr [esp+14h],eax
  00405442: 8B D1              mov         edx,ecx
  00405444: 49                 dec         ecx
  00405445: 85 D2              test        edx,edx
  00405447: 89 4C 24 18        mov         dword ptr [esp+18h],ecx
  0040544B: 7F 06              jg          00405453
  0040544D: 8B CE              mov         ecx,esi
  0040544F: 0B CF              or          ecx,edi
  00405451: 74 44              je          00405497
  00405453: 8B 44 24 30        mov         eax,dword ptr [esp+30h]
  00405457: 99                 cdq
  00405458: 8B E8              mov         ebp,eax
  0040545A: 52                 push        edx
  0040545B: 55                 push        ebp
  0040545C: 57                 push        edi
  0040545D: 56                 push        esi
  0040545E: 89 54 24 68        mov         dword ptr [esp+68h],edx
  00405462: E8 99 29 00 00     call        00407E00
  00405467: 8B 54 24 58        mov         edx,dword ptr [esp+58h]
  0040546B: 8B D8              mov         ebx,eax
  0040546D: 52                 push        edx
  0040546E: 55                 push        ebp
  0040546F: 57                 push        edi
  00405470: 56                 push        esi
  00405471: 83 C3 30           add         ebx,30h
  00405474: E8 17 29 00 00     call        00407D90
  00405479: 83 FB 39           cmp         ebx,39h
  0040547C: 8B F0              mov         esi,eax
  0040547E: 8B FA              mov         edi,edx
  00405480: 7E 04              jle         00405486
  00405482: 03 5C 24 38        add         ebx,dword ptr [esp+38h]
  00405486: 8B 44 24 14        mov         eax,dword ptr [esp+14h]
  0040548A: 8B 4C 24 18        mov         ecx,dword ptr [esp+18h]
  0040548E: 88 18              mov         byte ptr [eax],bl
  00405490: 48                 dec         eax
  00405491: 89 44 24 14        mov         dword ptr [esp+14h],eax
  00405495: EB AB              jmp         00405442
  00405497: 8B 4C 24 10        mov         ecx,dword ptr [esp+10h]
  0040549B: 8D AC 24 5B 02 00  lea         ebp,[esp+0000025Bh]
            00
  004054A2: 2B E8              sub         ebp,eax
  004054A4: 40                 inc         eax
  004054A5: F6 C5 02           test        ch,2
  004054A8: 89 44 24 14        mov         dword ptr [esp+14h],eax
  004054AC: 74 12              je          004054C0
  004054AE: 80 38 30           cmp         byte ptr [eax],30h
  004054B1: 75 04              jne         004054B7
  004054B3: 85 ED              test        ebp,ebp
  004054B5: 75 09              jne         004054C0
  004054B7: 48                 dec         eax
  004054B8: 45                 inc         ebp
  004054B9: 89 44 24 14        mov         dword ptr [esp+14h],eax
  004054BD: C6 00 30           mov         byte ptr [eax],30h
  004054C0: 8B 44 24 34        mov         eax,dword ptr [esp+34h]
  004054C4: 85 C0              test        eax,eax
  004054C6: 0F 85 0E 01 00 00  jne         004055DA
  004054CC: 8B 5C 24 10        mov         ebx,dword ptr [esp+10h]
  004054D0: F6 C3 40           test        bl,40h
  004054D3: 74 2A              je          004054FF
  004054D5: F6 C7 01           test        bh,1
  004054D8: 74 07              je          004054E1
  004054DA: C6 44 24 22 2D     mov         byte ptr [esp+22h],2Dh
  004054DF: EB 16              jmp         004054F7
  004054E1: F6 C3 01           test        bl,1
  004054E4: 74 07              je          004054ED
  004054E6: C6 44 24 22 2B     mov         byte ptr [esp+22h],2Bh
  004054EB: EB 0A              jmp         004054F7
  004054ED: F6 C3 02           test        bl,2
  004054F0: 74 0D              je          004054FF
  004054F2: C6 44 24 22 20     mov         byte ptr [esp+22h],20h
  004054F7: C7 44 24 24 01 00  mov         dword ptr [esp+24h],1
            00 00
  004054FF: 8B 7C 24 28        mov         edi,dword ptr [esp+28h]
  00405503: 8B 4C 24 24        mov         ecx,dword ptr [esp+24h]
  00405507: 2B FD              sub         edi,ebp
  00405509: 2B F9              sub         edi,ecx
  0040550B: F6 C3 0C           test        bl,0Ch
  0040550E: 75 1A              jne         0040552A
  00405510: 8B B4 24 60 02 00  mov         esi,dword ptr [esp+00000260h]
            00
  00405517: 8D 44 24 1C        lea         eax,[esp+1Ch]
  0040551B: 50                 push        eax
  0040551C: 56                 push        esi
  0040551D: 57                 push        edi
  0040551E: 6A 20              push        20h
  00405520: E8 5B 02 00 00     call        00405780
  00405525: 83 C4 10           add         esp,10h
  00405528: EB 07              jmp         00405531
  0040552A: 8B B4 24 60 02 00  mov         esi,dword ptr [esp+00000260h]
            00
  00405531: 8B 54 24 24        mov         edx,dword ptr [esp+24h]
  00405535: 8D 4C 24 1C        lea         ecx,[esp+1Ch]
  00405539: 51                 push        ecx
  0040553A: 56                 push        esi
  0040553B: 8D 44 24 2A        lea         eax,[esp+2Ah]
  0040553F: 52                 push        edx
  00405540: 50                 push        eax
  00405541: E8 7A 02 00 00     call        004057C0
  00405546: 83 C4 10           add         esp,10h
  00405549: F6 C3 08           test        bl,8
  0040554C: 74 16              je          00405564
  0040554E: F6 C3 04           test        bl,4
  00405551: 75 11              jne         00405564
  00405553: 8D 4C 24 1C        lea         ecx,[esp+1Ch]
  00405557: 51                 push        ecx
  00405558: 56                 push        esi
  00405559: 57                 push        edi
  0040555A: 6A 30              push        30h
  0040555C: E8 1F 02 00 00     call        00405780
  00405561: 83 C4 10           add         esp,10h
  00405564: 8B 44 24 2C        mov         eax,dword ptr [esp+2Ch]
  00405568: 85 C0              test        eax,eax
  0040556A: 0F 84 96 00 00 00  je          00405606
  00405570: 85 ED              test        ebp,ebp
  00405572: 0F 8E 8E 00 00 00  jle         00405606
  00405578: 8B 74 24 14        mov         esi,dword ptr [esp+14h]
  0040557C: 8D 5D FF           lea         ebx,[ebp-1]
  0040557F: 66 8B 06           mov         ax,word ptr [esi]
  00405582: 8D 54 24 48        lea         edx,[esp+48h]
  00405586: 50                 push        eax
  00405587: 52                 push        edx
  00405588: 83 C6 02           add         esi,2
  0040558B: E8 10 27 00 00     call        00407CA0
  00405590: 83 C4 08           add         esp,8
  00405593: 85 C0              test        eax,eax
  00405595: 7E 22              jle         004055B9
  00405597: 8B 94 24 60 02 00  mov         edx,dword ptr [esp+00000260h]
            00
  0040559E: 8D 4C 24 1C        lea         ecx,[esp+1Ch]
  004055A2: 51                 push        ecx
  004055A3: 52                 push        edx
  004055A4: 50                 push        eax
  004055A5: 8D 44 24 54        lea         eax,[esp+54h]
  004055A9: 50                 push        eax
  004055AA: E8 11 02 00 00     call        004057C0
  004055AF: 83 C4 10           add         esp,10h
  004055B2: 8B CB              mov         ecx,ebx
  004055B4: 4B                 dec         ebx
  004055B5: 85 C9              test        ecx,ecx
  004055B7: 75 C6              jne         0040557F
  004055B9: 8B 5C 24 10        mov         ebx,dword ptr [esp+10h]
  004055BD: F6 C3 04           test        bl,4
  004055C0: 74 18              je          004055DA
  004055C2: 8B 94 24 60 02 00  mov         edx,dword ptr [esp+00000260h]
            00
  004055C9: 8D 4C 24 1C        lea         ecx,[esp+1Ch]
  004055CD: 51                 push        ecx
  004055CE: 52                 push        edx
  004055CF: 57                 push        edi
  004055D0: 6A 20              push        20h
  004055D2: E8 A9 01 00 00     call        00405780
  004055D7: 83 C4 10           add         esp,10h
  004055DA: 8B BC 24 64 02 00  mov         edi,dword ptr [esp+00000264h]
            00
  004055E1: 8A 1F              mov         bl,byte ptr [edi]
  004055E3: 47                 inc         edi
  004055E4: 84 DB              test        bl,bl
  004055E6: 88 5C 24 40        mov         byte ptr [esp+40h],bl
  004055EA: 89 BC 24 64 02 00  mov         dword ptr [esp+00000264h],edi
            00
  004055F1: 0F 85 DE F7 FF FF  jne         00404DD5
  004055F7: 8B 44 24 1C        mov         eax,dword ptr [esp+1Ch]
  004055FB: 5F                 pop         edi
  004055FC: 5E                 pop         esi
  004055FD: 5D                 pop         ebp
  004055FE: 5B                 pop         ebx
  004055FF: 81 C4 4C 02 00 00  add         esp,24Ch
  00405605: C3                 ret
  00405606: 8B 44 24 14        mov         eax,dword ptr [esp+14h]
  0040560A: 8D 54 24 1C        lea         edx,[esp+1Ch]
  0040560E: 52                 push        edx
  0040560F: 56                 push        esi
  00405610: 55                 push        ebp
  00405611: 50                 push        eax
  00405612: E8 A9 01 00 00     call        004057C0
  00405617: 83 C4 10           add         esp,10h
  0040561A: EB A1              jmp         004055BD
  0040561C: A0 4F 40 00 24     mov         al,byte ptr ds:[2400404Fh]
  00405621: 4E                 dec         esi
  00405622: 40                 inc         eax
  00405623: 00 49 4E           add         byte ptr [ecx+4Eh],cl
  00405626: 40                 inc         eax
  00405627: 00 B2 4E 40 00 FC  add         byte ptr [edx+FC00404Eh],dh
  0040562D: 4E                 dec         esi
  0040562E: 40                 inc         eax
  0040562F: 00 05 4F 40 00 4A  add         byte ptr ds:[4A00404Fh],al
  00405635: 4F                 dec         edi
  00405636: 40                 inc         eax
  00405637: 00 1A              add         byte ptr [edx],bl
  00405639: 50                 push        eax
  0040563A: 40                 inc         eax
  0040563B: 00 85 4E 40 00 94  add         byte ptr [ebp+9400404Eh],al
  00405641: 4E                 dec         esi
  00405642: 40                 inc         eax
  00405643: 00 76 4E           add         byte ptr [esi+4Eh],dh
  00405646: 40                 inc         eax
  00405647: 00 67 4E           add         byte ptr [edi+4Eh],ah
  0040564A: 40                 inc         eax
  0040564B: 00 A3 4E 40 00 DA  add         byte ptr [ebx+DA00404Eh],ah
  00405651: 55                 push        ebp
  00405652: 40                 inc         eax
  00405653: 00 00              add         byte ptr [eax],al
  00405655: 05 05 01 05 05     add         eax,5050105h
  0040565A: 05 05 05 05 05     add         eax,5050505h
  0040565F: 02 05 03 05 05 04  add         al,byte ptr ds:[04050503h]
  00405665: 90                 nop
  00405666: 8B FF              mov         edi,edi
  00405668: 77 4F              ja          004056B9
  0040566A: 40                 inc         eax
  0040566B: 00 FB              add         bl,bh
  0040566D: 4F                 dec         edi
  0040566E: 40                 inc         eax
  0040566F: 00 68 4F           add         byte ptr [eax+4Fh],ch
  00405672: 40                 inc         eax
  00405673: 00 0A              add         byte ptr [edx],cl
  00405675: 50                 push        eax
  00405676: 40                 inc         eax
  00405677: 00 DA              add         dl,bl
  00405679: 55                 push        ebp
  0040567A: 40                 inc         eax
  0040567B: 00 00              add         byte ptr [eax],al
  0040567D: 04 04              add         al,4
  0040567F: 04 04              add         al,4
  00405681: 04 04              add         al,4
  00405683: 04 04              add         al,4
  00405685: 04 04              add         al,4
  00405687: 04 04              add         al,4
  00405689: 04 04              add         al,4
  0040568B: 04 04              add         al,4
  0040568D: 04 04              add         al,4
  0040568F: 04 04              add         al,4
  00405691: 04 04              add         al,4
  00405693: 04 04              add         al,4
  00405695: 04 04              add         al,4
  00405697: 04 04              add         al,4
  00405699: 04 04              add         al,4
  0040569B: 01 04 04           add         dword ptr [esp+eax],eax
  0040569E: 04 02              add         al,2
  004056A0: 04 04              add         al,4
  004056A2: 04 04              add         al,4
  004056A4: 04 04              add         al,4
  004056A6: 04 04              add         al,4
  004056A8: 04 04              add         al,4
  004056AA: 03 90 38 50 40 00  add         edx,dword ptr [eax+00405038h]
  004056B0: 07                 pop         es
  004056B1: 52                 push        edx
  004056B2: 40                 inc         eax
  004056B3: 00 07              add         byte ptr [edi],al
  004056B5: 52                 push        edx
  004056B6: 40                 inc         eax
  004056B7: 00 1C 51           add         byte ptr [ecx+edx*2],bl
  004056BA: 40                 inc         eax
  004056BB: 00 10              add         byte ptr [eax],dl
  004056BD: 53                 push        ebx
  004056BE: 40                 inc         eax
  004056BF: 00 B3 50 40 00 4A  add         byte ptr [ebx+4A004050h],dh
  004056C5: 50                 push        eax
  004056C6: 40                 inc         eax
  004056C7: 00 EA              add         dl,ch
  004056C9: 52                 push        edx
  004056CA: 40                 inc         eax
  004056CB: 00 12              add         byte ptr [edx],dl
  004056CD: 52                 push        edx
  004056CE: 40                 inc         eax
  004056CF: 00 EA              add         dl,ch
  004056D1: 52                 push        edx
  004056D2: 40                 inc         eax
  004056D3: 00 C6              add         dh,al
  004056D5: 51                 push        ecx
  004056D6: 40                 inc         eax
  004056D7: 00 4C 53 40        add         byte ptr [ebx+edx*2+40h],cl
  004056DB: 00 08              add         byte ptr [eax],cl
  004056DD: 53                 push        ebx
  004056DE: 40                 inc         eax
  004056DF: 00 2E              add         byte ptr [esi],ch
  004056E1: 51                 push        ecx
  004056E2: 40                 inc         eax
  004056E3: 00 FE              add         dh,bh
  004056E5: 52                 push        edx
  004056E6: 40                 inc         eax
  004056E7: 00 1A              add         byte ptr [edx],bl
  004056E9: 53                 push        ebx
  004056EA: 40                 inc         eax
  004056EB: 00 C0              add         al,al
  004056ED: 54                 push        esp
  004056EE: 40                 inc         eax
  004056EF: 00 00              add         byte ptr [eax],al
  004056F1: 10 01              adc         byte ptr [ecx],al
  004056F3: 10 02              adc         byte ptr [edx],al
  004056F5: 10 10              adc         byte ptr [eax],dl
  004056F7: 10 10              adc         byte ptr [eax],dl
  004056F9: 10 10              adc         byte ptr [eax],dl
  004056FB: 10 10              adc         byte ptr [eax],dl
  004056FD: 10 10              adc         byte ptr [eax],dl
  004056FF: 10 03              adc         byte ptr [ebx],al
  00405701: 10 10              adc         byte ptr [eax],dl
  00405703: 10 10              adc         byte ptr [eax],dl
  00405705: 04 10              add         al,10h
  00405707: 05 10 10 10 10     add         eax,10101010h
  0040570C: 10 10              adc         byte ptr [eax],dl
  0040570E: 10 10              adc         byte ptr [eax],dl
  00405710: 06                 push        es
  00405711: 07                 pop         es
  00405712: 08 08              or          byte ptr [eax],cl
  00405714: 08 10              or          byte ptr [eax],dl
  00405716: 09 10              or          dword ptr [eax],edx
  00405718: 10 10              adc         byte ptr [eax],dl
  0040571A: 10 0A              adc         byte ptr [edx],cl
  0040571C: 0B 0C 10           or          ecx,dword ptr [eax+edx]
  0040571F: 10 0D 10 0E 10 10  adc         byte ptr ds:[10100E10h],cl
  00405725: 0F 90 90 90 90 90  seto        byte ptr [eax+90909090h]
            90
  0040572C: 90                 nop
  0040572D: 90                 nop
  0040572E: 90                 nop
  0040572F: 90                 nop
  00405730: 8B 4C 24 08        mov         ecx,dword ptr [esp+8]
  00405734: 8B 41 04           mov         eax,dword ptr [ecx+4]
  00405737: 48                 dec         eax
  00405738: 89 41 04           mov         dword ptr [ecx+4],eax
  0040573B: 78 14              js          00405751
  0040573D: 8B 11              mov         edx,dword ptr [ecx]
  0040573F: 8B 44 24 04        mov         eax,dword ptr [esp+4]
  00405743: 88 02              mov         byte ptr [edx],al
  00405745: 8B 11              mov         edx,dword ptr [ecx]
  00405747: 25 FF 00 00 00     and         eax,0FFh
  0040574C: 42                 inc         edx
  0040574D: 89 11              mov         dword ptr [ecx],edx
  0040574F: EB 0E              jmp         0040575F
  00405751: 8B 44 24 04        mov         eax,dword ptr [esp+4]
  00405755: 51                 push        ecx
  00405756: 50                 push        eax
  00405757: E8 14 F5 FF FF     call        00404C70
  0040575C: 83 C4 08           add         esp,8
  0040575F: 83 F8 FF           cmp         eax,0FFFFFFFFh
  00405762: 75 07              jne         0040576B
  00405764: 8B 4C 24 0C        mov         ecx,dword ptr [esp+0Ch]
  00405768: 89 01              mov         dword ptr [ecx],eax
  0040576A: C3                 ret
  0040576B: 8B 44 24 0C        mov         eax,dword ptr [esp+0Ch]
  0040576F: FF 00              inc         dword ptr [eax]
  00405771: C3                 ret
  00405772: 90                 nop
  00405773: 90                 nop
  00405774: 90                 nop
  00405775: 90                 nop
  00405776: 90                 nop
  00405777: 90                 nop
  00405778: 90                 nop
  00405779: 90                 nop
  0040577A: 90                 nop
  0040577B: 90                 nop
  0040577C: 90                 nop
  0040577D: 90                 nop
  0040577E: 90                 nop
  0040577F: 90                 nop
  00405780: 53                 push        ebx
  00405781: 55                 push        ebp
  00405782: 8B 6C 24 10        mov         ebp,dword ptr [esp+10h]
  00405786: 56                 push        esi
  00405787: 8B C5              mov         eax,ebp
  00405789: 4D                 dec         ebp
  0040578A: 85 C0              test        eax,eax
  0040578C: 57                 push        edi
  0040578D: 7E 25              jle         004057B4
  0040578F: 8B 74 24 20        mov         esi,dword ptr [esp+20h]
  00405793: 8B 7C 24 1C        mov         edi,dword ptr [esp+1Ch]
  00405797: 8B 5C 24 14        mov         ebx,dword ptr [esp+14h]
  0040579B: 56                 push        esi
  0040579C: 57                 push        edi
  0040579D: 53                 push        ebx
  0040579E: E8 8D FF FF FF     call        00405730
  004057A3: 8B 06              mov         eax,dword ptr [esi]
  004057A5: 83 C4 0C           add         esp,0Ch
  004057A8: 83 F8 FF           cmp         eax,0FFFFFFFFh
  004057AB: 74 07              je          004057B4
  004057AD: 8B CD              mov         ecx,ebp
  004057AF: 4D                 dec         ebp
  004057B0: 85 C9              test        ecx,ecx
  004057B2: 7F E7              jg          0040579B
  004057B4: 5F                 pop         edi
  004057B5: 5E                 pop         esi
  004057B6: 5D                 pop         ebp
  004057B7: 5B                 pop         ebx
  004057B8: C3                 ret
  004057B9: 90                 nop
  004057BA: 90                 nop
  004057BB: 90                 nop
  004057BC: 90                 nop
  004057BD: 90                 nop
  004057BE: 90                 nop
  004057BF: 90                 nop
  004057C0: 53                 push        ebx
  004057C1: 55                 push        ebp
  004057C2: 8B 6C 24 10        mov         ebp,dword ptr [esp+10h]
  004057C6: 56                 push        esi
  004057C7: 8B C5              mov         eax,ebp
  004057C9: 4D                 dec         ebp
  004057CA: 85 C0              test        eax,eax
  004057CC: 57                 push        edi
  004057CD: 7E 29              jle         004057F8
  004057CF: 8B 7C 24 20        mov         edi,dword ptr [esp+20h]
  004057D3: 8B 5C 24 1C        mov         ebx,dword ptr [esp+1Ch]
  004057D7: 8B 74 24 14        mov         esi,dword ptr [esp+14h]
  004057DB: 0F BE 06           movsx       eax,byte ptr [esi]
  004057DE: 57                 push        edi
  004057DF: 53                 push        ebx
  004057E0: 50                 push        eax
  004057E1: 46                 inc         esi
  004057E2: E8 49 FF FF FF     call        00405730
  004057E7: 8B 07              mov         eax,dword ptr [edi]
  004057E9: 83 C4 0C           add         esp,0Ch
  004057EC: 83 F8 FF           cmp         eax,0FFFFFFFFh
  004057EF: 74 07              je          004057F8
  004057F1: 8B CD              mov         ecx,ebp
  004057F3: 4D                 dec         ebp
  004057F4: 85 C9              test        ecx,ecx
  004057F6: 7F E3              jg          004057DB
  004057F8: 5F                 pop         edi
  004057F9: 5E                 pop         esi
  004057FA: 5D                 pop         ebp
  004057FB: 5B                 pop         ebx
  004057FC: C3                 ret
  004057FD: 90                 nop
  004057FE: 90                 nop
  004057FF: 90                 nop
  00405800: 8B 44 24 04        mov         eax,dword ptr [esp+4]
  00405804: 8B 08              mov         ecx,dword ptr [eax]
  00405806: 83 C1 04           add         ecx,4
  00405809: 89 08              mov         dword ptr [eax],ecx
  0040580B: 8B C1              mov         eax,ecx
  0040580D: 8B 40 FC           mov         eax,dword ptr [eax-4]
  00405810: C3                 ret
  00405811: 90                 nop
  00405812: 90                 nop
  00405813: 90                 nop
  00405814: 90                 nop
  00405815: 90                 nop
  00405816: 90                 nop
  00405817: 90                 nop
  00405818: 90                 nop
  00405819: 90                 nop
  0040581A: 90                 nop
  0040581B: 90                 nop
  0040581C: 90                 nop
  0040581D: 90                 nop
  0040581E: 90                 nop
  0040581F: 90                 nop
  00405820: 8B 44 24 04        mov         eax,dword ptr [esp+4]
  00405824: 8B 08              mov         ecx,dword ptr [eax]
  00405826: 83 C1 08           add         ecx,8
  00405829: 89 08              mov         dword ptr [eax],ecx
  0040582B: 8B 41 F8           mov         eax,dword ptr [ecx-8]
  0040582E: 8B 51 FC           mov         edx,dword ptr [ecx-4]
  00405831: C3                 ret
  00405832: 90                 nop
  00405833: 90                 nop
  00405834: 90                 nop
  00405835: 90                 nop
  00405836: 90                 nop
  00405837: 90                 nop
  00405838: 90                 nop
  00405839: 90                 nop
  0040583A: 90                 nop
  0040583B: 90                 nop
  0040583C: 90                 nop
  0040583D: 90                 nop
  0040583E: 90                 nop
  0040583F: 90                 nop
  00405840: 8B 44 24 04        mov         eax,dword ptr [esp+4]
  00405844: 8B 08              mov         ecx,dword ptr [eax]
  00405846: 83 C1 04           add         ecx,4
  00405849: 89 08              mov         dword ptr [eax],ecx
  0040584B: 8B C1              mov         eax,ecx
  0040584D: 66 8B 40 FC        mov         ax,word ptr [eax-4]
  00405851: C3                 ret
  00405852: 90                 nop
  00405853: 90                 nop
  00405854: 90                 nop
  00405855: 90                 nop
  00405856: 90                 nop
  00405857: 90                 nop
  00405858: 90                 nop
  00405859: 90                 nop
  0040585A: 90                 nop
  0040585B: 90                 nop
  0040585C: 90                 nop
  0040585D: 90                 nop
  0040585E: 90                 nop
  0040585F: 90                 nop
  00405860: A1 CC 0C 41 00     mov         eax,dword ptr ds:[00410CCCh]
  00405865: 85 C0              test        eax,eax
  00405867: 74 14              je          0040587D
  00405869: 8B 4C 24 04        mov         ecx,dword ptr [esp+4]
  0040586D: 51                 push        ecx
  0040586E: FF D0              call        eax
  00405870: 83 C4 04           add         esp,4
  00405873: 85 C0              test        eax,eax
  00405875: 74 06              je          0040587D
  00405877: B8 01 00 00 00     mov         eax,1
  0040587C: C3                 ret
  0040587D: 33 C0              xor         eax,eax
  0040587F: C3                 ret
  00405880: 6A 00              push        0
  00405882: 68 00 10 00 00     push        1000h
  00405887: 6A 00              push        0
  00405889: FF 15 D0 33 41 00  call        dword ptr ds:[004133D0h]
  0040588F: 85 C0              test        eax,eax
  00405891: A3 84 22 41 00     mov         dword ptr ds:[00412284h],eax
  00405896: 75 01              jne         00405899
  00405898: C3                 ret
  00405899: E8 D2 01 00 00     call        00405A70
  0040589E: 85 C0              test        eax,eax
  004058A0: 75 0F              jne         004058B1
  004058A2: A1 84 22 41 00     mov         eax,dword ptr ds:[00412284h]
  004058A7: 50                 push        eax
  004058A8: FF 15 D4 33 41 00  call        dword ptr ds:[004133D4h]
  004058AE: 33 C0              xor         eax,eax
  004058B0: C3                 ret
  004058B1: B8 01 00 00 00     mov         eax,1
  004058B6: C3                 ret
  004058B7: 90                 nop
  004058B8: 90                 nop
  004058B9: 90                 nop
  004058BA: 90                 nop
  004058BB: 90                 nop
  004058BC: 90                 nop
  004058BD: 90                 nop
  004058BE: 90                 nop
  004058BF: 90                 nop
  004058C0: A1 9C D5 40 00     mov         eax,dword ptr ds:[0040D59Ch]
  004058C5: 56                 push        esi
  004058C6: 8B 35 1C 34 41 00  mov         esi,dword ptr ds:[0041341Ch]
  004058CC: 50                 push        eax
  004058CD: FF D6              call        esi
  004058CF: 8B 0D 8C D5 40 00  mov         ecx,dword ptr ds:[0040D58Ch]
  004058D5: 51                 push        ecx
  004058D6: FF D6              call        esi
  004058D8: 8B 15 7C D5 40 00  mov         edx,dword ptr ds:[0040D57Ch]
  004058DE: 52                 push        edx
  004058DF: FF D6              call        esi
  004058E1: A1 5C D5 40 00     mov         eax,dword ptr ds:[0040D55Ch]
  004058E6: 50                 push        eax
  004058E7: FF D6              call        esi
  004058E9: 5E                 pop         esi
  004058EA: C3                 ret
  004058EB: 90                 nop
  004058EC: 90                 nop
  004058ED: 90                 nop
  004058EE: 90                 nop
  004058EF: 90                 nop
  004058F0: 55                 push        ebp
  004058F1: 8B EC              mov         ebp,esp
  004058F3: 57                 push        edi
  004058F4: 8B 7D 08           mov         edi,dword ptr [ebp+8]
  004058F7: 8B 04 BD 58 D5 40  mov         eax,dword ptr [edi*4+0040D558h]
            00
  004058FE: 85 C0              test        eax,eax
  00405900: 75 53              jne         00405955
  00405902: 56                 push        esi
  00405903: 6A 18              push        18h
  00405905: E8 56 E6 FF FF     call        00403F60
  0040590A: 8B F0              mov         esi,eax
  0040590C: 83 C4 04           add         esp,4
  0040590F: 85 F6              test        esi,esi
  00405911: 75 0A              jne         0040591D
  00405913: 6A 11              push        11h
  00405915: E8 26 F3 FF FF     call        00404C40
  0040591A: 83 C4 04           add         esp,4
  0040591D: 6A 11              push        11h
  0040591F: E8 CC FF FF FF     call        004058F0
  00405924: 8B 04 BD 58 D5 40  mov         eax,dword ptr [edi*4+0040D558h]
            00
  0040592B: 83 C4 04           add         esp,4
  0040592E: 85 C0              test        eax,eax
  00405930: 56                 push        esi
  00405931: 75 0F              jne         00405942
  00405933: FF 15 1C 34 41 00  call        dword ptr ds:[0041341Ch]
  00405939: 89 34 BD 58 D5 40  mov         dword ptr [edi*4+0040D558h],esi
            00
  00405940: EB 08              jmp         0040594A
  00405942: E8 A9 E5 FF FF     call        00403EF0
  00405947: 83 C4 04           add         esp,4
  0040594A: 6A 11              push        11h
  0040594C: E8 1F 00 00 00     call        00405970
  00405951: 83 C4 04           add         esp,4
  00405954: 5E                 pop         esi
  00405955: 8B 04 BD 58 D5 40  mov         eax,dword ptr [edi*4+0040D558h]
            00
  0040595C: 50                 push        eax
  0040595D: FF 15 28 34 41 00  call        dword ptr ds:[00413428h]
  00405963: 5F                 pop         edi
  00405964: 5D                 pop         ebp
  00405965: C3                 ret
  00405966: 90                 nop
  00405967: 90                 nop
  00405968: 90                 nop
  00405969: 90                 nop
  0040596A: 90                 nop
  0040596B: 90                 nop
  0040596C: 90                 nop
  0040596D: 90                 nop
  0040596E: 90                 nop
  0040596F: 90                 nop
  00405970: 55                 push        ebp
  00405971: 8B EC              mov         ebp,esp
  00405973: 8B 45 08           mov         eax,dword ptr [ebp+8]
  00405976: 8B 0C 85 58 D5 40  mov         ecx,dword ptr [eax*4+0040D558h]
            00
  0040597D: 51                 push        ecx
  0040597E: FF 15 34 33 41 00  call        dword ptr ds:[00413334h]
  00405984: 5D                 pop         ebp
  00405985: C3                 ret
  00405986: 90                 nop
  00405987: 90                 nop
  00405988: 90                 nop
  00405989: 90                 nop
  0040598A: 90                 nop
  0040598B: 90                 nop
  0040598C: 90                 nop
  0040598D: 90                 nop
  0040598E: 90                 nop
  0040598F: 90                 nop
  00405990: 55                 push        ebp
  00405991: 8B EC              mov         ebp,esp
  00405993: 8B 45 08           mov         eax,dword ptr [ebp+8]
  00405996: 3D 40 F6 40 00     cmp         eax,40F640h
  0040599B: 72 1D              jb          004059BA
  0040599D: 3D A0 F8 40 00     cmp         eax,40F8A0h
  004059A2: 77 16              ja          004059BA
  004059A4: 2D 40 F6 40 00     sub         eax,40F640h
  004059A9: C1 F8 05           sar         eax,5
  004059AC: 83 C0 1C           add         eax,1Ch
  004059AF: 50                 push        eax
  004059B0: E8 3B FF FF FF     call        004058F0
  004059B5: 83 C4 04           add         esp,4
  004059B8: 5D                 pop         ebp
  004059B9: C3                 ret
  004059BA: 83 C0 20           add         eax,20h
  004059BD: 50                 push        eax
  004059BE: FF 15 28 34 41 00  call        dword ptr ds:[00413428h]
  004059C4: 5D                 pop         ebp
  004059C5: C3                 ret
  004059C6: 90                 nop
  004059C7: 90                 nop
  004059C8: 90                 nop
  004059C9: 90                 nop
  004059CA: 90                 nop
  004059CB: 90                 nop
  004059CC: 90                 nop
  004059CD: 90                 nop
  004059CE: 90                 nop
  004059CF: 90                 nop
  004059D0: 55                 push        ebp
  004059D1: 8B EC              mov         ebp,esp
  004059D3: 8B 45 08           mov         eax,dword ptr [ebp+8]
  004059D6: 83 F8 14           cmp         eax,14h
  004059D9: 7D 0E              jge         004059E9
  004059DB: 83 C0 1C           add         eax,1Ch
  004059DE: 50                 push        eax
  004059DF: E8 0C FF FF FF     call        004058F0
  004059E4: 83 C4 04           add         esp,4
  004059E7: 5D                 pop         ebp
  004059E8: C3                 ret
  004059E9: 8B 45 0C           mov         eax,dword ptr [ebp+0Ch]
  004059EC: 83 C0 20           add         eax,20h
  004059EF: 50                 push        eax
  004059F0: FF 15 28 34 41 00  call        dword ptr ds:[00413428h]
  004059F6: 5D                 pop         ebp
  004059F7: C3                 ret
  004059F8: 90                 nop
  004059F9: 90                 nop
  004059FA: 90                 nop
  004059FB: 90                 nop
  004059FC: 90                 nop
  004059FD: 90                 nop
  004059FE: 90                 nop
  004059FF: 90                 nop
  00405A00: 55                 push        ebp
  00405A01: 8B EC              mov         ebp,esp
  00405A03: 8B 45 08           mov         eax,dword ptr [ebp+8]
  00405A06: 3D 40 F6 40 00     cmp         eax,40F640h
  00405A0B: 72 1D              jb          00405A2A
  00405A0D: 3D A0 F8 40 00     cmp         eax,40F8A0h
  00405A12: 77 16              ja          00405A2A
  00405A14: 2D 40 F6 40 00     sub         eax,40F640h
  00405A19: C1 F8 05           sar         eax,5
  00405A1C: 83 C0 1C           add         eax,1Ch
  00405A1F: 50                 push        eax
  00405A20: E8 4B FF FF FF     call        00405970
  00405A25: 83 C4 04           add         esp,4
  00405A28: 5D                 pop         ebp
  00405A29: C3                 ret
  00405A2A: 83 C0 20           add         eax,20h
  00405A2D: 50                 push        eax
  00405A2E: FF 15 34 33 41 00  call        dword ptr ds:[00413334h]
  00405A34: 5D                 pop         ebp
  00405A35: C3                 ret
  00405A36: 90                 nop
  00405A37: 90                 nop
  00405A38: 90                 nop
  00405A39: 90                 nop
  00405A3A: 90                 nop
  00405A3B: 90                 nop
  00405A3C: 90                 nop
  00405A3D: 90                 nop
  00405A3E: 90                 nop
  00405A3F: 90                 nop
  00405A40: 55                 push        ebp
  00405A41: 8B EC              mov         ebp,esp
  00405A43: 8B 45 08           mov         eax,dword ptr [ebp+8]
  00405A46: 83 F8 14           cmp         eax,14h
  00405A49: 7D 0E              jge         00405A59
  00405A4B: 83 C0 1C           add         eax,1Ch
  00405A4E: 50                 push        eax
  00405A4F: E8 1C FF FF FF     call        00405970
  00405A54: 83 C4 04           add         esp,4
  00405A57: 5D                 pop         ebp
  00405A58: C3                 ret
  00405A59: 8B 45 0C           mov         eax,dword ptr [ebp+0Ch]
  00405A5C: 83 C0 20           add         eax,20h
  00405A5F: 50                 push        eax
  00405A60: FF 15 34 33 41 00  call        dword ptr ds:[00413334h]
  00405A66: 5D                 pop         ebp
  00405A67: C3                 ret
  00405A68: 90                 nop
  00405A69: 90                 nop
  00405A6A: 90                 nop
  00405A6B: 90                 nop
  00405A6C: 90                 nop
  00405A6D: 90                 nop
  00405A6E: 90                 nop
  00405A6F: 90                 nop
  00405A70: A1 28 D6 40 00     mov         eax,dword ptr ds:[0040D628h]
  00405A75: 55                 push        ebp
  00405A76: 56                 push        esi
  00405A77: 83 F8 FF           cmp         eax,0FFFFFFFFh
  00405A7A: 57                 push        edi
  00405A7B: 75 07              jne         00405A84
  00405A7D: BD 18 D6 40 00     mov         ebp,40D618h
  00405A82: EB 1D              jmp         00405AA1
  00405A84: A1 84 22 41 00     mov         eax,dword ptr ds:[00412284h]
  00405A89: 68 20 20 00 00     push        2020h
  00405A8E: 6A 00              push        0
  00405A90: 50                 push        eax
  00405A91: FF 15 68 34 41 00  call        dword ptr ds:[00413468h]
  00405A97: 8B E8              mov         ebp,eax
  00405A99: 85 ED              test        ebp,ebp
  00405A9B: 0F 84 2B 01 00 00  je          00405BCC
  00405AA1: 8B 3D C4 33 41 00  mov         edi,dword ptr ds:[004133C4h]
  00405AA7: 6A 04              push        4
  00405AA9: 68 00 20 00 00     push        2000h
  00405AAE: 68 00 00 40 00     push        400000h
  00405AB3: 6A 00              push        0
  00405AB5: FF D7              call        edi
  00405AB7: 8B F0              mov         esi,eax
  00405AB9: 85 F6              test        esi,esi
  00405ABB: 0F 84 F4 00 00 00  je          00405BB5
  00405AC1: 6A 04              push        4
  00405AC3: 68 00 10 00 00     push        1000h
  00405AC8: 68 00 00 01 00     push        10000h
  00405ACD: 56                 push        esi
  00405ACE: FF D7              call        edi
  00405AD0: 85 C0              test        eax,eax
  00405AD2: 0F 84 CF 00 00 00  je          00405BA7
  00405AD8: 81 FD 18 D6 40 00  cmp         ebp,40D618h
  00405ADE: 75 28              jne         00405B08
  00405AE0: A1 18 D6 40 00     mov         eax,dword ptr ds:[0040D618h]
  00405AE5: 85 C0              test        eax,eax
  00405AE7: 75 0A              jne         00405AF3
  00405AE9: C7 05 18 D6 40 00  mov         dword ptr ds:[0040D618h],40D618h
            18 D6 40 00
  00405AF3: A1 1C D6 40 00     mov         eax,dword ptr ds:[0040D61Ch]
  00405AF8: 85 C0              test        eax,eax
  00405AFA: 75 27              jne         00405B23
  00405AFC: C7 05 1C D6 40 00  mov         dword ptr ds:[0040D61Ch],40D618h
            18 D6 40 00
  00405B06: EB 1B              jmp         00405B23
  00405B08: C7 45 00 18 D6 40  mov         dword ptr [ebp],40D618h
            00
  00405B0F: 8B 0D 1C D6 40 00  mov         ecx,dword ptr ds:[0040D61Ch]
  00405B15: 89 4D 04           mov         dword ptr [ebp+4],ecx
  00405B18: 89 2D 1C D6 40 00  mov         dword ptr ds:[0040D61Ch],ebp
  00405B1E: 8B 55 04           mov         edx,dword ptr [ebp+4]
  00405B21: 89 2A              mov         dword ptr [edx],ebp
  00405B23: 8D 86 00 00 40 00  lea         eax,[esi+00400000h]
  00405B29: 8D 4D 18           lea         ecx,[ebp+18h]
  00405B2C: 8D 95 98 00 00 00  lea         edx,[ebp+00000098h]
  00405B32: 89 45 14           mov         dword ptr [ebp+14h],eax
  00405B35: 89 75 10           mov         dword ptr [ebp+10h],esi
  00405B38: 89 4D 08           mov         dword ptr [ebp+8],ecx
  00405B3B: 89 55 0C           mov         dword ptr [ebp+0Ch],edx
  00405B3E: 33 C0              xor         eax,eax
  00405B40: BF F1 00 00 00     mov         edi,0F1h
  00405B45: 33 D2              xor         edx,edx
  00405B47: 83 F8 10           cmp         eax,10h
  00405B4A: 0F 9D C2           setge       dl
  00405B4D: 4A                 dec         edx
  00405B4E: 83 C1 08           add         ecx,8
  00405B51: 23 D7              and         edx,edi
  00405B53: 4A                 dec         edx
  00405B54: 40                 inc         eax
  00405B55: 89 51 F8           mov         dword ptr [ecx-8],edx
  00405B58: 89 79 FC           mov         dword ptr [ecx-4],edi
  00405B5B: 3D 00 04 00 00     cmp         eax,400h
  00405B60: 7C E3              jl          00405B45
  00405B62: B9 00 40 00 00     mov         ecx,4000h
  00405B67: 33 C0              xor         eax,eax
  00405B69: 8B FE              mov         edi,esi
  00405B6B: F3 AB              rep stos    dword ptr es:[edi]
  00405B6D: 8B 45 10           mov         eax,dword ptr [ebp+10h]
  00405B70: 05 00 00 01 00     add         eax,10000h
  00405B75: 3B F0              cmp         esi,eax
  00405B77: 73 28              jae         00405BA1
  00405B79: B9 F0 00 00 00     mov         ecx,0F0h
  00405B7E: B0 FF              mov         al,0FFh
  00405B80: 8D 56 08           lea         edx,[esi+8]
  00405B83: 89 4E 04           mov         dword ptr [esi+4],ecx
  00405B86: 89 16              mov         dword ptr [esi],edx
  00405B88: 88 86 F8 00 00 00  mov         byte ptr [esi+000000F8h],al
  00405B8E: 8B 55 10           mov         edx,dword ptr [ebp+10h]
  00405B91: 81 C6 00 10 00 00  add         esi,1000h
  00405B97: 81 C2 00 00 01 00  add         edx,10000h
  00405B9D: 3B F2              cmp         esi,edx
  00405B9F: 72 DF              jb          00405B80
  00405BA1: 8B C5              mov         eax,ebp
  00405BA3: 5F                 pop         edi
  00405BA4: 5E                 pop         esi
  00405BA5: 5D                 pop         ebp
  00405BA6: C3                 ret
  00405BA7: 68 00 80 00 00     push        8000h
  00405BAC: 6A 00              push        0
  00405BAE: 56                 push        esi
  00405BAF: FF 15 CC 33 41 00  call        dword ptr ds:[004133CCh]
  00405BB5: 81 FD 18 D6 40 00  cmp         ebp,40D618h
  00405BBB: 74 0F              je          00405BCC
  00405BBD: A1 84 22 41 00     mov         eax,dword ptr ds:[00412284h]
  00405BC2: 55                 push        ebp
  00405BC3: 6A 00              push        0
  00405BC5: 50                 push        eax
  00405BC6: FF 15 44 34 41 00  call        dword ptr ds:[00413444h]
  00405BCC: 5F                 pop         edi
  00405BCD: 5E                 pop         esi
  00405BCE: 33 C0              xor         eax,eax
  00405BD0: 5D                 pop         ebp
  00405BD1: C3                 ret
  00405BD2: 90                 nop
  00405BD3: 90                 nop
  00405BD4: 90                 nop
  00405BD5: 90                 nop
  00405BD6: 90                 nop
  00405BD7: 90                 nop
  00405BD8: 90                 nop
  00405BD9: 90                 nop
  00405BDA: 90                 nop
  00405BDB: 90                 nop
  00405BDC: 90                 nop
  00405BDD: 90                 nop
  00405BDE: 90                 nop
  00405BDF: 90                 nop
  00405BE0: 56                 push        esi
  00405BE1: 8B 74 24 08        mov         esi,dword ptr [esp+8]
  00405BE5: 68 00 80 00 00     push        8000h
  00405BEA: 6A 00              push        0
  00405BEC: 8B 46 10           mov         eax,dword ptr [esi+10h]
  00405BEF: 50                 push        eax
  00405BF0: FF 15 CC 33 41 00  call        dword ptr ds:[004133CCh]
  00405BF6: 39 35 38 F6 40 00  cmp         dword ptr ds:[0040F638h],esi
  00405BFC: 75 09              jne         00405C07
  00405BFE: 8B 4E 04           mov         ecx,dword ptr [esi+4]
  00405C01: 89 0D 38 F6 40 00  mov         dword ptr ds:[0040F638h],ecx
  00405C07: 81 FE 18 D6 40 00  cmp         esi,40D618h
  00405C0D: 74 20              je          00405C2F
  00405C0F: 8B 56 04           mov         edx,dword ptr [esi+4]
  00405C12: 8B 06              mov         eax,dword ptr [esi]
  00405C14: 56                 push        esi
  00405C15: 6A 00              push        0
  00405C17: 89 02              mov         dword ptr [edx],eax
  00405C19: 8B 0E              mov         ecx,dword ptr [esi]
  00405C1B: 8B 56 04           mov         edx,dword ptr [esi+4]
  00405C1E: 89 51 04           mov         dword ptr [ecx+4],edx
  00405C21: A1 84 22 41 00     mov         eax,dword ptr ds:[00412284h]
  00405C26: 50                 push        eax
  00405C27: FF 15 44 34 41 00  call        dword ptr ds:[00413444h]
  00405C2D: 5E                 pop         esi
  00405C2E: C3                 ret
  00405C2F: C7 05 28 D6 40 00  mov         dword ptr ds:[0040D628h],0FFFFFFFFh
            FF FF FF FF
  00405C39: 5E                 pop         esi
  00405C3A: C3                 ret
  00405C3B: 90                 nop
  00405C3C: 90                 nop
  00405C3D: 90                 nop
  00405C3E: 90                 nop
  00405C3F: 90                 nop
  00405C40: 53                 push        ebx
  00405C41: 55                 push        ebp
  00405C42: 56                 push        esi
  00405C43: 57                 push        edi
  00405C44: 8B 3D 1C D6 40 00  mov         edi,dword ptr ds:[0040D61Ch]
  00405C4A: 83 7F 10 FF        cmp         dword ptr [edi+10h],0FFFFFFFFh
  00405C4E: 0F 84 A0 00 00 00  je          00405CF4
  00405C54: 33 ED              xor         ebp,ebp
  00405C56: 8D B7 10 20 00 00  lea         esi,[edi+00002010h]
  00405C5C: BB 00 F0 3F 00     mov         ebx,3FF000h
  00405C61: 81 3E F0 00 00 00  cmp         dword ptr [esi],0F0h
  00405C67: 75 47              jne         00405CB0
  00405C69: 8B 47 10           mov         eax,dword ptr [edi+10h]
  00405C6C: 68 00 40 00 00     push        4000h
  00405C71: 03 C3              add         eax,ebx
  00405C73: 68 00 10 00 00     push        1000h
  00405C78: 50                 push        eax
  00405C79: FF 15 CC 33 41 00  call        dword ptr ds:[004133CCh]
  00405C7F: 85 C0              test        eax,eax
  00405C81: 74 2D              je          00405CB0
  00405C83: C7 06 FF FF FF FF  mov         dword ptr [esi],0FFFFFFFFh
  00405C89: 8B 15 38 0D 41 00  mov         edx,dword ptr ds:[00410D38h]
  00405C8F: 4A                 dec         edx
  00405C90: 89 15 38 0D 41 00  mov         dword ptr ds:[00410D38h],edx
  00405C96: 8B 47 0C           mov         eax,dword ptr [edi+0Ch]
  00405C99: 85 C0              test        eax,eax
  00405C9B: 74 04              je          00405CA1
  00405C9D: 3B C6              cmp         eax,esi
  00405C9F: 76 03              jbe         00405CA4
  00405CA1: 89 77 0C           mov         dword ptr [edi+0Ch],esi
  00405CA4: 8B 44 24 14        mov         eax,dword ptr [esp+14h]
  00405CA8: 45                 inc         ebp
  00405CA9: 48                 dec         eax
  00405CAA: 89 44 24 14        mov         dword ptr [esp+14h],eax
  00405CAE: 74 0D              je          00405CBD
  00405CB0: 81 EB 00 10 00 00  sub         ebx,1000h
  00405CB6: 83 EE 08           sub         esi,8
  00405CB9: 85 DB              test        ebx,ebx
  00405CBB: 7D A4              jge         00405C61
  00405CBD: 8B D7              mov         edx,edi
  00405CBF: 8B 7F 04           mov         edi,dword ptr [edi+4]
  00405CC2: 85 ED              test        ebp,ebp
  00405CC4: 74 2E              je          00405CF4
  00405CC6: 83 7A 18 FF        cmp         dword ptr [edx+18h],0FFFFFFFFh
  00405CCA: 75 28              jne         00405CF4
  00405CCC: B8 01 00 00 00     mov         eax,1
  00405CD1: 8D 4A 20           lea         ecx,[edx+20h]
  00405CD4: 83 39 FF           cmp         dword ptr [ecx],0FFFFFFFFh
  00405CD7: 75 0B              jne         00405CE4
  00405CD9: 40                 inc         eax
  00405CDA: 83 C1 08           add         ecx,8
  00405CDD: 3D 00 04 00 00     cmp         eax,400h
  00405CE2: 7C F0              jl          00405CD4
  00405CE4: 3D 00 04 00 00     cmp         eax,400h
  00405CE9: 75 09              jne         00405CF4
  00405CEB: 52                 push        edx
  00405CEC: E8 EF FE FF FF     call        00405BE0
  00405CF1: 83 C4 04           add         esp,4
  00405CF4: 3B 3D 1C D6 40 00  cmp         edi,dword ptr ds:[0040D61Ch]
  00405CFA: 74 0C              je          00405D08
  00405CFC: 8B 44 24 14        mov         eax,dword ptr [esp+14h]
  00405D00: 85 C0              test        eax,eax
  00405D02: 0F 8F 42 FF FF FF  jg          00405C4A
  00405D08: 5F                 pop         edi
  00405D09: 5E                 pop         esi
  00405D0A: 5D                 pop         ebp
  00405D0B: 5B                 pop         ebx
  00405D0C: C3                 ret
  00405D0D: 90                 nop
  00405D0E: 90                 nop
  00405D0F: 90                 nop
  00405D10: 8B 4C 24 04        mov         ecx,dword ptr [esp+4]
  00405D14: B8 18 D6 40 00     mov         eax,40D618h
  00405D19: 3B 48 10           cmp         ecx,dword ptr [eax+10h]
  00405D1C: 76 05              jbe         00405D23
  00405D1E: 3B 48 14           cmp         ecx,dword ptr [eax+14h]
  00405D21: 72 0B              jb          00405D2E
  00405D23: 8B 00              mov         eax,dword ptr [eax]
  00405D25: 3D 18 D6 40 00     cmp         eax,40D618h
  00405D2A: 74 3A              je          00405D66
  00405D2C: EB EB              jmp         00405D19
  00405D2E: F6 C1 0F           test        cl,0Fh
  00405D31: 75 33              jne         00405D66
  00405D33: 8B D1              mov         edx,ecx
  00405D35: 81 E2 FF 0F 00 00  and         edx,0FFFh
  00405D3B: 81 FA 00 01 00 00  cmp         edx,100h
  00405D41: 72 23              jb          00405D66
  00405D43: 8B 54 24 08        mov         edx,dword ptr [esp+8]
  00405D47: 89 02              mov         dword ptr [edx],eax
  00405D49: 8B 54 24 0C        mov         edx,dword ptr [esp+0Ch]
  00405D4D: 8B C1              mov         eax,ecx
  00405D4F: 25 00 F0 FF FF     and         eax,0FFFFF000h
  00405D54: 2B C8              sub         ecx,eax
  00405D56: 89 02              mov         dword ptr [edx],eax
  00405D58: 81 E9 00 01 00 00  sub         ecx,100h
  00405D5E: C1 F9 04           sar         ecx,4
  00405D61: 8D 44 01 08        lea         eax,[ecx+eax+8]
  00405D65: C3                 ret
  00405D66: 33 C0              xor         eax,eax
  00405D68: C3                 ret
  00405D69: 90                 nop
  00405D6A: 90                 nop
  00405D6B: 90                 nop
  00405D6C: 90                 nop
  00405D6D: 90                 nop
  00405D6E: 90                 nop
  00405D6F: 90                 nop
  00405D70: 8B 44 24 04        mov         eax,dword ptr [esp+4]
  00405D74: 8B 4C 24 08        mov         ecx,dword ptr [esp+8]
  00405D78: 56                 push        esi
  00405D79: 33 D2              xor         edx,edx
  00405D7B: 2B 48 10           sub         ecx,dword ptr [eax+10h]
  00405D7E: C1 F9 0C           sar         ecx,0Ch
  00405D81: 8B 74 C8 18        mov         esi,dword ptr [eax+ecx*8+18h]
  00405D85: 8D 44 C8 18        lea         eax,[eax+ecx*8+18h]
  00405D89: 8B 4C 24 10        mov         ecx,dword ptr [esp+10h]
  00405D8D: 8A 11              mov         dl,byte ptr [ecx]
  00405D8F: 03 F2              add         esi,edx
  00405D91: 89 30              mov         dword ptr [eax],esi
  00405D93: C6 01 00           mov         byte ptr [ecx],0
  00405D96: 8B 08              mov         ecx,dword ptr [eax]
  00405D98: C7 40 04 F1 00 00  mov         dword ptr [eax+4],0F1h
            00
  00405D9F: 81 F9 F0 00 00 00  cmp         ecx,0F0h
  00405DA5: 75 1A              jne         00405DC1
  00405DA7: A1 38 0D 41 00     mov         eax,dword ptr ds:[00410D38h]
  00405DAC: 40                 inc         eax
  00405DAD: 83 F8 20           cmp         eax,20h
  00405DB0: A3 38 0D 41 00     mov         dword ptr ds:[00410D38h],eax
  00405DB5: 75 0A              jne         00405DC1
  00405DB7: 6A 10              push        10h
  00405DB9: E8 82 FE FF FF     call        00405C40
  00405DBE: 83 C4 04           add         esp,4
  00405DC1: 5E                 pop         esi
  00405DC2: C3                 ret
  00405DC3: 90                 nop
  00405DC4: 90                 nop
  00405DC5: 90                 nop
  00405DC6: 90                 nop
  00405DC7: 90                 nop
  00405DC8: 90                 nop
  00405DC9: 90                 nop
  00405DCA: 90                 nop
  00405DCB: 90                 nop
  00405DCC: 90                 nop
  00405DCD: 90                 nop
  00405DCE: 90                 nop
  00405DCF: 90                 nop
  00405DD0: 51                 push        ecx
  00405DD1: 8B 0D 38 F6 40 00  mov         ecx,dword ptr ds:[0040F638h]
  00405DD7: 53                 push        ebx
  00405DD8: 8B 5C 24 0C        mov         ebx,dword ptr [esp+0Ch]
  00405DDC: 55                 push        ebp
  00405DDD: 56                 push        esi
  00405DDE: 57                 push        edi
  00405DDF: 89 4C 24 10        mov         dword ptr [esp+10h],ecx
  00405DE3: 8B 41 10           mov         eax,dword ptr [ecx+10h]
  00405DE6: 83 F8 FF           cmp         eax,0FFFFFFFFh
  00405DE9: 0F 84 85 00 00 00  je          00405E74
  00405DEF: 8B 79 08           mov         edi,dword ptr [ecx+8]
  00405DF2: 8D A9 18 20 00 00  lea         ebp,[ecx+00002018h]
  00405DF8: 8B F7              mov         esi,edi
  00405DFA: 2B F1              sub         esi,ecx
  00405DFC: 83 EE 18           sub         esi,18h
  00405DFF: C1 FE 03           sar         esi,3
  00405E02: C1 E6 0C           shl         esi,0Ch
  00405E05: 03 F0              add         esi,eax
  00405E07: 3B FD              cmp         edi,ebp
  00405E09: 73 2E              jae         00405E39
  00405E0B: 8B 07              mov         eax,dword ptr [edi]
  00405E0D: 3B C3              cmp         eax,ebx
  00405E0F: 7C 1B              jl          00405E2C
  00405E11: 39 5F 04           cmp         dword ptr [edi+4],ebx
  00405E14: 76 16              jbe         00405E2C
  00405E16: 53                 push        ebx
  00405E17: 50                 push        eax
  00405E18: 56                 push        esi
  00405E19: E8 F2 01 00 00     call        00406010
  00405E1E: 83 C4 0C           add         esp,0Ch
  00405E21: 85 C0              test        eax,eax
  00405E23: 75 63              jne         00405E88
  00405E25: 8B 4C 24 10        mov         ecx,dword ptr [esp+10h]
  00405E29: 89 5F 04           mov         dword ptr [edi+4],ebx
  00405E2C: 83 C7 08           add         edi,8
  00405E2F: 81 C6 00 10 00 00  add         esi,1000h
  00405E35: 3B FD              cmp         edi,ebp
  00405E37: 72 D2              jb          00405E0B
  00405E39: 8B 69 08           mov         ebp,dword ptr [ecx+8]
  00405E3C: 8B 79 10           mov         edi,dword ptr [ecx+10h]
  00405E3F: 8D 71 18           lea         esi,[ecx+18h]
  00405E42: 3B F5              cmp         esi,ebp
  00405E44: 73 2E              jae         00405E74
  00405E46: 8B 06              mov         eax,dword ptr [esi]
  00405E48: 3B C3              cmp         eax,ebx
  00405E4A: 7C 1B              jl          00405E67
  00405E4C: 39 5E 04           cmp         dword ptr [esi+4],ebx
  00405E4F: 76 16              jbe         00405E67
  00405E51: 53                 push        ebx
  00405E52: 50                 push        eax
  00405E53: 57                 push        edi
  00405E54: E8 B7 01 00 00     call        00406010
  00405E59: 83 C4 0C           add         esp,0Ch
  00405E5C: 85 C0              test        eax,eax
  00405E5E: 75 41              jne         00405EA1
  00405E60: 8B 4C 24 10        mov         ecx,dword ptr [esp+10h]
  00405E64: 89 5E 04           mov         dword ptr [esi+4],ebx
  00405E67: 83 C6 08           add         esi,8
  00405E6A: 81 C7 00 10 00 00  add         edi,1000h
  00405E70: 3B F5              cmp         esi,ebp
  00405E72: 72 D2              jb          00405E46
  00405E74: 8B 09              mov         ecx,dword ptr [ecx]
  00405E76: A1 38 F6 40 00     mov         eax,dword ptr ds:[0040F638h]
  00405E7B: 3B C8              cmp         ecx,eax
  00405E7D: 89 4C 24 10        mov         dword ptr [esp+10h],ecx
  00405E81: 74 37              je          00405EBA
  00405E83: E9 5B FF FF FF     jmp         00405DE3
  00405E88: 8B 4C 24 10        mov         ecx,dword ptr [esp+10h]
  00405E8C: 89 0D 38 F6 40 00  mov         dword ptr ds:[0040F638h],ecx
  00405E92: 8B 17              mov         edx,dword ptr [edi]
  00405E94: 2B D3              sub         edx,ebx
  00405E96: 89 17              mov         dword ptr [edi],edx
  00405E98: 89 79 08           mov         dword ptr [ecx+8],edi
  00405E9B: 5F                 pop         edi
  00405E9C: 5E                 pop         esi
  00405E9D: 5D                 pop         ebp
  00405E9E: 5B                 pop         ebx
  00405E9F: 59                 pop         ecx
  00405EA0: C3                 ret
  00405EA1: 8B 4C 24 10        mov         ecx,dword ptr [esp+10h]
  00405EA5: 89 0D 38 F6 40 00  mov         dword ptr ds:[0040F638h],ecx
  00405EAB: 8B 16              mov         edx,dword ptr [esi]
  00405EAD: 2B D3              sub         edx,ebx
  00405EAF: 89 16              mov         dword ptr [esi],edx
  00405EB1: 89 71 08           mov         dword ptr [ecx+8],esi
  00405EB4: 5F                 pop         edi
  00405EB5: 5E                 pop         esi
  00405EB6: 5D                 pop         ebp
  00405EB7: 5B                 pop         ebx
  00405EB8: 59                 pop         ecx
  00405EB9: C3                 ret
  00405EBA: BD 18 D6 40 00     mov         ebp,40D618h
  00405EBF: 83 C9 FF           or          ecx,0FFFFFFFFh
  00405EC2: 39 4D 10           cmp         dword ptr [ebp+10h],ecx
  00405EC5: 74 07              je          00405ECE
  00405EC7: 8B 45 0C           mov         eax,dword ptr [ebp+0Ch]
  00405ECA: 85 C0              test        eax,eax
  00405ECC: 75 11              jne         00405EDF
  00405ECE: 8B 6D 00           mov         ebp,dword ptr [ebp]
  00405ED1: 81 FD 18 D6 40 00  cmp         ebp,40D618h
  00405ED7: 0F 84 E0 00 00 00  je          00405FBD
  00405EDD: EB E3              jmp         00405EC2
  00405EDF: 8B 45 0C           mov         eax,dword ptr [ebp+0Ch]
  00405EE2: 8B 75 10           mov         esi,dword ptr [ebp+10h]
  00405EE5: 8B F8              mov         edi,eax
  00405EE7: 89 44 24 18        mov         dword ptr [esp+18h],eax
  00405EEB: 2B FD              sub         edi,ebp
  00405EED: 8B 10              mov         edx,dword ptr [eax]
  00405EEF: 83 EF 18           sub         edi,18h
  00405EF2: C1 FF 03           sar         edi,3
  00405EF5: C1 E7 0C           shl         edi,0Ch
  00405EF8: 03 FE              add         edi,esi
  00405EFA: 33 F6              xor         esi,esi
  00405EFC: 3B D1              cmp         edx,ecx
  00405EFE: 75 10              jne         00405F10
  00405F00: 83 FE 10           cmp         esi,10h
  00405F03: 7D 0B              jge         00405F10
  00405F05: 8B 50 08           mov         edx,dword ptr [eax+8]
  00405F08: 83 C0 08           add         eax,8
  00405F0B: 46                 inc         esi
  00405F0C: 3B D1              cmp         edx,ecx
  00405F0E: 74 F0              je          00405F00
  00405F10: 8B C6              mov         eax,esi
  00405F12: 6A 04              push        4
  00405F14: C1 E0 0C           shl         eax,0Ch
  00405F17: 68 00 10 00 00     push        1000h
  00405F1C: 50                 push        eax
  00405F1D: 57                 push        edi
  00405F1E: 89 44 24 20        mov         dword ptr [esp+20h],eax
  00405F22: FF 15 C4 33 41 00  call        dword ptr ds:[004133C4h]
  00405F28: 3B C7              cmp         eax,edi
  00405F2A: 0F 85 CB 00 00 00  jne         00405FFB
  00405F30: 8B 54 24 18        mov         edx,dword ptr [esp+18h]
  00405F34: 8B 44 24 10        mov         eax,dword ptr [esp+10h]
  00405F38: 33 C9              xor         ecx,ecx
  00405F3A: 85 F6              test        esi,esi
  00405F3C: 8B CA              mov         ecx,edx
  00405F3E: 7E 32              jle         00405F72
  00405F40: 8D 47 04           lea         eax,[edi+4]
  00405F43: 8D 50 04           lea         edx,[eax+4]
  00405F46: C7 00 F0 00 00 00  mov         dword ptr [eax],0F0h
  00405F4C: 89 50 FC           mov         dword ptr [eax-4],edx
  00405F4F: C6 80 F4 00 00 00  mov         byte ptr [eax+000000F4h],0FFh
            FF
  00405F56: C7 01 F0 00 00 00  mov         dword ptr [ecx],0F0h
  00405F5C: C7 41 04 F1 00 00  mov         dword ptr [ecx+4],0F1h
            00
  00405F63: 05 00 10 00 00     add         eax,1000h
  00405F68: 83 C1 08           add         ecx,8
  00405F6B: 4E                 dec         esi
  00405F6C: 75 D5              jne         00405F43
  00405F6E: 8B 54 24 18        mov         edx,dword ptr [esp+18h]
  00405F72: 8D 85 18 20 00 00  lea         eax,[ebp+00002018h]
  00405F78: 89 2D 38 F6 40 00  mov         dword ptr ds:[0040F638h],ebp
  00405F7E: 3B C8              cmp         ecx,eax
  00405F80: 73 0E              jae         00405F90
  00405F82: 83 39 FF           cmp         dword ptr [ecx],0FFFFFFFFh
  00405F85: 74 07              je          00405F8E
  00405F87: 83 C1 08           add         ecx,8
  00405F8A: 3B C8              cmp         ecx,eax
  00405F8C: 72 F4              jb          00405F82
  00405F8E: 3B C8              cmp         ecx,eax
  00405F90: 1B C0              sbb         eax,eax
  00405F92: 23 C1              and         eax,ecx
  00405F94: 89 45 0C           mov         dword ptr [ebp+0Ch],eax
  00405F97: 88 5F 08           mov         byte ptr [edi+8],bl
  00405F9A: 89 55 08           mov         dword ptr [ebp+8],edx
  00405F9D: 8B 0A              mov         ecx,dword ptr [edx]
  00405F9F: 2B CB              sub         ecx,ebx
  00405FA1: 89 0A              mov         dword ptr [edx],ecx
  00405FA3: 8B 47 04           mov         eax,dword ptr [edi+4]
  00405FA6: 2B C3              sub         eax,ebx
  00405FA8: 8D 4C 1F 08        lea         ecx,[edi+ebx+8]
  00405FAC: 89 47 04           mov         dword ptr [edi+4],eax
  00405FAF: 89 0F              mov         dword ptr [edi],ecx
  00405FB1: 8D 87 00 01 00 00  lea         eax,[edi+00000100h]
  00405FB7: 5F                 pop         edi
  00405FB8: 5E                 pop         esi
  00405FB9: 5D                 pop         ebp
  00405FBA: 5B                 pop         ebx
  00405FBB: 59                 pop         ecx
  00405FBC: C3                 ret
  00405FBD: E8 AE FA FF FF     call        00405A70
  00405FC2: 85 C0              test        eax,eax
  00405FC4: 74 35              je          00405FFB
  00405FC6: 8B 48 10           mov         ecx,dword ptr [eax+10h]
  00405FC9: 88 59 08           mov         byte ptr [ecx+8],bl
  00405FCC: 8D 54 19 08        lea         edx,[ecx+ebx+8]
  00405FD0: A3 38 F6 40 00     mov         dword ptr ds:[0040F638h],eax
  00405FD5: 89 11              mov         dword ptr [ecx],edx
  00405FD7: BA F0 00 00 00     mov         edx,0F0h
  00405FDC: 2B D3              sub         edx,ebx
  00405FDE: 81 E3 FF 00 00 00  and         ebx,0FFh
  00405FE4: 89 51 04           mov         dword ptr [ecx+4],edx
  00405FE7: 8B 50 18           mov         edx,dword ptr [eax+18h]
  00405FEA: 2B D3              sub         edx,ebx
  00405FEC: 89 50 18           mov         dword ptr [eax+18h],edx
  00405FEF: 8D 81 00 01 00 00  lea         eax,[ecx+00000100h]
  00405FF5: 5F                 pop         edi
  00405FF6: 5E                 pop         esi
  00405FF7: 5D                 pop         ebp
  00405FF8: 5B                 pop         ebx
  00405FF9: 59                 pop         ecx
  00405FFA: C3                 ret
  00405FFB: 5F                 pop         edi
  00405FFC: 5E                 pop         esi
  00405FFD: 5D                 pop         ebp
  00405FFE: 33 C0              xor         eax,eax
  00406000: 5B                 pop         ebx
  00406001: 59                 pop         ecx
  00406002: C3                 ret
  00406003: 90                 nop
  00406004: 90                 nop
  00406005: 90                 nop
  00406006: 90                 nop
  00406007: 90                 nop
  00406008: 90                 nop
  00406009: 90                 nop
  0040600A: 90                 nop
  0040600B: 90                 nop
  0040600C: 90                 nop
  0040600D: 90                 nop
  0040600E: 90                 nop
  0040600F: 90                 nop
  00406010: 8B 54 24 0C        mov         edx,dword ptr [esp+0Ch]
  00406014: 53                 push        ebx
  00406015: 55                 push        ebp
  00406016: 56                 push        esi
  00406017: 57                 push        edi
  00406018: 8B 7C 24 14        mov         edi,dword ptr [esp+14h]
  0040601C: 8B 47 04           mov         eax,dword ptr [edi+4]
  0040601F: 8B 0F              mov         ecx,dword ptr [edi]
  00406021: 3B C2              cmp         eax,edx
  00406023: 89 4C 24 14        mov         dword ptr [esp+14h],ecx
  00406027: 8B F1              mov         esi,ecx
  00406029: 8D 9F F8 00 00 00  lea         ebx,[edi+000000F8h]
  0040602F: 72 3A              jb          0040606B
  00406031: 8D 04 11           lea         eax,[ecx+edx]
  00406034: 88 11              mov         byte ptr [ecx],dl
  00406036: 3B C3              cmp         eax,ebx
  00406038: 73 10              jae         0040604A
  0040603A: 8B 37              mov         esi,dword ptr [edi]
  0040603C: 8B 47 04           mov         eax,dword ptr [edi+4]
  0040603F: 03 F2              add         esi,edx
  00406041: 2B C2              sub         eax,edx
  00406043: 89 37              mov         dword ptr [edi],esi
  00406045: 89 47 04           mov         dword ptr [edi+4],eax
  00406048: EB 0C              jmp         00406056
  0040604A: 8D 57 08           lea         edx,[edi+8]
  0040604D: C7 47 04 00 00 00  mov         dword ptr [edi+4],0
            00
  00406054: 89 17              mov         dword ptr [edi],edx
  00406056: 8D 04 7F           lea         eax,[edi+edi*2]
  00406059: 8D 04 80           lea         eax,[eax+eax*4]
  0040605C: 8B D0              mov         edx,eax
  0040605E: 8D 41 08           lea         eax,[ecx+8]
  00406061: C1 E0 04           shl         eax,4
  00406064: 2B C2              sub         eax,edx
  00406066: 5F                 pop         edi
  00406067: 5E                 pop         esi
  00406068: 5D                 pop         ebp
  00406069: 5B                 pop         ebx
  0040606A: C3                 ret
  0040606B: 03 C1              add         eax,ecx
  0040606D: 80 38 00           cmp         byte ptr [eax],0
  00406070: 74 02              je          00406074
  00406072: 8B F0              mov         esi,eax
  00406074: 8D 04 16           lea         eax,[esi+edx]
  00406077: 3B C3              cmp         eax,ebx
  00406079: 8B 5C 24 18        mov         ebx,dword ptr [esp+18h]
  0040607D: 73 75              jae         004060F4
  0040607F: 8A 06              mov         al,byte ptr [esi]
  00406081: 84 C0              test        al,al
  00406083: 75 3C              jne         004060C1
  00406085: 80 7E 01 00        cmp         byte ptr [esi+1],0
  00406089: 8D 46 01           lea         eax,[esi+1]
  0040608C: B9 01 00 00 00     mov         ecx,1
  00406091: 75 07              jne         0040609A
  00406093: 40                 inc         eax
  00406094: 41                 inc         ecx
  00406095: 80 38 00           cmp         byte ptr [eax],0
  00406098: 74 F9              je          00406093
  0040609A: 3B CA              cmp         ecx,edx
  0040609C: 73 39              jae         004060D7
  0040609E: 8B 6C 24 14        mov         ebp,dword ptr [esp+14h]
  004060A2: 3B F5              cmp         esi,ebp
  004060A4: 75 09              jne         004060AF
  004060A6: 89 4F 04           mov         dword ptr [edi+4],ecx
  004060A9: 8B F0              mov         esi,eax
  004060AB: 8B CD              mov         ecx,ebp
  004060AD: EB 19              jmp         004060C8
  004060AF: 2B D9              sub         ebx,ecx
  004060B1: 3B DA              cmp         ebx,edx
  004060B3: 0F 82 C2 00 00 00  jb          0040617B
  004060B9: 8B 4C 24 14        mov         ecx,dword ptr [esp+14h]
  004060BD: 8B F0              mov         esi,eax
  004060BF: EB 07              jmp         004060C8
  004060C1: 25 FF 00 00 00     and         eax,0FFh
  004060C6: 03 F0              add         esi,eax
  004060C8: 8D 2C 16           lea         ebp,[esi+edx]
  004060CB: 8D 87 F8 00 00 00  lea         eax,[edi+000000F8h]
  004060D1: 3B E8              cmp         ebp,eax
  004060D3: 72 AA              jb          0040607F
  004060D5: EB 1D              jmp         004060F4
  004060D7: 8D 04 16           lea         eax,[esi+edx]
  004060DA: 8D 9F F8 00 00 00  lea         ebx,[edi+000000F8h]
  004060E0: 3B C3              cmp         eax,ebx
  004060E2: 73 09              jae         004060ED
  004060E4: 2B CA              sub         ecx,edx
  004060E6: 89 07              mov         dword ptr [edi],eax
  004060E8: 89 4F 04           mov         dword ptr [edi+4],ecx
  004060EB: EB 79              jmp         00406166
  004060ED: 8D 4F 08           lea         ecx,[edi+8]
  004060F0: 89 0F              mov         dword ptr [edi],ecx
  004060F2: EB 6B              jmp         0040615F
  004060F4: 8D 6F 08           lea         ebp,[edi+8]
  004060F7: 8B F5              mov         esi,ebp
  004060F9: 3B F1              cmp         esi,ecx
  004060FB: 73 7E              jae         0040617B
  004060FD: 8D 0C 16           lea         ecx,[esi+edx]
  00406100: 8D 87 F8 00 00 00  lea         eax,[edi+000000F8h]
  00406106: 3B C8              cmp         ecx,eax
  00406108: 73 71              jae         0040617B
  0040610A: 8A 06              mov         al,byte ptr [esi]
  0040610C: 84 C0              test        al,al
  0040610E: 75 23              jne         00406133
  00406110: 80 7E 01 00        cmp         byte ptr [esi+1],0
  00406114: 8D 46 01           lea         eax,[esi+1]
  00406117: B9 01 00 00 00     mov         ecx,1
  0040611C: 75 07              jne         00406125
  0040611E: 40                 inc         eax
  0040611F: 41                 inc         ecx
  00406120: 80 38 00           cmp         byte ptr [eax],0
  00406123: 74 F9              je          0040611E
  00406125: 3B CA              cmp         ecx,edx
  00406127: 73 1E              jae         00406147
  00406129: 2B D9              sub         ebx,ecx
  0040612B: 3B DA              cmp         ebx,edx
  0040612D: 72 4C              jb          0040617B
  0040612F: 8B F0              mov         esi,eax
  00406131: EB 07              jmp         0040613A
  00406133: 25 FF 00 00 00     and         eax,0FFh
  00406138: 03 F0              add         esi,eax
  0040613A: 3B 74 24 14        cmp         esi,dword ptr [esp+14h]
  0040613E: 72 BD              jb          004060FD
  00406140: 33 C0              xor         eax,eax
  00406142: 5F                 pop         edi
  00406143: 5E                 pop         esi
  00406144: 5D                 pop         ebp
  00406145: 5B                 pop         ebx
  00406146: C3                 ret
  00406147: 8D 04 16           lea         eax,[esi+edx]
  0040614A: 8D 9F F8 00 00 00  lea         ebx,[edi+000000F8h]
  00406150: 3B C3              cmp         eax,ebx
  00406152: 73 09              jae         0040615D
  00406154: 2B CA              sub         ecx,edx
  00406156: 89 07              mov         dword ptr [edi],eax
  00406158: 89 4F 04           mov         dword ptr [edi+4],ecx
  0040615B: EB 09              jmp         00406166
  0040615D: 89 2F              mov         dword ptr [edi],ebp
  0040615F: C7 47 04 00 00 00  mov         dword ptr [edi+4],0
            00
  00406166: 8D 04 7F           lea         eax,[edi+edi*2]
  00406169: 88 16              mov         byte ptr [esi],dl
  0040616B: 8D 14 80           lea         edx,[eax+eax*4]
  0040616E: 8D 46 08           lea         eax,[esi+8]
  00406171: C1 E0 04           shl         eax,4
  00406174: 2B C2              sub         eax,edx
  00406176: 5F                 pop         edi
  00406177: 5E                 pop         esi
  00406178: 5D                 pop         ebp
  00406179: 5B                 pop         ebx
  0040617A: C3                 ret
  0040617B: 5F                 pop         edi
  0040617C: 5E                 pop         esi
  0040617D: 5D                 pop         ebp
  0040617E: 33 C0              xor         eax,eax
  00406180: 5B                 pop         ebx
  00406181: C3                 ret
  00406182: 90                 nop
  00406183: 90                 nop
  00406184: 90                 nop
  00406185: 90                 nop
  00406186: 90                 nop
  00406187: 90                 nop
  00406188: 90                 nop
  00406189: 90                 nop
  0040618A: 90                 nop
  0040618B: 90                 nop
  0040618C: 90                 nop
  0040618D: 90                 nop
  0040618E: 90                 nop
  0040618F: 90                 nop
  00406190: 8B 4C 24 04        mov         ecx,dword ptr [esp+4]
  00406194: 53                 push        ebx
  00406195: 55                 push        ebp
  00406196: 8B 6C 24 10        mov         ebp,dword ptr [esp+10h]
  0040619A: 56                 push        esi
  0040619B: 57                 push        edi
  0040619C: 8B 79 10           mov         edi,dword ptr [ecx+10h]
  0040619F: 8B D5              mov         edx,ebp
  004061A1: 2B D7              sub         edx,edi
  004061A3: 8B 7C 24 1C        mov         edi,dword ptr [esp+1Ch]
  004061A7: C1 FA 0C           sar         edx,0Ch
  004061AA: 8B 5C 24 20        mov         ebx,dword ptr [esp+20h]
  004061AE: 33 C0              xor         eax,eax
  004061B0: 8D 4C D1 18        lea         ecx,[ecx+edx*8+18h]
  004061B4: 33 D2              xor         edx,edx
  004061B6: 8A 17              mov         dl,byte ptr [edi]
  004061B8: 89 4C 24 18        mov         dword ptr [esp+18h],ecx
  004061BC: 8B F2              mov         esi,edx
  004061BE: 3B F3              cmp         esi,ebx
  004061C0: 76 1B              jbe         004061DD
  004061C2: 88 1F              mov         byte ptr [edi],bl
  004061C4: 8B 01              mov         eax,dword ptr [ecx]
  004061C6: 2B F3              sub         esi,ebx
  004061C8: C7 41 04 F1 00 00  mov         dword ptr [ecx+4],0F1h
            00
  004061CF: 03 C6              add         eax,esi
  004061D1: 89 01              mov         dword ptr [ecx],eax
  004061D3: B8 01 00 00 00     mov         eax,1
  004061D8: 5F                 pop         edi
  004061D9: 5E                 pop         esi
  004061DA: 5D                 pop         ebp
  004061DB: 5B                 pop         ebx
  004061DC: C3                 ret
  004061DD: 73 70              jae         0040624F
  004061DF: 8D 0C 3B           lea         ecx,[ebx+edi]
  004061E2: 8D 95 F8 00 00 00  lea         edx,[ebp+000000F8h]
  004061E8: 3B CA              cmp         ecx,edx
  004061EA: 77 63              ja          0040624F
  004061EC: 8D 14 3E           lea         edx,[esi+edi]
  004061EF: 3B D1              cmp         edx,ecx
  004061F1: 73 0C              jae         004061FF
  004061F3: 80 3A 00           cmp         byte ptr [edx],0
  004061F6: 75 05              jne         004061FD
  004061F8: 42                 inc         edx
  004061F9: 3B D1              cmp         edx,ecx
  004061FB: 72 F6              jb          004061F3
  004061FD: 3B D1              cmp         edx,ecx
  004061FF: 75 4E              jne         0040624F
  00406201: 88 1F              mov         byte ptr [edi],bl
  00406203: 8B 45 00           mov         eax,dword ptr [ebp]
  00406206: 3B F8              cmp         edi,eax
  00406208: 77 34              ja          0040623E
  0040620A: 3B C8              cmp         ecx,eax
  0040620C: 76 30              jbe         0040623E
  0040620E: 8D 85 F8 00 00 00  lea         eax,[ebp+000000F8h]
  00406214: 3B C8              cmp         ecx,eax
  00406216: 73 19              jae         00406231
  00406218: 89 4D 00           mov         dword ptr [ebp],ecx
  0040621B: 8A 11              mov         dl,byte ptr [ecx]
  0040621D: 33 C0              xor         eax,eax
  0040621F: 84 D2              test        dl,dl
  00406221: 75 09              jne         0040622C
  00406223: 8A 54 08 01        mov         dl,byte ptr [eax+ecx+1]
  00406227: 40                 inc         eax
  00406228: 84 D2              test        dl,dl
  0040622A: 74 F7              je          00406223
  0040622C: 89 45 04           mov         dword ptr [ebp+4],eax
  0040622F: EB 0D              jmp         0040623E
  00406231: 8D 45 08           lea         eax,[ebp+8]
  00406234: C7 45 04 00 00 00  mov         dword ptr [ebp+4],0
            00
  0040623B: 89 45 00           mov         dword ptr [ebp],eax
  0040623E: 8B 44 24 18        mov         eax,dword ptr [esp+18h]
  00406242: 2B F3              sub         esi,ebx
  00406244: 8B 08              mov         ecx,dword ptr [eax]
  00406246: 03 CE              add         ecx,esi
  00406248: 89 08              mov         dword ptr [eax],ecx
  0040624A: B8 01 00 00 00     mov         eax,1
  0040624F: 5F                 pop         edi
  00406250: 5E                 pop         esi
  00406251: 5D                 pop         ebp
  00406252: 5B                 pop         ebx
  00406253: C3                 ret
  00406254: 90                 nop
  00406255: 90                 nop
  00406256: 90                 nop
  00406257: 90                 nop
  00406258: 90                 nop
  00406259: 90                 nop
  0040625A: 90                 nop
  0040625B: 90                 nop
  0040625C: 90                 nop
  0040625D: 90                 nop
  0040625E: 90                 nop
  0040625F: 90                 nop
  00406260: A1 80 22 41 00     mov         eax,dword ptr ds:[00412280h]
  00406265: 56                 push        esi
  00406266: 85 C0              test        eax,eax
  00406268: 75 07              jne         00406271
  0040626A: B8 00 02 00 00     mov         eax,200h
  0040626F: EB 0A              jmp         0040627B
  00406271: 83 F8 14           cmp         eax,14h
  00406274: 7D 0A              jge         00406280
  00406276: B8 14 00 00 00     mov         eax,14h
  0040627B: A3 80 22 41 00     mov         dword ptr ds:[00412280h],eax
  00406280: 6A 04              push        4
  00406282: 50                 push        eax
  00406283: E8 B8 DB FF FF     call        00403E40
  00406288: 83 C4 08           add         esp,8
  0040628B: A3 70 12 41 00     mov         dword ptr ds:[00411270h],eax
  00406290: 85 C0              test        eax,eax
  00406292: 75 2E              jne         004062C2
  00406294: 6A 04              push        4
  00406296: 6A 14              push        14h
  00406298: C7 05 80 22 41 00  mov         dword ptr ds:[00412280h],14h
            14 00 00 00
  004062A2: E8 99 DB FF FF     call        00403E40
  004062A7: 83 C4 08           add         esp,8
  004062AA: A3 70 12 41 00     mov         dword ptr ds:[00411270h],eax
  004062AF: 85 C0              test        eax,eax
  004062B1: 75 0F              jne         004062C2
  004062B3: 6A 1A              push        1Ah
  004062B5: E8 86 E9 FF FF     call        00404C40
  004062BA: A1 70 12 41 00     mov         eax,dword ptr ds:[00411270h]
  004062BF: 83 C4 04           add         esp,4
  004062C2: 33 D2              xor         edx,edx
  004062C4: B9 40 F6 40 00     mov         ecx,40F640h
  004062C9: EB 05              jmp         004062D0
  004062CB: A1 70 12 41 00     mov         eax,dword ptr ds:[00411270h]
  004062D0: 89 0C 10           mov         dword ptr [eax+edx],ecx
  004062D3: 83 C1 20           add         ecx,20h
  004062D6: 83 C2 04           add         edx,4
  004062D9: 81 F9 C0 F8 40 00  cmp         ecx,40F8C0h
  004062DF: 7C EA              jl          004062CB
  004062E1: 33 C9              xor         ecx,ecx
  004062E3: BA 50 F6 40 00     mov         edx,40F650h
  004062E8: 8B F1              mov         esi,ecx
  004062EA: 8B C1              mov         eax,ecx
  004062EC: C1 FE 05           sar         esi,5
  004062EF: 83 E0 1F           and         eax,1Fh
  004062F2: 8B 34 B5 60 11 41  mov         esi,dword ptr [esi*4+00411160h]
            00
  004062F9: 8D 04 C0           lea         eax,[eax+eax*8]
  004062FC: 8B 04 86           mov         eax,dword ptr [esi+eax*4]
  004062FF: 83 F8 FF           cmp         eax,0FFFFFFFFh
  00406302: 74 04              je          00406308
  00406304: 85 C0              test        eax,eax
  00406306: 75 06              jne         0040630E
  00406308: C7 02 FF FF FF FF  mov         dword ptr [edx],0FFFFFFFFh
  0040630E: 83 C2 20           add         edx,20h
  00406311: 41                 inc         ecx
  00406312: 81 FA B0 F6 40 00  cmp         edx,40F6B0h
  00406318: 7C CE              jl          004062E8
  0040631A: 5E                 pop         esi
  0040631B: C3                 ret
  0040631C: 90                 nop
  0040631D: 90                 nop
  0040631E: 90                 nop
  0040631F: 90                 nop
  00406320: E8 0B 1C 00 00     call        00407F30
  00406325: A0 84 0D 41 00     mov         al,byte ptr ds:[00410D84h]
  0040632A: 84 C0              test        al,al
  0040632C: 74 05              je          00406333
  0040632E: E9 CD 1C 00 00     jmp         00408000
  00406333: C3                 ret
  00406334: 90                 nop
  00406335: 90                 nop
  00406336: 90                 nop
  00406337: 90                 nop
  00406338: 90                 nop
  00406339: 90                 nop
  0040633A: 90                 nop
  0040633B: 90                 nop
  0040633C: 90                 nop
  0040633D: 90                 nop
  0040633E: 90                 nop
  0040633F: 90                 nop
  00406340: 56                 push        esi
  00406341: E8 8A 00 00 00     call        004063D0
  00406346: 8B 4C 24 08        mov         ecx,dword ptr [esp+8]
  0040634A: 33 F6              xor         esi,esi
  0040634C: 89 08              mov         dword ptr [eax],ecx
  0040634E: B8 C0 F8 40 00     mov         eax,40F8C0h
  00406353: 3B 08              cmp         ecx,dword ptr [eax]
  00406355: 74 4C              je          004063A3
  00406357: 83 C0 08           add         eax,8
  0040635A: 46                 inc         esi
  0040635B: 3D 28 FA 40 00     cmp         eax,40FA28h
  00406360: 72 F1              jb          00406353
  00406362: 83 F9 13           cmp         ecx,13h
  00406365: 72 12              jb          00406379
  00406367: 83 F9 24           cmp         ecx,24h
  0040636A: 77 0D              ja          00406379
  0040636C: E8 4F 00 00 00     call        004063C0
  00406371: C7 00 0D 00 00 00  mov         dword ptr [eax],0Dh
  00406377: 5E                 pop         esi
  00406378: C3                 ret
  00406379: 81 F9 BC 00 00 00  cmp         ecx,0BCh
  0040637F: 72 15              jb          00406396
  00406381: 81 F9 CA 00 00 00  cmp         ecx,0CAh
  00406387: 77 0D              ja          00406396
  00406389: E8 32 00 00 00     call        004063C0
  0040638E: C7 00 08 00 00 00  mov         dword ptr [eax],8
  00406394: 5E                 pop         esi
  00406395: C3                 ret
  00406396: E8 25 00 00 00     call        004063C0
  0040639B: C7 00 16 00 00 00  mov         dword ptr [eax],16h
  004063A1: 5E                 pop         esi
  004063A2: C3                 ret
  004063A3: E8 18 00 00 00     call        004063C0
  004063A8: 8B 0C F5 C4 F8 40  mov         ecx,dword ptr [esi*8+0040F8C4h]
            00
  004063AF: 5E                 pop         esi
  004063B0: 89 08              mov         dword ptr [eax],ecx
  004063B2: C3                 ret
  004063B3: 90                 nop
  004063B4: 90                 nop
  004063B5: 90                 nop
  004063B6: 90                 nop
  004063B7: 90                 nop
  004063B8: 90                 nop
  004063B9: 90                 nop
  004063BA: 90                 nop
  004063BB: 90                 nop
  004063BC: 90                 nop
  004063BD: 90                 nop
  004063BE: 90                 nop
  004063BF: 90                 nop
  004063C0: E8 9B 00 00 00     call        00406460
  004063C5: 83 C0 08           add         eax,8
  004063C8: C3                 ret
  004063C9: 90                 nop
  004063CA: 90                 nop
  004063CB: 90                 nop
  004063CC: 90                 nop
  004063CD: 90                 nop
  004063CE: 90                 nop
  004063CF: 90                 nop
  004063D0: E8 8B 00 00 00     call        00406460
  004063D5: 83 C0 0C           add         eax,0Ch
  004063D8: C3                 ret
  004063D9: 90                 nop
  004063DA: 90                 nop
  004063DB: 90                 nop
  004063DC: 90                 nop
  004063DD: 90                 nop
  004063DE: 90                 nop
  004063DF: 90                 nop
  004063E0: 56                 push        esi
  004063E1: E8 DA F4 FF FF     call        004058C0
  004063E6: FF 15 C0 33 41 00  call        dword ptr ds:[004133C0h]
  004063EC: 83 F8 FF           cmp         eax,0FFFFFFFFh
  004063EF: A3 28 FA 40 00     mov         dword ptr ds:[0040FA28h],eax
  004063F4: 74 42              je          00406438
  004063F6: 6A 74              push        74h
  004063F8: 6A 01              push        1
  004063FA: E8 41 DA FF FF     call        00403E40
  004063FF: 8B F0              mov         esi,eax
  00406401: 83 C4 08           add         esp,8
  00406404: 85 F6              test        esi,esi
  00406406: 74 30              je          00406438
  00406408: A1 28 FA 40 00     mov         eax,dword ptr ds:[0040FA28h]
  0040640D: 56                 push        esi
  0040640E: 50                 push        eax
  0040640F: FF 15 08 34 41 00  call        dword ptr ds:[00413408h]
  00406415: 85 C0              test        eax,eax
  00406417: 74 1F              je          00406438
  00406419: 56                 push        esi
  0040641A: E8 21 00 00 00     call        00406440
  0040641F: 83 C4 04           add         esp,4
  00406422: FF 15 48 34 41 00  call        dword ptr ds:[00413448h]
  00406428: 89 06              mov         dword ptr [esi],eax
  0040642A: C7 46 04 FF FF FF  mov         dword ptr [esi+4],0FFFFFFFFh
            FF
  00406431: B8 01 00 00 00     mov         eax,1
  00406436: 5E                 pop         esi
  00406437: C3                 ret
  00406438: 33 C0              xor         eax,eax
  0040643A: 5E                 pop         esi
  0040643B: C3                 ret
  0040643C: 90                 nop
  0040643D: 90                 nop
  0040643E: 90                 nop
  0040643F: 90                 nop
  00406440: 8B 44 24 04        mov         eax,dword ptr [esp+4]
  00406444: C7 40 50 30 FA 40  mov         dword ptr [eax+50h],40FA30h
            00
  0040644B: C7 40 14 01 00 00  mov         dword ptr [eax+14h],1
            00
  00406452: C3                 ret
  00406453: 90                 nop
  00406454: 90                 nop
  00406455: 90                 nop
  00406456: 90                 nop
  00406457: 90                 nop
  00406458: 90                 nop
  00406459: 90                 nop
  0040645A: 90                 nop
  0040645B: 90                 nop
  0040645C: 90                 nop
  0040645D: 90                 nop
  0040645E: 90                 nop
  0040645F: 90                 nop
  00406460: 56                 push        esi
  00406461: 57                 push        edi
  00406462: FF 15 3C 34 41 00  call        dword ptr ds:[0041343Ch]
  00406468: 8B F8              mov         edi,eax
  0040646A: A1 28 FA 40 00     mov         eax,dword ptr ds:[0040FA28h]
  0040646F: 50                 push        eax
  00406470: FF 15 B8 33 41 00  call        dword ptr ds:[004133B8h]
  00406476: 8B F0              mov         esi,eax
  00406478: 85 F6              test        esi,esi
  0040647A: 75 52              jne         004064CE
  0040647C: 6A 74              push        74h
  0040647E: 6A 01              push        1
  00406480: E8 BB D9 FF FF     call        00403E40
  00406485: 8B F0              mov         esi,eax
  00406487: 83 C4 08           add         esp,8
  0040648A: 85 F6              test        esi,esi
  0040648C: 74 36              je          004064C4
  0040648E: 8B 0D 28 FA 40 00  mov         ecx,dword ptr ds:[0040FA28h]
  00406494: 56                 push        esi
  00406495: 51                 push        ecx
  00406496: FF 15 08 34 41 00  call        dword ptr ds:[00413408h]
  0040649C: 85 C0              test        eax,eax
  0040649E: 74 24              je          004064C4
  004064A0: 56                 push        esi
  004064A1: E8 9A FF FF FF     call        00406440
  004064A6: 83 C4 04           add         esp,4
  004064A9: FF 15 48 34 41 00  call        dword ptr ds:[00413448h]
  004064AF: 57                 push        edi
  004064B0: 89 06              mov         dword ptr [esi],eax
  004064B2: C7 46 04 FF FF FF  mov         dword ptr [esi+4],0FFFFFFFFh
            FF
  004064B9: FF 15 BC 33 41 00  call        dword ptr ds:[004133BCh]
  004064BF: 8B C6              mov         eax,esi
  004064C1: 5F                 pop         edi
  004064C2: 5E                 pop         esi
  004064C3: C3                 ret
  004064C4: 6A 10              push        10h
  004064C6: E8 75 E7 FF FF     call        00404C40
  004064CB: 83 C4 04           add         esp,4
  004064CE: 57                 push        edi
  004064CF: FF 15 BC 33 41 00  call        dword ptr ds:[004133BCh]
  004064D5: 8B C6              mov         eax,esi
  004064D7: 5F                 pop         edi
  004064D8: 5E                 pop         esi
  004064D9: C3                 ret
  004064DA: 90                 nop
  004064DB: 90                 nop
  004064DC: 90                 nop
  004064DD: 90                 nop
  004064DE: 90                 nop
  004064DF: 90                 nop
  004064E0: A1 28 FA 40 00     mov         eax,dword ptr ds:[0040FA28h]
  004064E5: 83 F8 FF           cmp         eax,0FFFFFFFFh
  004064E8: 0F 84 8E 00 00 00  je          0040657C
  004064EE: 56                 push        esi
  004064EF: 8B 74 24 08        mov         esi,dword ptr [esp+8]
  004064F3: 85 F6              test        esi,esi
  004064F5: 75 0D              jne         00406504
  004064F7: 50                 push        eax
  004064F8: FF 15 B8 33 41 00  call        dword ptr ds:[004133B8h]
  004064FE: 8B F0              mov         esi,eax
  00406500: 85 F6              test        esi,esi
  00406502: 74 69              je          0040656D
  00406504: 8B 46 24           mov         eax,dword ptr [esi+24h]
  00406507: 85 C0              test        eax,eax
  00406509: 74 09              je          00406514
  0040650B: 50                 push        eax
  0040650C: E8 DF D9 FF FF     call        00403EF0
  00406511: 83 C4 04           add         esp,4
  00406514: 8B 46 28           mov         eax,dword ptr [esi+28h]
  00406517: 85 C0              test        eax,eax
  00406519: 74 09              je          00406524
  0040651B: 50                 push        eax
  0040651C: E8 CF D9 FF FF     call        00403EF0
  00406521: 83 C4 04           add         esp,4
  00406524: 8B 46 30           mov         eax,dword ptr [esi+30h]
  00406527: 85 C0              test        eax,eax
  00406529: 74 09              je          00406534
  0040652B: 50                 push        eax
  0040652C: E8 BF D9 FF FF     call        00403EF0
  00406531: 83 C4 04           add         esp,4
  00406534: 8B 46 38           mov         eax,dword ptr [esi+38h]
  00406537: 85 C0              test        eax,eax
  00406539: 74 09              je          00406544
  0040653B: 50                 push        eax
  0040653C: E8 AF D9 FF FF     call        00403EF0
  00406541: 83 C4 04           add         esp,4
  00406544: 8B 46 40           mov         eax,dword ptr [esi+40h]
  00406547: 85 C0              test        eax,eax
  00406549: 74 09              je          00406554
  0040654B: 50                 push        eax
  0040654C: E8 9F D9 FF FF     call        00403EF0
  00406551: 83 C4 04           add         esp,4
  00406554: 8B 46 44           mov         eax,dword ptr [esi+44h]
  00406557: 85 C0              test        eax,eax
  00406559: 74 09              je          00406564
  0040655B: 50                 push        eax
  0040655C: E8 8F D9 FF FF     call        00403EF0
  00406561: 83 C4 04           add         esp,4
  00406564: 56                 push        esi
  00406565: E8 86 D9 FF FF     call        00403EF0
  0040656A: 83 C4 04           add         esp,4
  0040656D: A1 28 FA 40 00     mov         eax,dword ptr ds:[0040FA28h]
  00406572: 6A 00              push        0
  00406574: 50                 push        eax
  00406575: FF 15 08 34 41 00  call        dword ptr ds:[00413408h]
  0040657B: 5E                 pop         esi
  0040657C: C3                 ret
  0040657D: 90                 nop
  0040657E: 90                 nop
  0040657F: 90                 nop
  00406580: A1 6C 12 41 00     mov         eax,dword ptr ds:[0041126Ch]
  00406585: 85 C0              test        eax,eax
  00406587: 74 02              je          0040658B
  00406589: FF D0              call        eax
  0040658B: 68 10 D0 40 00     push        40D010h
  00406590: 68 08 D0 40 00     push        40D008h
  00406595: E8 36 01 00 00     call        004066D0
  0040659A: 83 C4 08           add         esp,8
  0040659D: 68 04 D0 40 00     push        40D004h
  004065A2: 68 00 D0 40 00     push        40D000h
  004065A7: E8 24 01 00 00     call        004066D0
  004065AC: 83 C4 08           add         esp,8
  004065AF: C3                 ret
  004065B0: 8B 44 24 04        mov         eax,dword ptr [esp+4]
  004065B4: 6A 00              push        0
  004065B6: 6A 00              push        0
  004065B8: 50                 push        eax
  004065B9: E8 32 00 00 00     call        004065F0
  004065BE: 83 C4 0C           add         esp,0Ch
  004065C1: C3                 ret
  004065C2: 90                 nop
  004065C3: 90                 nop
  004065C4: 90                 nop
  004065C5: 90                 nop
  004065C6: 90                 nop
  004065C7: 90                 nop
  004065C8: 90                 nop
  004065C9: 90                 nop
  004065CA: 90                 nop
  004065CB: 90                 nop
  004065CC: 90                 nop
  004065CD: 90                 nop
  004065CE: 90                 nop
  004065CF: 90                 nop
  004065D0: 8B 44 24 04        mov         eax,dword ptr [esp+4]
  004065D4: 6A 00              push        0
  004065D6: 6A 01              push        1
  004065D8: 50                 push        eax
  004065D9: E8 12 00 00 00     call        004065F0
  004065DE: 83 C4 0C           add         esp,0Ch
  004065E1: C3                 ret
  004065E2: 90                 nop
  004065E3: 90                 nop
  004065E4: 90                 nop
  004065E5: 90                 nop
  004065E6: 90                 nop
  004065E7: 90                 nop
  004065E8: 90                 nop
  004065E9: 90                 nop
  004065EA: 90                 nop
  004065EB: 90                 nop
  004065EC: 90                 nop
  004065ED: 90                 nop
  004065EE: 90                 nop
  004065EF: 90                 nop
  004065F0: 53                 push        ebx
  004065F1: 55                 push        ebp
  004065F2: 56                 push        esi
  004065F3: E8 B8 00 00 00     call        004066B0
  004065F8: A1 8C 0D 41 00     mov         eax,dword ptr ds:[00410D8Ch]
  004065FD: 8B 6C 24 10        mov         ebp,dword ptr [esp+10h]
  00406601: 83 F8 01           cmp         eax,1
  00406604: 75 0E              jne         00406614
  00406606: 55                 push        ebp
  00406607: FF 15 B0 33 41 00  call        dword ptr ds:[004133B0h]
  0040660D: 50                 push        eax
  0040660E: FF 15 B4 33 41 00  call        dword ptr ds:[004133B4h]
  00406614: 8B 44 24 14        mov         eax,dword ptr [esp+14h]
  00406618: 8B 5C 24 18        mov         ebx,dword ptr [esp+18h]
  0040661C: 85 C0              test        eax,eax
  0040661E: C7 05 88 0D 41 00  mov         dword ptr ds:[00410D88h],1
            01 00 00 00
  00406628: 88 1D 84 0D 41 00  mov         byte ptr ds:[00410D84h],bl
  0040662E: 75 3E              jne         0040666E
  00406630: 8B 0D 68 12 41 00  mov         ecx,dword ptr ds:[00411268h]
  00406636: 85 C9              test        ecx,ecx
  00406638: 74 22              je          0040665C
  0040663A: 8B 35 64 12 41 00  mov         esi,dword ptr ds:[00411264h]
  00406640: 83 EE 04           sub         esi,4
  00406643: 3B F1              cmp         esi,ecx
  00406645: 72 15              jb          0040665C
  00406647: 8B 06              mov         eax,dword ptr [esi]
  00406649: 85 C0              test        eax,eax
  0040664B: 74 08              je          00406655
  0040664D: FF D0              call        eax
  0040664F: 8B 0D 68 12 41 00  mov         ecx,dword ptr ds:[00411268h]
  00406655: 83 EE 04           sub         esi,4
  00406658: 3B F1              cmp         esi,ecx
  0040665A: 73 EB              jae         00406647
  0040665C: 68 1C D0 40 00     push        40D01Ch
  00406661: 68 14 D0 40 00     push        40D014h
  00406666: E8 65 00 00 00     call        004066D0
  0040666B: 83 C4 08           add         esp,8
  0040666E: 68 24 D0 40 00     push        40D024h
  00406673: 68 20 D0 40 00     push        40D020h
  00406678: E8 53 00 00 00     call        004066D0
  0040667D: 83 C4 08           add         esp,8
  00406680: 85 DB              test        ebx,ebx
  00406682: 74 09              je          0040668D
  00406684: E8 37 00 00 00     call        004066C0
  00406689: 5E                 pop         esi
  0040668A: 5D                 pop         ebp
  0040668B: 5B                 pop         ebx
  0040668C: C3                 ret
  0040668D: 55                 push        ebp
  0040668E: C7 05 8C 0D 41 00  mov         dword ptr ds:[00410D8Ch],1
            01 00 00 00
  00406698: FF 15 C8 33 41 00  call        dword ptr ds:[004133C8h]
  0040669E: 5E                 pop         esi
  0040669F: 5D                 pop         ebp
  004066A0: 5B                 pop         ebx
  004066A1: C3                 ret
  004066A2: 90                 nop
  004066A3: 90                 nop
  004066A4: 90                 nop
  004066A5: 90                 nop
  004066A6: 90                 nop
  004066A7: 90                 nop
  004066A8: 90                 nop
  004066A9: 90                 nop
  004066AA: 90                 nop
  004066AB: 90                 nop
  004066AC: 90                 nop
  004066AD: 90                 nop
  004066AE: 90                 nop
  004066AF: 90                 nop
  004066B0: 6A 0D              push        0Dh
  004066B2: E8 39 F2 FF FF     call        004058F0
  004066B7: 83 C4 04           add         esp,4
  004066BA: C3                 ret
  004066BB: 90                 nop
  004066BC: 90                 nop
  004066BD: 90                 nop
  004066BE: 90                 nop
  004066BF: 90                 nop
  004066C0: 6A 0D              push        0Dh
  004066C2: E8 A9 F2 FF FF     call        00405970
  004066C7: 83 C4 04           add         esp,4
  004066CA: C3                 ret
  004066CB: 90                 nop
  004066CC: 90                 nop
  004066CD: 90                 nop
  004066CE: 90                 nop
  004066CF: 90                 nop
  004066D0: 56                 push        esi
  004066D1: 8B 74 24 08        mov         esi,dword ptr [esp+8]
  004066D5: 57                 push        edi
  004066D6: 8B 7C 24 10        mov         edi,dword ptr [esp+10h]
  004066DA: 3B F7              cmp         esi,edi
  004066DC: 73 0F              jae         004066ED
  004066DE: 8B 06              mov         eax,dword ptr [esi]
  004066E0: 85 C0              test        eax,eax
  004066E2: 74 02              je          004066E6
  004066E4: FF D0              call        eax
  004066E6: 83 C6 04           add         esi,4
  004066E9: 3B F7              cmp         esi,edi
  004066EB: 72 F1              jb          004066DE
  004066ED: 5F                 pop         edi
  004066EE: 5E                 pop         esi
  004066EF: C3                 ret
  004066F0: 51                 push        ecx
  004066F1: 53                 push        ebx
  004066F2: 55                 push        ebp
  004066F3: 56                 push        esi
  004066F4: 57                 push        edi
  004066F5: E8 66 FD FF FF     call        00406460
  004066FA: 8B 4C 24 18        mov         ecx,dword ptr [esp+18h]
  004066FE: 8B F0              mov         esi,eax
  00406700: 8B 46 50           mov         eax,dword ptr [esi+50h]
  00406703: 50                 push        eax
  00406704: 51                 push        ecx
  00406705: E8 F6 01 00 00     call        00406900
  0040670A: 33 FF              xor         edi,edi
  0040670C: 83 C4 08           add         esp,8
  0040670F: 3B C7              cmp         eax,edi
  00406711: 0F 84 D5 01 00 00  je          004068EC
  00406717: 8B 50 08           mov         edx,dword ptr [eax+8]
  0040671A: 3B D7              cmp         edx,edi
  0040671C: 89 54 24 18        mov         dword ptr [esp+18h],edx
  00406720: 0F 84 C6 01 00 00  je          004068EC
  00406726: 83 FA 05           cmp         edx,5
  00406729: 75 0E              jne         00406739
  0040672B: 89 78 08           mov         dword ptr [eax+8],edi
  0040672E: B8 01 00 00 00     mov         eax,1
  00406733: 5F                 pop         edi
  00406734: 5E                 pop         esi
  00406735: 5D                 pop         ebp
  00406736: 5B                 pop         ebx
  00406737: 59                 pop         ecx
  00406738: C3                 ret
  00406739: 83 FA 01           cmp         edx,1
  0040673C: 75 09              jne         00406747
  0040673E: 83 C8 FF           or          eax,0FFFFFFFFh
  00406741: 5F                 pop         edi
  00406742: 5E                 pop         esi
  00406743: 5D                 pop         ebp
  00406744: 5B                 pop         ebx
  00406745: 59                 pop         ecx
  00406746: C3                 ret
  00406747: 8B 4E 54           mov         ecx,dword ptr [esi+54h]
  0040674A: 89 4C 24 10        mov         dword ptr [esp+10h],ecx
  0040674E: 8B 4C 24 1C        mov         ecx,dword ptr [esp+1Ch]
  00406752: 89 4E 54           mov         dword ptr [esi+54h],ecx
  00406755: 8B 48 04           mov         ecx,dword ptr [eax+4]
  00406758: 83 F9 08           cmp         ecx,8
  0040675B: 0F 85 72 01 00 00  jne         004068D3
  00406761: 8B 0D A8 FA 40 00  mov         ecx,dword ptr ds:[0040FAA8h]
  00406767: 8B 1D AC FA 40 00  mov         ebx,dword ptr ds:[0040FAACh]
  0040676D: 03 D9              add         ebx,ecx
  0040676F: 3B CB              cmp         ecx,ebx
  00406771: 7D 27              jge         0040679A
  00406773: 8D 14 49           lea         edx,[ecx+ecx*2]
  00406776: C1 E2 02           shl         edx,2
  00406779: 8B 5E 50           mov         ebx,dword ptr [esi+50h]
  0040677C: 41                 inc         ecx
  0040677D: 89 7C 13 08        mov         dword ptr [ebx+edx+8],edi
  00406781: 8B 1D A8 FA 40 00  mov         ebx,dword ptr ds:[0040FAA8h]
  00406787: 8B 2D AC FA 40 00  mov         ebp,dword ptr ds:[0040FAACh]
  0040678D: 83 C2 0C           add         edx,0Ch
  00406790: 03 EB              add         ebp,ebx
  00406792: 3B CD              cmp         ecx,ebp
  00406794: 7C E3              jl          00406779
  00406796: 8B 54 24 18        mov         edx,dword ptr [esp+18h]
  0040679A: 8B 00              mov         eax,dword ptr [eax]
  0040679C: 8B 7E 58           mov         edi,dword ptr [esi+58h]
  0040679F: 3D 8E 00 00 C0     cmp         eax,0C000008Eh
  004067A4: 75 25              jne         004067CB
  004067A6: C7 46 58 83 00 00  mov         dword ptr [esi+58h],83h
            00
  004067AD: 8B 46 58           mov         eax,dword ptr [esi+58h]
  004067B0: 50                 push        eax
  004067B1: 6A 08              push        8
  004067B3: FF D2              call        edx
  004067B5: 8B 4C 24 18        mov         ecx,dword ptr [esp+18h]
  004067B9: 83 C4 08           add         esp,8
  004067BC: 89 7E 58           mov         dword ptr [esi+58h],edi
  004067BF: 89 4E 54           mov         dword ptr [esi+54h],ecx
  004067C2: 83 C8 FF           or          eax,0FFFFFFFFh
  004067C5: 5F                 pop         edi
  004067C6: 5E                 pop         esi
  004067C7: 5D                 pop         ebp
  004067C8: 5B                 pop         ebx
  004067C9: 59                 pop         ecx
  004067CA: C3                 ret
  004067CB: 3D 90 00 00 C0     cmp         eax,0C0000090h
  004067D0: 75 25              jne         004067F7
  004067D2: C7 46 58 81 00 00  mov         dword ptr [esi+58h],81h
            00
  004067D9: 8B 46 58           mov         eax,dword ptr [esi+58h]
  004067DC: 50                 push        eax
  004067DD: 6A 08              push        8
  004067DF: FF D2              call        edx
  004067E1: 8B 4C 24 18        mov         ecx,dword ptr [esp+18h]
  004067E5: 83 C4 08           add         esp,8
  004067E8: 89 7E 58           mov         dword ptr [esi+58h],edi
  004067EB: 89 4E 54           mov         dword ptr [esi+54h],ecx
  004067EE: 83 C8 FF           or          eax,0FFFFFFFFh
  004067F1: 5F                 pop         edi
  004067F2: 5E                 pop         esi
  004067F3: 5D                 pop         ebp
  004067F4: 5B                 pop         ebx
  004067F5: 59                 pop         ecx
  004067F6: C3                 ret
  004067F7: 3D 91 00 00 C0     cmp         eax,0C0000091h
  004067FC: 75 25              jne         00406823
  004067FE: C7 46 58 84 00 00  mov         dword ptr [esi+58h],84h
            00
  00406805: 8B 46 58           mov         eax,dword ptr [esi+58h]
  00406808: 50                 push        eax
  00406809: 6A 08              push        8
  0040680B: FF D2              call        edx
  0040680D: 8B 4C 24 18        mov         ecx,dword ptr [esp+18h]
  00406811: 83 C4 08           add         esp,8
  00406814: 89 7E 58           mov         dword ptr [esi+58h],edi
  00406817: 89 4E 54           mov         dword ptr [esi+54h],ecx
  0040681A: 83 C8 FF           or          eax,0FFFFFFFFh
  0040681D: 5F                 pop         edi
  0040681E: 5E                 pop         esi
  0040681F: 5D                 pop         ebp
  00406820: 5B                 pop         ebx
  00406821: 59                 pop         ecx
  00406822: C3                 ret
  00406823: 3D 93 00 00 C0     cmp         eax,0C0000093h
  00406828: 75 25              jne         0040684F
  0040682A: C7 46 58 85 00 00  mov         dword ptr [esi+58h],85h
            00
  00406831: 8B 46 58           mov         eax,dword ptr [esi+58h]
  00406834: 50                 push        eax
  00406835: 6A 08              push        8
  00406837: FF D2              call        edx
  00406839: 8B 4C 24 18        mov         ecx,dword ptr [esp+18h]
  0040683D: 83 C4 08           add         esp,8
  00406840: 89 7E 58           mov         dword ptr [esi+58h],edi
  00406843: 89 4E 54           mov         dword ptr [esi+54h],ecx
  00406846: 83 C8 FF           or          eax,0FFFFFFFFh
  00406849: 5F                 pop         edi
  0040684A: 5E                 pop         esi
  0040684B: 5D                 pop         ebp
  0040684C: 5B                 pop         ebx
  0040684D: 59                 pop         ecx
  0040684E: C3                 ret
  0040684F: 3D 8D 00 00 C0     cmp         eax,0C000008Dh
  00406854: 75 25              jne         0040687B
  00406856: C7 46 58 82 00 00  mov         dword ptr [esi+58h],82h
            00
  0040685D: 8B 46 58           mov         eax,dword ptr [esi+58h]
  00406860: 50                 push        eax
  00406861: 6A 08              push        8
  00406863: FF D2              call        edx
  00406865: 8B 4C 24 18        mov         ecx,dword ptr [esp+18h]
  00406869: 83 C4 08           add         esp,8
  0040686C: 89 7E 58           mov         dword ptr [esi+58h],edi
  0040686F: 89 4E 54           mov         dword ptr [esi+54h],ecx
  00406872: 83 C8 FF           or          eax,0FFFFFFFFh
  00406875: 5F                 pop         edi
  00406876: 5E                 pop         esi
  00406877: 5D                 pop         ebp
  00406878: 5B                 pop         ebx
  00406879: 59                 pop         ecx
  0040687A: C3                 ret
  0040687B: 3D 8F 00 00 C0     cmp         eax,0C000008Fh
  00406880: 75 25              jne         004068A7
  00406882: C7 46 58 86 00 00  mov         dword ptr [esi+58h],86h
            00
  00406889: 8B 46 58           mov         eax,dword ptr [esi+58h]
  0040688C: 50                 push        eax
  0040688D: 6A 08              push        8
  0040688F: FF D2              call        edx
  00406891: 8B 4C 24 18        mov         ecx,dword ptr [esp+18h]
  00406895: 83 C4 08           add         esp,8
  00406898: 89 7E 58           mov         dword ptr [esi+58h],edi
  0040689B: 89 4E 54           mov         dword ptr [esi+54h],ecx
  0040689E: 83 C8 FF           or          eax,0FFFFFFFFh
  004068A1: 5F                 pop         edi
  004068A2: 5E                 pop         esi
  004068A3: 5D                 pop         ebp
  004068A4: 5B                 pop         ebx
  004068A5: 59                 pop         ecx
  004068A6: C3                 ret
  004068A7: 3D 92 00 00 C0     cmp         eax,0C0000092h
  004068AC: 75 07              jne         004068B5
  004068AE: C7 46 58 8A 00 00  mov         dword ptr [esi+58h],8Ah
            00
  004068B5: 8B 46 58           mov         eax,dword ptr [esi+58h]
  004068B8: 50                 push        eax
  004068B9: 6A 08              push        8
  004068BB: FF D2              call        edx
  004068BD: 8B 4C 24 18        mov         ecx,dword ptr [esp+18h]
  004068C1: 83 C4 08           add         esp,8
  004068C4: 89 7E 58           mov         dword ptr [esi+58h],edi
  004068C7: 89 4E 54           mov         dword ptr [esi+54h],ecx
  004068CA: 83 C8 FF           or          eax,0FFFFFFFFh
  004068CD: 5F                 pop         edi
  004068CE: 5E                 pop         esi
  004068CF: 5D                 pop         ebp
  004068D0: 5B                 pop         ebx
  004068D1: 59                 pop         ecx
  004068D2: C3                 ret
  004068D3: 51                 push        ecx
  004068D4: 89 78 08           mov         dword ptr [eax+8],edi
  004068D7: FF D2              call        edx
  004068D9: 8B 4C 24 14        mov         ecx,dword ptr [esp+14h]
  004068DD: 83 C4 04           add         esp,4
  004068E0: 89 4E 54           mov         dword ptr [esi+54h],ecx
  004068E3: 83 C8 FF           or          eax,0FFFFFFFFh
  004068E6: 5F                 pop         edi
  004068E7: 5E                 pop         esi
  004068E8: 5D                 pop         ebp
  004068E9: 5B                 pop         ebx
  004068EA: 59                 pop         ecx
  004068EB: C3                 ret
  004068EC: 8B 54 24 1C        mov         edx,dword ptr [esp+1Ch]
  004068F0: 52                 push        edx
  004068F1: FF 15 AC 33 41 00  call        dword ptr ds:[004133ACh]
  004068F7: 5F                 pop         edi
  004068F8: 5E                 pop         esi
  004068F9: 5D                 pop         ebp
  004068FA: 5B                 pop         ebx
  004068FB: 59                 pop         ecx
  004068FC: C3                 ret
  004068FD: 90                 nop
  004068FE: 90                 nop
  004068FF: 90                 nop
  00406900: 8B 54 24 04        mov         edx,dword ptr [esp+4]
  00406904: 56                 push        esi
  00406905: 8B 74 24 0C        mov         esi,dword ptr [esp+0Ch]
  00406909: 57                 push        edi
  0040690A: 8B 3D B4 FA 40 00  mov         edi,dword ptr ds:[0040FAB4h]
  00406910: 8B 0E              mov         ecx,dword ptr [esi]
  00406912: 8B C6              mov         eax,esi
  00406914: 3B CA              cmp         ecx,edx
  00406916: 74 11              je          00406929
  00406918: 8D 0C 7F           lea         ecx,[edi+edi*2]
  0040691B: 8D 0C 8E           lea         ecx,[esi+ecx*4]
  0040691E: 83 C0 0C           add         eax,0Ch
  00406921: 3B C1              cmp         eax,ecx
  00406923: 73 04              jae         00406929
  00406925: 39 10              cmp         dword ptr [eax],edx
  00406927: 75 F5              jne         0040691E
  00406929: 8D 0C 7F           lea         ecx,[edi+edi*2]
  0040692C: 8D 0C 8E           lea         ecx,[esi+ecx*4]
  0040692F: 3B C1              cmp         eax,ecx
  00406931: 73 04              jae         00406937
  00406933: 39 10              cmp         dword ptr [eax],edx
  00406935: 74 02              je          00406939
  00406937: 33 C0              xor         eax,eax
  00406939: 5F                 pop         edi
  0040693A: 5E                 pop         esi
  0040693B: C3                 ret
  0040693C: 90                 nop
  0040693D: 90                 nop
  0040693E: 90                 nop
  0040693F: 90                 nop
  00406940: 8D 42 FF           lea         eax,[edx-1]
  00406943: 5B                 pop         ebx
  00406944: C3                 ret
  00406945: 2E 8B C0           mov         eax,eax
  00406948: 2E 8B C0           mov         eax,eax
  0040694B: 2E 8B C0           mov         eax,eax
  0040694E: 8B C0              mov         eax,eax
  00406950: 33 C0              xor         eax,eax
  00406952: 8A 44 24 08        mov         al,byte ptr [esp+8]
  00406956: 53                 push        ebx
  00406957: 8B D8              mov         ebx,eax
  00406959: C1 E0 08           shl         eax,8
  0040695C: 8B 54 24 08        mov         edx,dword ptr [esp+8]
  00406960: F7 C2 03 00 00 00  test        edx,3
  00406966: 74 13              je          0040697B
  00406968: 8A 0A              mov         cl,byte ptr [edx]
  0040696A: 42                 inc         edx
  0040696B: 38 D9              cmp         cl,bl
  0040696D: 74 D1              je          00406940
  0040696F: 84 C9              test        cl,cl
  00406971: 74 51              je          004069C4
  00406973: F7 C2 03 00 00 00  test        edx,3
  00406979: 75 ED              jne         00406968
  0040697B: 0B D8              or          ebx,eax
  0040697D: 57                 push        edi
  0040697E: 8B C3              mov         eax,ebx
  00406980: C1 E3 10           shl         ebx,10h
  00406983: 56                 push        esi
  00406984: 0B D8              or          ebx,eax
  00406986: 8B 0A              mov         ecx,dword ptr [edx]
  00406988: BF FF FE FE 7E     mov         edi,7EFEFEFFh
  0040698D: 8B C1              mov         eax,ecx
  0040698F: 8B F7              mov         esi,edi
  00406991: 33 CB              xor         ecx,ebx
  00406993: 03 F0              add         esi,eax
  00406995: 03 F9              add         edi,ecx
  00406997: 83 F1 FF           xor         ecx,0FFFFFFFFh
  0040699A: 83 F0 FF           xor         eax,0FFFFFFFFh
  0040699D: 33 CF              xor         ecx,edi
  0040699F: 33 C6              xor         eax,esi
  004069A1: 83 C2 04           add         edx,4
  004069A4: 81 E1 00 01 01 81  and         ecx,81010100h
  004069AA: 75 1C              jne         004069C8
  004069AC: 25 00 01 01 81     and         eax,81010100h
  004069B1: 74 D3              je          00406986
  004069B3: 25 00 01 01 01     and         eax,1010100h
  004069B8: 75 08              jne         004069C2
  004069BA: 81 E6 00 00 00 80  and         esi,80000000h
  004069C0: 75 C4              jne         00406986
  004069C2: 5E                 pop         esi
  004069C3: 5F                 pop         edi
  004069C4: 5B                 pop         ebx
  004069C5: 33 C0              xor         eax,eax
  004069C7: C3                 ret
  004069C8: 8B 42 FC           mov         eax,dword ptr [edx-4]
  004069CB: 38 D8              cmp         al,bl
  004069CD: 74 36              je          00406A05
  004069CF: 84 C0              test        al,al
  004069D1: 74 EF              je          004069C2
  004069D3: 38 DC              cmp         ah,bl
  004069D5: 74 27              je          004069FE
  004069D7: 84 E4              test        ah,ah
  004069D9: 74 E7              je          004069C2
  004069DB: C1 E8 10           shr         eax,10h
  004069DE: 38 D8              cmp         al,bl
  004069E0: 74 15              je          004069F7
  004069E2: 84 C0              test        al,al
  004069E4: 74 DC              je          004069C2
  004069E6: 38 DC              cmp         ah,bl
  004069E8: 74 06              je          004069F0
  004069EA: 84 E4              test        ah,ah
  004069EC: 74 D4              je          004069C2
  004069EE: EB 96              jmp         00406986
  004069F0: 5E                 pop         esi
  004069F1: 5F                 pop         edi
  004069F2: 8D 42 FF           lea         eax,[edx-1]
  004069F5: 5B                 pop         ebx
  004069F6: C3                 ret
  004069F7: 8D 42 FE           lea         eax,[edx-2]
  004069FA: 5E                 pop         esi
  004069FB: 5F                 pop         edi
  004069FC: 5B                 pop         ebx
  004069FD: C3                 ret
  004069FE: 8D 42 FD           lea         eax,[edx-3]
  00406A01: 5E                 pop         esi
  00406A02: 5F                 pop         edi
  00406A03: 5B                 pop         ebx
  00406A04: C3                 ret
  00406A05: 8D 42 FC           lea         eax,[edx-4]
  00406A08: 5E                 pop         esi
  00406A09: 5F                 pop         edi
  00406A0A: 5B                 pop         ebx
  00406A0B: C3                 ret
  00406A0C: CC                 int         3
  00406A0D: CC                 int         3
  00406A0E: CC                 int         3
  00406A0F: CC                 int         3
  00406A10: 83 EC 24           sub         esp,24h
  00406A13: 53                 push        ebx
  00406A14: 8B 5C 24 2C        mov         ebx,dword ptr [esp+2Ch]
  00406A18: 81 EB 6C 07 00 00  sub         ebx,76Ch
  00406A1E: 55                 push        ebp
  00406A1F: 56                 push        esi
  00406A20: 83 FB 46           cmp         ebx,46h
  00406A23: 57                 push        edi
  00406A24: 0F 8C BD 00 00 00  jl          00406AE7
  00406A2A: 81 FB 8A 00 00 00  cmp         ebx,8Ah
  00406A30: 0F 8F B1 00 00 00  jg          00406AE7
  00406A36: 8B 7C 24 3C        mov         edi,dword ptr [esp+3Ch]
  00406A3A: 8B 4C 24 40        mov         ecx,dword ptr [esp+40h]
  00406A3E: 8B 34 BD 9C FF 40  mov         esi,dword ptr [edi*4+0040FF9Ch]
            00
  00406A45: 03 F1              add         esi,ecx
  00406A47: F6 C3 03           test        bl,3
  00406A4A: 75 06              jne         00406A52
  00406A4C: 83 FF 02           cmp         edi,2
  00406A4F: 7E 01              jle         00406A52
  00406A51: 46                 inc         esi
  00406A52: E8 49 16 00 00     call        004080A0
  00406A57: 8D 04 DB           lea         eax,[ebx+ebx*8]
  00406A5A: 89 74 24 2C        mov         dword ptr [esp+2Ch],esi
  00406A5E: 89 5C 24 24        mov         dword ptr [esp+24h],ebx
  00406A62: 8D 0C C3           lea         ecx,[ebx+eax*8]
  00406A65: 8D 43 FF           lea         eax,[ebx-1]
  00406A68: 8B D1              mov         edx,ecx
  00406A6A: 03 D6              add         edx,esi
  00406A6C: C1 F8 02           sar         eax,2
  00406A6F: 8D 0C 8A           lea         ecx,[edx+ecx*4]
  00406A72: 03 C1              add         eax,ecx
  00406A74: 8B 4C 24 44        mov         ecx,dword ptr [esp+44h]
  00406A78: 89 4C 24 18        mov         dword ptr [esp+18h],ecx
  00406A7C: 8D 14 40           lea         edx,[eax+eax*2]
  00406A7F: 8D 04 D1           lea         eax,[ecx+edx*8]
  00406A82: 8B D0              mov         edx,eax
  00406A84: C1 E2 04           shl         edx,4
  00406A87: 2B D0              sub         edx,eax
  00406A89: 8B 44 24 48        mov         eax,dword ptr [esp+48h]
  00406A8D: 8D 04 90           lea         eax,[eax+edx*4]
  00406A90: 8B D0              mov         edx,eax
  00406A92: C1 E2 04           shl         edx,4
  00406A95: 2B D0              sub         edx,eax
  00406A97: 8B 44 24 4C        mov         eax,dword ptr [esp+4Ch]
  00406A9B: 4F                 dec         edi
  00406A9C: 8D 14 90           lea         edx,[eax+edx*4]
  00406A9F: A1 B0 FE 40 00     mov         eax,dword ptr ds:[0040FEB0h]
  00406AA4: 89 7C 24 20        mov         dword ptr [esp+20h],edi
  00406AA8: 8D AC 02 80 81 55  lea         ebp,[edx+eax+7C558180h]
            7C
  00406AAF: 8B 44 24 50        mov         eax,dword ptr [esp+50h]
  00406AB3: 83 F8 01           cmp         eax,1
  00406AB6: 74 1F              je          00406AD7
  00406AB8: 83 F8 FF           cmp         eax,0FFFFFFFFh
  00406ABB: 75 20              jne         00406ADD
  00406ABD: A1 B4 FE 40 00     mov         eax,dword ptr ds:[0040FEB4h]
  00406AC2: 85 C0              test        eax,eax
  00406AC4: 74 17              je          00406ADD
  00406AC6: 8D 4C 24 10        lea         ecx,[esp+10h]
  00406ACA: 51                 push        ecx
  00406ACB: E8 F0 18 00 00     call        004083C0
  00406AD0: 83 C4 04           add         esp,4
  00406AD3: 85 C0              test        eax,eax
  00406AD5: 74 06              je          00406ADD
  00406AD7: 03 2D B8 FE 40 00  add         ebp,dword ptr ds:[0040FEB8h]
  00406ADD: 8B C5              mov         eax,ebp
  00406ADF: 5F                 pop         edi
  00406AE0: 5E                 pop         esi
  00406AE1: 5D                 pop         ebp
  00406AE2: 5B                 pop         ebx
  00406AE3: 83 C4 24           add         esp,24h
  00406AE6: C3                 ret
  00406AE7: 5F                 pop         edi
  00406AE8: 5E                 pop         esi
  00406AE9: 5D                 pop         ebp
  00406AEA: 83 C8 FF           or          eax,0FFFFFFFFh
  00406AED: 5B                 pop         ebx
  00406AEE: 83 C4 24           add         esp,24h
  00406AF1: C3                 ret
  00406AF2: 90                 nop
  00406AF3: 90                 nop
  00406AF4: 90                 nop
  00406AF5: 90                 nop
  00406AF6: 90                 nop
  00406AF7: 90                 nop
  00406AF8: 90                 nop
  00406AF9: 90                 nop
  00406AFA: 90                 nop
  00406AFB: 90                 nop
  00406AFC: 90                 nop
  00406AFD: 90                 nop
  00406AFE: 90                 nop
  00406AFF: 90                 nop
  00406B00: 51                 push        ecx
  00406B01: 8B 4C 24 08        mov         ecx,dword ptr [esp+8]
  00406B05: 56                 push        esi
  00406B06: 8D 41 01           lea         eax,[ecx+1]
  00406B09: 3D 00 01 00 00     cmp         eax,100h
  00406B0E: 77 15              ja          00406B25
  00406B10: 8B 15 C0 FA 40 00  mov         edx,dword ptr ds:[0040FAC0h]
  00406B16: 33 C0              xor         eax,eax
  00406B18: 66 8B 04 4A        mov         ax,word ptr [edx+ecx*2]
  00406B1C: 8B 4C 24 10        mov         ecx,dword ptr [esp+10h]
  00406B20: 23 C1              and         eax,ecx
  00406B22: 5E                 pop         esi
  00406B23: 59                 pop         ecx
  00406B24: C3                 ret
  00406B25: 8B 35 C0 FA 40 00  mov         esi,dword ptr ds:[0040FAC0h]
  00406B2B: 8B C1              mov         eax,ecx
  00406B2D: C1 F8 08           sar         eax,8
  00406B30: 8B D0              mov         edx,eax
  00406B32: 81 E2 FF 00 00 00  and         edx,0FFh
  00406B38: F6 44 56 01 80     test        byte ptr [esi+edx*2+1],80h
  00406B3D: 74 14              je          00406B53
  00406B3F: 88 44 24 0C        mov         byte ptr [esp+0Ch],al
  00406B43: 88 4C 24 0D        mov         byte ptr [esp+0Dh],cl
  00406B47: C6 44 24 0E 00     mov         byte ptr [esp+0Eh],0
  00406B4C: B8 02 00 00 00     mov         eax,2
  00406B51: EB 0E              jmp         00406B61
  00406B53: 88 4C 24 0C        mov         byte ptr [esp+0Ch],cl
  00406B57: C6 44 24 0D 00     mov         byte ptr [esp+0Dh],0
  00406B5C: B8 01 00 00 00     mov         eax,1
  00406B61: 6A 00              push        0
  00406B63: 8D 4C 24 08        lea         ecx,[esp+8]
  00406B67: 6A 00              push        0
  00406B69: 51                 push        ecx
  00406B6A: 8D 54 24 18        lea         edx,[esp+18h]
  00406B6E: 50                 push        eax
  00406B6F: 52                 push        edx
  00406B70: 6A 01              push        1
  00406B72: E8 19 1E 00 00     call        00408990
  00406B77: 83 C4 18           add         esp,18h
  00406B7A: 85 C0              test        eax,eax
  00406B7C: 75 03              jne         00406B81
  00406B7E: 5E                 pop         esi
  00406B7F: 59                 pop         ecx
  00406B80: C3                 ret
  00406B81: 8B 44 24 04        mov         eax,dword ptr [esp+4]
  00406B85: 8B 4C 24 10        mov         ecx,dword ptr [esp+10h]
  00406B89: 25 FF FF 00 00     and         eax,0FFFFh
  00406B8E: 5E                 pop         esi
  00406B8F: 23 C1              and         eax,ecx
  00406B91: 59                 pop         ecx
  00406B92: C3                 ret
  00406B93: 90                 nop
  00406B94: 90                 nop
  00406B95: 90                 nop
  00406B96: 90                 nop
  00406B97: 90                 nop
  00406B98: 90                 nop
  00406B99: 90                 nop
  00406B9A: 90                 nop
  00406B9B: 90                 nop
  00406B9C: 90                 nop
  00406B9D: 90                 nop
  00406B9E: 90                 nop
  00406B9F: 90                 nop
  00406BA0: 8B 44 24 08        mov         eax,dword ptr [esp+8]
  00406BA4: 8B 4C 24 10        mov         ecx,dword ptr [esp+10h]
  00406BA8: 0B C8              or          ecx,eax
  00406BAA: 8B 4C 24 0C        mov         ecx,dword ptr [esp+0Ch]
  00406BAE: 75 09              jne         00406BB9
  00406BB0: 8B 44 24 04        mov         eax,dword ptr [esp+4]
  00406BB4: F7 E1              mul         eax,ecx
  00406BB6: C2 10 00           ret         10h
  00406BB9: 53                 push        ebx
  00406BBA: F7 E1              mul         eax,ecx
  00406BBC: 8B D8              mov         ebx,eax
  00406BBE: 8B 44 24 08        mov         eax,dword ptr [esp+8]
  00406BC2: F7 64 24 14        mul         eax,dword ptr [esp+14h]
  00406BC6: 03 D8              add         ebx,eax
  00406BC8: 8B 44 24 08        mov         eax,dword ptr [esp+8]
  00406BCC: F7 E1              mul         eax,ecx
  00406BCE: 03 D3              add         edx,ebx
  00406BD0: 5B                 pop         ebx
  00406BD1: C2 10 00           ret         10h
  00406BD4: CC                 int         3
  00406BD5: CC                 int         3
  00406BD6: CC                 int         3
  00406BD7: CC                 int         3
  00406BD8: CC                 int         3
  00406BD9: CC                 int         3
  00406BDA: CC                 int         3
  00406BDB: CC                 int         3
  00406BDC: CC                 int         3
  00406BDD: CC                 int         3
  00406BDE: CC                 int         3
  00406BDF: CC                 int         3
  00406BE0: 8B 44 24 04        mov         eax,dword ptr [esp+4]
  00406BE4: 6A 04              push        4
  00406BE6: 6A 00              push        0
  00406BE8: 50                 push        eax
  00406BE9: E8 12 00 00 00     call        00406C00
  00406BEE: 83 C4 0C           add         esp,0Ch
  00406BF1: C3                 ret
  00406BF2: 90                 nop
  00406BF3: 90                 nop
  00406BF4: 90                 nop
  00406BF5: 90                 nop
  00406BF6: 90                 nop
  00406BF7: 90                 nop
  00406BF8: 90                 nop
  00406BF9: 90                 nop
  00406BFA: 90                 nop
  00406BFB: 90                 nop
  00406BFC: 90                 nop
  00406BFD: 90                 nop
  00406BFE: 90                 nop
  00406BFF: 90                 nop
  00406C00: 8B 44 24 04        mov         eax,dword ptr [esp+4]
  00406C04: 8A 4C 24 0C        mov         cl,byte ptr [esp+0Ch]
  00406C08: 25 FF 00 00 00     and         eax,0FFh
  00406C0D: 84 88 A1 0E 41 00  test        byte ptr [eax+00410EA1h],cl
  00406C13: 75 1F              jne         00406C34
  00406C15: 8B 4C 24 08        mov         ecx,dword ptr [esp+8]
  00406C19: 85 C9              test        ecx,ecx
  00406C1B: 74 10              je          00406C2D
  00406C1D: 33 D2              xor         edx,edx
  00406C1F: 66 8B 14 45 CA FA  mov         dx,word ptr [eax*2+0040FACAh]
            40 00
  00406C27: 8B C2              mov         eax,edx
  00406C29: 23 C1              and         eax,ecx
  00406C2B: EB 02              jmp         00406C2F
  00406C2D: 33 C0              xor         eax,eax
  00406C2F: 85 C0              test        eax,eax
  00406C31: 75 01              jne         00406C34
  00406C33: C3                 ret
  00406C34: B8 01 00 00 00     mov         eax,1
  00406C39: C3                 ret
  00406C3A: 90                 nop
  00406C3B: 90                 nop
  00406C3C: 90                 nop
  00406C3D: 90                 nop
  00406C3E: 90                 nop
  00406C3F: 90                 nop
  00406C40: 51                 push        ecx
  00406C41: 8B 15 C0 0C 41 00  mov         edx,dword ptr ds:[00410CC0h]
  00406C47: 53                 push        ebx
  00406C48: 55                 push        ebp
  00406C49: 56                 push        esi
  00406C4A: 8A 02              mov         al,byte ptr [edx]
  00406C4C: 33 F6              xor         esi,esi
  00406C4E: 84 C0              test        al,al
  00406C50: 57                 push        edi
  00406C51: 74 1D              je          00406C70
  00406C53: 3C 3D              cmp         al,3Dh
  00406C55: 74 01              je          00406C58
  00406C57: 46                 inc         esi
  00406C58: 8B FA              mov         edi,edx
  00406C5A: 83 C9 FF           or          ecx,0FFFFFFFFh
  00406C5D: 33 C0              xor         eax,eax
  00406C5F: F2 AE              repne scas  byte ptr es:[edi]
  00406C61: F7 D1              not         ecx
  00406C63: 49                 dec         ecx
  00406C64: 8A 44 0A 01        mov         al,byte ptr [edx+ecx+1]
  00406C68: 8D 54 0A 01        lea         edx,[edx+ecx+1]
  00406C6C: 84 C0              test        al,al
  00406C6E: 75 E3              jne         00406C53
  00406C70: 8D 04 B5 04 00 00  lea         eax,[esi*4+00000004h]
            00
  00406C77: 50                 push        eax
  00406C78: E8 E3 D2 FF FF     call        00403F60
  00406C7D: 8B F0              mov         esi,eax
  00406C7F: 83 C4 04           add         esp,4
  00406C82: 85 F6              test        esi,esi
  00406C84: 89 74 24 10        mov         dword ptr [esp+10h],esi
  00406C88: 89 35 6C 0D 41 00  mov         dword ptr ds:[00410D6Ch],esi
  00406C8E: 75 0A              jne         00406C9A
  00406C90: 6A 09              push        9
  00406C92: E8 A9 DF FF FF     call        00404C40
  00406C97: 83 C4 04           add         esp,4
  00406C9A: 8B 2D C0 0C 41 00  mov         ebp,dword ptr ds:[00410CC0h]
  00406CA0: 8A 55 00           mov         dl,byte ptr [ebp]
  00406CA3: 84 D2              test        dl,dl
  00406CA5: 74 63              je          00406D0A
  00406CA7: 8B FD              mov         edi,ebp
  00406CA9: 83 C9 FF           or          ecx,0FFFFFFFFh
  00406CAC: 33 C0              xor         eax,eax
  00406CAE: F2 AE              repne scas  byte ptr es:[edi]
  00406CB0: F7 D1              not         ecx
  00406CB2: 49                 dec         ecx
  00406CB3: 8B D9              mov         ebx,ecx
  00406CB5: 43                 inc         ebx
  00406CB6: 80 FA 3D           cmp         dl,3Dh
  00406CB9: 74 45              je          00406D00
  00406CBB: 53                 push        ebx
  00406CBC: E8 9F D2 FF FF     call        00403F60
  00406CC1: 83 C4 04           add         esp,4
  00406CC4: 89 06              mov         dword ptr [esi],eax
  00406CC6: 85 C0              test        eax,eax
  00406CC8: 75 0A              jne         00406CD4
  00406CCA: 6A 09              push        9
  00406CCC: E8 6F DF FF FF     call        00404C40
  00406CD1: 83 C4 04           add         esp,4
  00406CD4: 8B FD              mov         edi,ebp
  00406CD6: 83 C9 FF           or          ecx,0FFFFFFFFh
  00406CD9: 33 C0              xor         eax,eax
  00406CDB: F2 AE              repne scas  byte ptr es:[edi]
  00406CDD: 8B 44 24 10        mov         eax,dword ptr [esp+10h]
  00406CE1: F7 D1              not         ecx
  00406CE3: 2B F9              sub         edi,ecx
  00406CE5: 8B D1              mov         edx,ecx
  00406CE7: 8B F7              mov         esi,edi
  00406CE9: 8B 38              mov         edi,dword ptr [eax]
  00406CEB: C1 E9 02           shr         ecx,2
  00406CEE: F3 A5              rep movs    dword ptr es:[edi],dword ptr [esi]
  00406CF0: 8B CA              mov         ecx,edx
  00406CF2: 83 E1 03           and         ecx,3
  00406CF5: 83 C0 04           add         eax,4
  00406CF8: F3 A4              rep movs    byte ptr es:[edi],byte ptr [esi]
  00406CFA: 89 44 24 10        mov         dword ptr [esp+10h],eax
  00406CFE: 8B F0              mov         esi,eax
  00406D00: 8A 54 1D 00        mov         dl,byte ptr [ebp+ebx]
  00406D04: 03 EB              add         ebp,ebx
  00406D06: 84 D2              test        dl,dl
  00406D08: 75 9D              jne         00406CA7
  00406D0A: A1 C0 0C 41 00     mov         eax,dword ptr ds:[00410CC0h]
  00406D0F: 50                 push        eax
  00406D10: E8 DB D1 FF FF     call        00403EF0
  00406D15: 83 C4 04           add         esp,4
  00406D18: C7 05 C0 0C 41 00  mov         dword ptr ds:[00410CC0h],0
            00 00 00 00
  00406D22: C7 06 00 00 00 00  mov         dword ptr [esi],0
  00406D28: 5F                 pop         edi
  00406D29: 5E                 pop         esi
  00406D2A: 5D                 pop         ebp
  00406D2B: 5B                 pop         ebx
  00406D2C: 59                 pop         ecx
  00406D2D: C3                 ret
  00406D2E: 90                 nop
  00406D2F: 90                 nop
  00406D30: 83 EC 08           sub         esp,8
  00406D33: 56                 push        esi
  00406D34: 57                 push        edi
  00406D35: 68 04 01 00 00     push        104h
  00406D3A: 68 90 0D 41 00     push        410D90h
  00406D3F: 6A 00              push        0
  00406D41: FF 15 A8 33 41 00  call        dword ptr ds:[004133A8h]
  00406D47: 8B 3D 88 22 41 00  mov         edi,dword ptr ds:[00412288h]
  00406D4D: C7 05 7C 0D 41 00  mov         dword ptr ds:[00410D7Ch],410D90h
            90 0D 41 00
  00406D57: 80 3F 00           cmp         byte ptr [edi],0
  00406D5A: 75 05              jne         00406D61
  00406D5C: BF 90 0D 41 00     mov         edi,410D90h
  00406D61: 8D 44 24 0C        lea         eax,[esp+0Ch]
  00406D65: 8D 4C 24 08        lea         ecx,[esp+8]
  00406D69: 50                 push        eax
  00406D6A: 51                 push        ecx
  00406D6B: 6A 00              push        0
  00406D6D: 6A 00              push        0
  00406D6F: 57                 push        edi
  00406D70: E8 5B 00 00 00     call        00406DD0
  00406D75: 8B 54 24 20        mov         edx,dword ptr [esp+20h]
  00406D79: 8B 44 24 1C        mov         eax,dword ptr [esp+1Ch]
  00406D7D: 83 C4 14           add         esp,14h
  00406D80: 8D 0C 82           lea         ecx,[edx+eax*4]
  00406D83: 51                 push        ecx
  00406D84: E8 D7 D1 FF FF     call        00403F60
  00406D89: 8B F0              mov         esi,eax
  00406D8B: 83 C4 04           add         esp,4
  00406D8E: 85 F6              test        esi,esi
  00406D90: 75 0A              jne         00406D9C
  00406D92: 6A 08              push        8
  00406D94: E8 A7 DE FF FF     call        00404C40
  00406D99: 83 C4 04           add         esp,4
  00406D9C: 8B 4C 24 08        mov         ecx,dword ptr [esp+8]
  00406DA0: 8D 54 24 0C        lea         edx,[esp+0Ch]
  00406DA4: 52                 push        edx
  00406DA5: 8D 44 24 0C        lea         eax,[esp+0Ch]
  00406DA9: 8D 14 8E           lea         edx,[esi+ecx*4]
  00406DAC: 50                 push        eax
  00406DAD: 52                 push        edx
  00406DAE: 56                 push        esi
  00406DAF: 57                 push        edi
  00406DB0: E8 1B 00 00 00     call        00406DD0
  00406DB5: 8B 44 24 1C        mov         eax,dword ptr [esp+1Ch]
  00406DB9: 83 C4 14           add         esp,14h
  00406DBC: 48                 dec         eax
  00406DBD: 89 35 64 0D 41 00  mov         dword ptr ds:[00410D64h],esi
  00406DC3: 5F                 pop         edi
  00406DC4: A3 60 0D 41 00     mov         dword ptr ds:[00410D60h],eax
  00406DC9: 5E                 pop         esi
  00406DCA: 83 C4 08           add         esp,8
  00406DCD: C3                 ret
  00406DCE: 90                 nop
  00406DCF: 90                 nop
  00406DD0: 8B 44 24 10        mov         eax,dword ptr [esp+10h]
  00406DD4: 53                 push        ebx
  00406DD5: 55                 push        ebp
  00406DD6: 8B 6C 24 10        mov         ebp,dword ptr [esp+10h]
  00406DDA: 56                 push        esi
  00406DDB: 8B 74 24 18        mov         esi,dword ptr [esp+18h]
  00406DDF: 57                 push        edi
  00406DE0: 8B 7C 24 24        mov         edi,dword ptr [esp+24h]
  00406DE4: 85 ED              test        ebp,ebp
  00406DE6: C7 07 00 00 00 00  mov         dword ptr [edi],0
  00406DEC: C7 00 01 00 00 00  mov         dword ptr [eax],1
  00406DF2: 8B 44 24 14        mov         eax,dword ptr [esp+14h]
  00406DF6: BB 04 00 00 00     mov         ebx,4
  00406DFB: 74 09              je          00406E06
  00406DFD: 89 75 00           mov         dword ptr [ebp],esi
  00406E00: 03 EB              add         ebp,ebx
  00406E02: 89 6C 24 18        mov         dword ptr [esp+18h],ebp
  00406E06: 80 38 22           cmp         byte ptr [eax],22h
  00406E09: 75 56              jne         00406E61
  00406E0B: 8A 48 01           mov         cl,byte ptr [eax+1]
  00406E0E: 40                 inc         eax
  00406E0F: 80 F9 22           cmp         cl,22h
  00406E12: 74 38              je          00406E4C
  00406E14: 84 C9              test        cl,cl
  00406E16: 74 34              je          00406E4C
  00406E18: 81 E1 FF 00 00 00  and         ecx,0FFh
  00406E1E: 84 99 A1 0E 41 00  test        byte ptr [ecx+00410EA1h],bl
  00406E24: 74 0F              je          00406E35
  00406E26: 8B 17              mov         edx,dword ptr [edi]
  00406E28: 42                 inc         edx
  00406E29: 85 F6              test        esi,esi
  00406E2B: 89 17              mov         dword ptr [edi],edx
  00406E2D: 74 06              je          00406E35
  00406E2F: 8A 08              mov         cl,byte ptr [eax]
  00406E31: 88 0E              mov         byte ptr [esi],cl
  00406E33: 46                 inc         esi
  00406E34: 40                 inc         eax
  00406E35: 8B 17              mov         edx,dword ptr [edi]
  00406E37: 42                 inc         edx
  00406E38: 85 F6              test        esi,esi
  00406E3A: 89 17              mov         dword ptr [edi],edx
  00406E3C: 74 05              je          00406E43
  00406E3E: 8A 10              mov         dl,byte ptr [eax]
  00406E40: 88 16              mov         byte ptr [esi],dl
  00406E42: 46                 inc         esi
  00406E43: 8A 48 01           mov         cl,byte ptr [eax+1]
  00406E46: 40                 inc         eax
  00406E47: 80 F9 22           cmp         cl,22h
  00406E4A: 75 C8              jne         00406E14
  00406E4C: 8B 17              mov         edx,dword ptr [edi]
  00406E4E: 42                 inc         edx
  00406E4F: 85 F6              test        esi,esi
  00406E51: 89 17              mov         dword ptr [edi],edx
  00406E53: 74 04              je          00406E59
  00406E55: C6 06 00           mov         byte ptr [esi],0
  00406E58: 46                 inc         esi
  00406E59: 80 38 22           cmp         byte ptr [eax],22h
  00406E5C: 75 56              jne         00406EB4
  00406E5E: 40                 inc         eax
  00406E5F: EB 53              jmp         00406EB4
  00406E61: 8B 17              mov         edx,dword ptr [edi]
  00406E63: 42                 inc         edx
  00406E64: 85 F6              test        esi,esi
  00406E66: 89 17              mov         dword ptr [edi],edx
  00406E68: 74 05              je          00406E6F
  00406E6A: 8A 08              mov         cl,byte ptr [eax]
  00406E6C: 88 0E              mov         byte ptr [esi],cl
  00406E6E: 46                 inc         esi
  00406E6F: 8A 08              mov         cl,byte ptr [eax]
  00406E71: 40                 inc         eax
  00406E72: 88 4C 24 24        mov         byte ptr [esp+24h],cl
  00406E76: 8B 54 24 24        mov         edx,dword ptr [esp+24h]
  00406E7A: 81 E2 FF 00 00 00  and         edx,0FFh
  00406E80: 84 9A A1 0E 41 00  test        byte ptr [edx+00410EA1h],bl
  00406E86: 74 0F              je          00406E97
  00406E88: 8B 17              mov         edx,dword ptr [edi]
  00406E8A: 42                 inc         edx
  00406E8B: 85 F6              test        esi,esi
  00406E8D: 89 17              mov         dword ptr [edi],edx
  00406E8F: 74 05              je          00406E96
  00406E91: 8A 10              mov         dl,byte ptr [eax]
  00406E93: 88 16              mov         byte ptr [esi],dl
  00406E95: 46                 inc         esi
  00406E96: 40                 inc         eax
  00406E97: 80 F9 20           cmp         cl,20h
  00406E9A: 74 09              je          00406EA5
  00406E9C: 84 C9              test        cl,cl
  00406E9E: 74 09              je          00406EA9
  00406EA0: 80 F9 09           cmp         cl,9
  00406EA3: 75 BC              jne         00406E61
  00406EA5: 84 C9              test        cl,cl
  00406EA7: 75 03              jne         00406EAC
  00406EA9: 48                 dec         eax
  00406EAA: EB 08              jmp         00406EB4
  00406EAC: 85 F6              test        esi,esi
  00406EAE: 74 04              je          00406EB4
  00406EB0: C6 46 FF 00        mov         byte ptr [esi-1],0
  00406EB4: 33 D2              xor         edx,edx
  00406EB6: 89 54 24 24        mov         dword ptr [esp+24h],edx
  00406EBA: 80 38 00           cmp         byte ptr [eax],0
  00406EBD: 0F 84 03 01 00 00  je          00406FC6
  00406EC3: 8A 08              mov         cl,byte ptr [eax]
  00406EC5: 80 F9 20           cmp         cl,20h
  00406EC8: 74 05              je          00406ECF
  00406ECA: 80 F9 09           cmp         cl,9
  00406ECD: 75 03              jne         00406ED2
  00406ECF: 40                 inc         eax
  00406ED0: EB F1              jmp         00406EC3
  00406ED2: 80 38 00           cmp         byte ptr [eax],0
  00406ED5: 0F 84 EB 00 00 00  je          00406FC6
  00406EDB: 85 ED              test        ebp,ebp
  00406EDD: 74 09              je          00406EE8
  00406EDF: 89 75 00           mov         dword ptr [ebp],esi
  00406EE2: 03 EB              add         ebp,ebx
  00406EE4: 89 6C 24 18        mov         dword ptr [esp+18h],ebp
  00406EE8: 8B 4C 24 20        mov         ecx,dword ptr [esp+20h]
  00406EEC: FF 01              inc         dword ptr [ecx]
  00406EEE: 8A 18              mov         bl,byte ptr [eax]
  00406EF0: 33 C9              xor         ecx,ecx
  00406EF2: 80 FB 5C           cmp         bl,5Ch
  00406EF5: BD 01 00 00 00     mov         ebp,1
  00406EFA: 75 0A              jne         00406F06
  00406EFC: 8A 58 01           mov         bl,byte ptr [eax+1]
  00406EFF: 40                 inc         eax
  00406F00: 41                 inc         ecx
  00406F01: 80 FB 5C           cmp         bl,5Ch
  00406F04: 74 F6              je          00406EFC
  00406F06: 80 38 22           cmp         byte ptr [eax],22h
  00406F09: 75 25              jne         00406F30
  00406F0B: F6 C1 01           test        cl,1
  00406F0E: 75 1E              jne         00406F2E
  00406F10: 85 D2              test        edx,edx
  00406F12: 74 09              je          00406F1D
  00406F14: 80 78 01 22        cmp         byte ptr [eax+1],22h
  00406F18: 75 03              jne         00406F1D
  00406F1A: 40                 inc         eax
  00406F1B: EB 02              jmp         00406F1F
  00406F1D: 33 ED              xor         ebp,ebp
  00406F1F: 8B 5C 24 24        mov         ebx,dword ptr [esp+24h]
  00406F23: 33 D2              xor         edx,edx
  00406F25: 85 DB              test        ebx,ebx
  00406F27: 0F 94 C2           sete        dl
  00406F2A: 89 54 24 24        mov         dword ptr [esp+24h],edx
  00406F2E: D1 E9              shr         ecx,1
  00406F30: 8B D9              mov         ebx,ecx
  00406F32: 49                 dec         ecx
  00406F33: 85 DB              test        ebx,ebx
  00406F35: 74 11              je          00406F48
  00406F37: 41                 inc         ecx
  00406F38: 85 F6              test        esi,esi
  00406F3A: 74 04              je          00406F40
  00406F3C: C6 06 5C           mov         byte ptr [esi],5Ch
  00406F3F: 46                 inc         esi
  00406F40: 8B 1F              mov         ebx,dword ptr [edi]
  00406F42: 43                 inc         ebx
  00406F43: 49                 dec         ecx
  00406F44: 89 1F              mov         dword ptr [edi],ebx
  00406F46: 75 F0              jne         00406F38
  00406F48: 8A 08              mov         cl,byte ptr [eax]
  00406F4A: 84 C9              test        cl,cl
  00406F4C: 74 5D              je          00406FAB
  00406F4E: 85 D2              test        edx,edx
  00406F50: 75 0A              jne         00406F5C
  00406F52: 80 F9 20           cmp         cl,20h
  00406F55: 74 54              je          00406FAB
  00406F57: 80 F9 09           cmp         cl,9
  00406F5A: 74 4F              je          00406FAB
  00406F5C: 85 ED              test        ebp,ebp
  00406F5E: 74 45              je          00406FA5
  00406F60: 85 F6              test        esi,esi
  00406F62: 74 2A              je          00406F8E
  00406F64: 8B D9              mov         ebx,ecx
  00406F66: 81 E3 FF 00 00 00  and         ebx,0FFh
  00406F6C: F6 83 A1 0E 41 00  test        byte ptr [ebx+00410EA1h],4
            04
  00406F73: 74 09              je          00406F7E
  00406F75: 88 0E              mov         byte ptr [esi],cl
  00406F77: 8B 0F              mov         ecx,dword ptr [edi]
  00406F79: 46                 inc         esi
  00406F7A: 40                 inc         eax
  00406F7B: 41                 inc         ecx
  00406F7C: 89 0F              mov         dword ptr [edi],ecx
  00406F7E: 8A 08              mov         cl,byte ptr [eax]
  00406F80: 88 0E              mov         byte ptr [esi],cl
  00406F82: 8B 0F              mov         ecx,dword ptr [edi]
  00406F84: 46                 inc         esi
  00406F85: 41                 inc         ecx
  00406F86: 89 0F              mov         dword ptr [edi],ecx
  00406F88: 40                 inc         eax
  00406F89: E9 60 FF FF FF     jmp         00406EEE
  00406F8E: 81 E1 FF 00 00 00  and         ecx,0FFh
  00406F94: F6 81 A1 0E 41 00  test        byte ptr [ecx+00410EA1h],4
            04
  00406F9B: 74 06              je          00406FA3
  00406F9D: 8B 0F              mov         ecx,dword ptr [edi]
  00406F9F: 40                 inc         eax
  00406FA0: 41                 inc         ecx
  00406FA1: 89 0F              mov         dword ptr [edi],ecx
  00406FA3: FF 07              inc         dword ptr [edi]
  00406FA5: 40                 inc         eax
  00406FA6: E9 43 FF FF FF     jmp         00406EEE
  00406FAB: 85 F6              test        esi,esi
  00406FAD: 74 04              je          00406FB3
  00406FAF: C6 06 00           mov         byte ptr [esi],0
  00406FB2: 46                 inc         esi
  00406FB3: 8B 0F              mov         ecx,dword ptr [edi]
  00406FB5: 8B 6C 24 18        mov         ebp,dword ptr [esp+18h]
  00406FB9: 41                 inc         ecx
  00406FBA: BB 04 00 00 00     mov         ebx,4
  00406FBF: 89 0F              mov         dword ptr [edi],ecx
  00406FC1: E9 F4 FE FF FF     jmp         00406EBA
  00406FC6: 85 ED              test        ebp,ebp
  00406FC8: 74 07              je          00406FD1
  00406FCA: C7 45 00 00 00 00  mov         dword ptr [ebp],0
            00
  00406FD1: 8B 44 24 20        mov         eax,dword ptr [esp+20h]
  00406FD5: 5F                 pop         edi
  00406FD6: 5E                 pop         esi
  00406FD7: 5D                 pop         ebp
  00406FD8: 8B 08              mov         ecx,dword ptr [eax]
  00406FDA: 5B                 pop         ebx
  00406FDB: 41                 inc         ecx
  00406FDC: 89 08              mov         dword ptr [eax],ecx
  00406FDE: C3                 ret
  00406FDF: 90                 nop
  00406FE0: A1 98 0E 41 00     mov         eax,dword ptr ds:[00410E98h]
  00406FE5: 53                 push        ebx
  00406FE6: 55                 push        ebp
  00406FE7: 8B 2D 98 33 41 00  mov         ebp,dword ptr ds:[00413398h]
  00406FED: 56                 push        esi
  00406FEE: 33 F6              xor         esi,esi
  00406FF0: 33 DB              xor         ebx,ebx
  00406FF2: 57                 push        edi
  00406FF3: 8B 3D 94 33 41 00  mov         edi,dword ptr ds:[00413394h]
  00406FF9: 85 C0              test        eax,eax
  00406FFB: 75 25              jne         00407022
  00406FFD: FF D7              call        edi
  00406FFF: 8B F0              mov         esi,eax
  00407001: 85 F6              test        esi,esi
  00407003: 74 07              je          0040700C
  00407005: B8 01 00 00 00     mov         eax,1
  0040700A: EB 11              jmp         0040701D
  0040700C: FF D5              call        ebp
  0040700E: 8B D8              mov         ebx,eax
  00407010: 85 DB              test        ebx,ebx
  00407012: 0F 84 17 01 00 00  je          0040712F
  00407018: B8 02 00 00 00     mov         eax,2
  0040701D: A3 98 0E 41 00     mov         dword ptr ds:[00410E98h],eax
  00407022: 83 F8 01           cmp         eax,1
  00407025: 0F 85 97 00 00 00  jne         004070C2
  0040702B: 85 F6              test        esi,esi
  0040702D: 75 0C              jne         0040703B
  0040702F: FF D7              call        edi
  00407031: 8B F0              mov         esi,eax
  00407033: 85 F6              test        esi,esi
  00407035: 0F 84 F4 00 00 00  je          0040712F
  0040703B: 66 83 3E 00        cmp         word ptr [esi],0
  0040703F: 8B C6              mov         eax,esi
  00407041: 74 12              je          00407055
  00407043: 83 C0 02           add         eax,2
  00407046: 66 83 38 00        cmp         word ptr [eax],0
  0040704A: 75 F7              jne         00407043
  0040704C: 83 C0 02           add         eax,2
  0040704F: 66 83 38 00        cmp         word ptr [eax],0
  00407053: 75 EE              jne         00407043
  00407055: 2B C6              sub         eax,esi
  00407057: 6A 00              push        0
  00407059: D1 F8              sar         eax,1
  0040705B: 40                 inc         eax
  0040705C: 6A 00              push        0
  0040705E: 8B E8              mov         ebp,eax
  00407060: 6A 00              push        0
  00407062: 6A 00              push        0
  00407064: 55                 push        ebp
  00407065: 56                 push        esi
  00407066: 6A 00              push        0
  00407068: 6A 00              push        0
  0040706A: FF 15 90 33 41 00  call        dword ptr ds:[00413390h]
  00407070: 8B F8              mov         edi,eax
  00407072: 85 FF              test        edi,edi
  00407074: 74 3E              je          004070B4
  00407076: 57                 push        edi
  00407077: E8 E4 CE FF FF     call        00403F60
  0040707C: 8B D8              mov         ebx,eax
  0040707E: 83 C4 04           add         esp,4
  00407081: 85 DB              test        ebx,ebx
  00407083: 74 2F              je          004070B4
  00407085: 6A 00              push        0
  00407087: 6A 00              push        0
  00407089: 57                 push        edi
  0040708A: 53                 push        ebx
  0040708B: 55                 push        ebp
  0040708C: 56                 push        esi
  0040708D: 6A 00              push        0
  0040708F: 6A 00              push        0
  00407091: FF 15 90 33 41 00  call        dword ptr ds:[00413390h]
  00407097: 85 C0              test        eax,eax
  00407099: 75 0B              jne         004070A6
  0040709B: 53                 push        ebx
  0040709C: E8 4F CE FF FF     call        00403EF0
  004070A1: 83 C4 04           add         esp,4
  004070A4: 33 DB              xor         ebx,ebx
  004070A6: 56                 push        esi
  004070A7: FF 15 9C 33 41 00  call        dword ptr ds:[0041339Ch]
  004070AD: 8B C3              mov         eax,ebx
  004070AF: 5F                 pop         edi
  004070B0: 5E                 pop         esi
  004070B1: 5D                 pop         ebp
  004070B2: 5B                 pop         ebx
  004070B3: C3                 ret
  004070B4: 56                 push        esi
  004070B5: FF 15 9C 33 41 00  call        dword ptr ds:[0041339Ch]
  004070BB: 33 C0              xor         eax,eax
  004070BD: 5F                 pop         edi
  004070BE: 5E                 pop         esi
  004070BF: 5D                 pop         ebp
  004070C0: 5B                 pop         ebx
  004070C1: C3                 ret
  004070C2: 83 F8 02           cmp         eax,2
  004070C5: 75 68              jne         0040712F
  004070C7: 85 DB              test        ebx,ebx
  004070C9: 75 08              jne         004070D3
  004070CB: FF D5              call        ebp
  004070CD: 8B D8              mov         ebx,eax
  004070CF: 85 DB              test        ebx,ebx
  004070D1: 74 5C              je          0040712F
  004070D3: 8A 0B              mov         cl,byte ptr [ebx]
  004070D5: 8B C3              mov         eax,ebx
  004070D7: 84 C9              test        cl,cl
  004070D9: 74 10              je          004070EB
  004070DB: 8A 48 01           mov         cl,byte ptr [eax+1]
  004070DE: 40                 inc         eax
  004070DF: 84 C9              test        cl,cl
  004070E1: 75 F8              jne         004070DB
  004070E3: 8A 48 01           mov         cl,byte ptr [eax+1]
  004070E6: 40                 inc         eax
  004070E7: 84 C9              test        cl,cl
  004070E9: 75 F0              jne         004070DB
  004070EB: 2B C3              sub         eax,ebx
  004070ED: 40                 inc         eax
  004070EE: 8B F0              mov         esi,eax
  004070F0: 56                 push        esi
  004070F1: E8 6A CE FF FF     call        00403F60
  004070F6: 8B E8              mov         ebp,eax
  004070F8: 83 C4 04           add         esp,4
  004070FB: 85 ED              test        ebp,ebp
  004070FD: 75 0E              jne         0040710D
  004070FF: 53                 push        ebx
  00407100: FF 15 A4 33 41 00  call        dword ptr ds:[004133A4h]
  00407106: 33 C0              xor         eax,eax
  00407108: 5F                 pop         edi
  00407109: 5E                 pop         esi
  0040710A: 5D                 pop         ebp
  0040710B: 5B                 pop         ebx
  0040710C: C3                 ret
  0040710D: 8B CE              mov         ecx,esi
  0040710F: 8B F3              mov         esi,ebx
  00407111: 8B C1              mov         eax,ecx
  00407113: 8B FD              mov         edi,ebp
  00407115: C1 E9 02           shr         ecx,2
  00407118: F3 A5              rep movs    dword ptr es:[edi],dword ptr [esi]
  0040711A: 8B C8              mov         ecx,eax
  0040711C: 53                 push        ebx
  0040711D: 83 E1 03           and         ecx,3
  00407120: F3 A4              rep movs    byte ptr es:[edi],byte ptr [esi]
  00407122: FF 15 A4 33 41 00  call        dword ptr ds:[004133A4h]
  00407128: 8B C5              mov         eax,ebp
  0040712A: 5F                 pop         edi
  0040712B: 5E                 pop         esi
  0040712C: 5D                 pop         ebp
  0040712D: 5B                 pop         ebx
  0040712E: C3                 ret
  0040712F: 5F                 pop         edi
  00407130: 5E                 pop         esi
  00407131: 5D                 pop         ebp
  00407132: 33 C0              xor         eax,eax
  00407134: 5B                 pop         ebx
  00407135: C3                 ret
  00407136: 90                 nop
  00407137: 90                 nop
  00407138: 90                 nop
  00407139: 90                 nop
  0040713A: 90                 nop
  0040713B: 90                 nop
  0040713C: 90                 nop
  0040713D: 90                 nop
  0040713E: 90                 nop
  0040713F: 90                 nop
  00407140: 83 EC 14           sub         esp,14h
  00407143: 53                 push        ebx
  00407144: 55                 push        ebp
  00407145: 56                 push        esi
  00407146: 57                 push        edi
  00407147: 6A 19              push        19h
  00407149: E8 A2 E7 FF FF     call        004058F0
  0040714E: 8B 44 24 2C        mov         eax,dword ptr [esp+2Ch]
  00407152: 83 C4 04           add         esp,4
  00407155: 50                 push        eax
  00407156: E8 05 02 00 00     call        00407360
  0040715B: 8B E8              mov         ebp,eax
  0040715D: A1 A4 0F 41 00     mov         eax,dword ptr ds:[00410FA4h]
  00407162: 83 C4 04           add         esp,4
  00407165: 3B E8              cmp         ebp,eax
  00407167: 89 6C 24 28        mov         dword ptr [esp+28h],ebp
  0040716B: 75 14              jne         00407181
  0040716D: 6A 19              push        19h
  0040716F: E8 FC E7 FF FF     call        00405970
  00407174: 83 C4 04           add         esp,4
  00407177: 33 C0              xor         eax,eax
  00407179: 5F                 pop         edi
  0040717A: 5E                 pop         esi
  0040717B: 5D                 pop         ebp
  0040717C: 5B                 pop         ebx
  0040717D: 83 C4 14           add         esp,14h
  00407180: C3                 ret
  00407181: 33 F6              xor         esi,esi
  00407183: 3B EE              cmp         ebp,esi
  00407185: 0F 84 F2 00 00 00  je          0040727D
  0040718B: 33 D2              xor         edx,edx
  0040718D: B8 E8 FC 40 00     mov         eax,40FCE8h
  00407192: 39 28              cmp         dword ptr [eax],ebp
  00407194: 0F 84 11 01 00 00  je          004072AB
  0040719A: 83 C0 30           add         eax,30h
  0040719D: 42                 inc         edx
  0040719E: 3D D8 FD 40 00     cmp         eax,40FDD8h
  004071A3: 72 ED              jb          00407192
  004071A5: 8D 4C 24 10        lea         ecx,[esp+10h]
  004071A9: 51                 push        ecx
  004071AA: 55                 push        ebp
  004071AB: FF 15 8C 33 41 00  call        dword ptr ds:[0041338Ch]
  004071B1: 83 F8 01           cmp         eax,1
  004071B4: 0F 85 BB 00 00 00  jne         00407275
  004071BA: B9 40 00 00 00     mov         ecx,40h
  004071BF: 33 C0              xor         eax,eax
  004071C1: BF A0 0E 41 00     mov         edi,410EA0h
  004071C6: F3 AB              rep stos    dword ptr es:[edi]
  004071C8: AA                 stos        byte ptr es:[edi]
  004071C9: 83 7C 24 10 01     cmp         dword ptr [esp+10h],1
  004071CE: 76 71              jbe         00407241
  004071D0: 8A 44 24 16        mov         al,byte ptr [esp+16h]
  004071D4: 84 C0              test        al,al
  004071D6: 74 37              je          0040720F
  004071D8: 8D 54 24 17        lea         edx,[esp+17h]
  004071DC: 8A 0A              mov         cl,byte ptr [edx]
  004071DE: 84 C9              test        cl,cl
  004071E0: 74 2D              je          0040720F
  004071E2: 33 C0              xor         eax,eax
  004071E4: 81 E1 FF 00 00 00  and         ecx,0FFh
  004071EA: 8A 42 FF           mov         al,byte ptr [edx-1]
  004071ED: 3B C1              cmp         eax,ecx
  004071EF: 77 14              ja          00407205
  004071F1: 8A 98 A1 0E 41 00  mov         bl,byte ptr [eax+00410EA1h]
  004071F7: 80 CB 04           or          bl,4
  004071FA: 88 98 A1 0E 41 00  mov         byte ptr [eax+00410EA1h],bl
  00407200: 40                 inc         eax
  00407201: 3B C1              cmp         eax,ecx
  00407203: 76 EC              jbe         004071F1
  00407205: 8A 42 01           mov         al,byte ptr [edx+1]
  00407208: 83 C2 02           add         edx,2
  0040720B: 84 C0              test        al,al
  0040720D: 75 CD              jne         004071DC
  0040720F: B8 01 00 00 00     mov         eax,1
  00407214: 8A 98 A1 0E 41 00  mov         bl,byte ptr [eax+00410EA1h]
  0040721A: 80 CB 08           or          bl,8
  0040721D: 88 98 A1 0E 41 00  mov         byte ptr [eax+00410EA1h],bl
  00407223: 40                 inc         eax
  00407224: 3D FF 00 00 00     cmp         eax,0FFh
  00407229: 72 E9              jb          00407214
  0040722B: 55                 push        ebp
  0040722C: 89 2D A4 0F 41 00  mov         dword ptr ds:[00410FA4h],ebp
  00407232: E8 79 01 00 00     call        004073B0
  00407237: 83 C4 04           add         esp,4
  0040723A: A3 A8 0F 41 00     mov         dword ptr ds:[00410FA8h],eax
  0040723F: EB 0C              jmp         0040724D
  00407241: 89 35 A4 0F 41 00  mov         dword ptr ds:[00410FA4h],esi
  00407247: 89 35 A8 0F 41 00  mov         dword ptr ds:[00410FA8h],esi
  0040724D: 33 D2              xor         edx,edx
  0040724F: 6A 19              push        19h
  00407251: 89 15 B0 0F 41 00  mov         dword ptr ds:[00410FB0h],edx
  00407257: 89 15 B4 0F 41 00  mov         dword ptr ds:[00410FB4h],edx
  0040725D: 89 15 B8 0F 41 00  mov         dword ptr ds:[00410FB8h],edx
  00407263: E8 08 E7 FF FF     call        00405970
  00407268: 83 C4 04           add         esp,4
  0040726B: 33 C0              xor         eax,eax
  0040726D: 5F                 pop         edi
  0040726E: 5E                 pop         esi
  0040726F: 5D                 pop         ebp
  00407270: 5B                 pop         ebx
  00407271: 83 C4 14           add         esp,14h
  00407274: C3                 ret
  00407275: 39 35 BC 0F 41 00  cmp         dword ptr ds:[00410FBCh],esi
  0040727B: 74 19              je          00407296
  0040727D: E8 8E 01 00 00     call        00407410
  00407282: 6A 19              push        19h
  00407284: E8 E7 E6 FF FF     call        00405970
  00407289: 83 C4 04           add         esp,4
  0040728C: 33 C0              xor         eax,eax
  0040728E: 5F                 pop         edi
  0040728F: 5E                 pop         esi
  00407290: 5D                 pop         ebp
  00407291: 5B                 pop         ebx
  00407292: 83 C4 14           add         esp,14h
  00407295: C3                 ret
  00407296: 6A 19              push        19h
  00407298: E8 D3 E6 FF FF     call        00405970
  0040729D: 83 C4 04           add         esp,4
  004072A0: 83 C8 FF           or          eax,0FFFFFFFFh
  004072A3: 5F                 pop         edi
  004072A4: 5E                 pop         esi
  004072A5: 5D                 pop         ebp
  004072A6: 5B                 pop         ebx
  004072A7: 83 C4 14           add         esp,14h
  004072AA: C3                 ret
  004072AB: B9 40 00 00 00     mov         ecx,40h
  004072B0: 33 C0              xor         eax,eax
  004072B2: BF A0 0E 41 00     mov         edi,410EA0h
  004072B7: 8D 1C 52           lea         ebx,[edx+edx*2]
  004072BA: F3 AB              rep stos    dword ptr es:[edi]
  004072BC: AA                 stos        byte ptr es:[edi]
  004072BD: 33 FF              xor         edi,edi
  004072BF: C1 E3 04           shl         ebx,4
  004072C2: 8D AB F8 FC 40 00  lea         ebp,[ebx+0040FCF8h]
  004072C8: 8A 45 00           mov         al,byte ptr [ebp]
  004072CB: 8B F5              mov         esi,ebp
  004072CD: 84 C0              test        al,al
  004072CF: 74 30              je          00407301
  004072D1: 8A 4E 01           mov         cl,byte ptr [esi+1]
  004072D4: 84 C9              test        cl,cl
  004072D6: 74 29              je          00407301
  004072D8: 33 C0              xor         eax,eax
  004072DA: 81 E1 FF 00 00 00  and         ecx,0FFh
  004072E0: 8A 06              mov         al,byte ptr [esi]
  004072E2: 3B C1              cmp         eax,ecx
  004072E4: 77 11              ja          004072F7
  004072E6: 8A 97 E0 FC 40 00  mov         dl,byte ptr [edi+0040FCE0h]
  004072EC: 08 90 A1 0E 41 00  or          byte ptr [eax+00410EA1h],dl
  004072F2: 40                 inc         eax
  004072F3: 3B C1              cmp         eax,ecx
  004072F5: 76 F5              jbe         004072EC
  004072F7: 8A 46 02           mov         al,byte ptr [esi+2]
  004072FA: 83 C6 02           add         esi,2
  004072FD: 84 C0              test        al,al
  004072FF: 75 D0              jne         004072D1
  00407301: 47                 inc         edi
  00407302: 83 C5 08           add         ebp,8
  00407305: 83 FF 04           cmp         edi,4
  00407308: 72 BE              jb          004072C8
  0040730A: 8B 44 24 28        mov         eax,dword ptr [esp+28h]
  0040730E: 50                 push        eax
  0040730F: A3 A4 0F 41 00     mov         dword ptr ds:[00410FA4h],eax
  00407314: E8 97 00 00 00     call        004073B0
  00407319: 8B 8B EC FC 40 00  mov         ecx,dword ptr [ebx+0040FCECh]
  0040731F: 8B 93 F0 FC 40 00  mov         edx,dword ptr [ebx+0040FCF0h]
  00407325: A3 A8 0F 41 00     mov         dword ptr ds:[00410FA8h],eax
  0040732A: 8D 83 EC FC 40 00  lea         eax,[ebx+0040FCECh]
  00407330: 83 C4 04           add         esp,4
  00407333: 89 0D B0 0F 41 00  mov         dword ptr ds:[00410FB0h],ecx
  00407339: 8B 40 08           mov         eax,dword ptr [eax+8]
  0040733C: 89 15 B4 0F 41 00  mov         dword ptr ds:[00410FB4h],edx
  00407342: 6A 19              push        19h
  00407344: A3 B8 0F 41 00     mov         dword ptr ds:[00410FB8h],eax
  00407349: E8 22 E6 FF FF     call        00405970
  0040734E: 83 C4 04           add         esp,4
  00407351: 33 C0              xor         eax,eax
  00407353: 5F                 pop         edi
  00407354: 5E                 pop         esi
  00407355: 5D                 pop         ebp
  00407356: 5B                 pop         ebx
  00407357: 83 C4 14           add         esp,14h
  0040735A: C3                 ret
  0040735B: 90                 nop
  0040735C: 90                 nop
  0040735D: 90                 nop
  0040735E: 90                 nop
  0040735F: 90                 nop
  00407360: 8B 44 24 04        mov         eax,dword ptr [esp+4]
  00407364: C7 05 BC 0F 41 00  mov         dword ptr ds:[00410FBCh],0
            00 00 00 00
  0040736E: 83 F8 FE           cmp         eax,0FFFFFFFEh
  00407371: 75 10              jne         00407383
  00407373: C7 05 BC 0F 41 00  mov         dword ptr ds:[00410FBCh],1
            01 00 00 00
  0040737D: FF 25 84 33 41 00  jmp         dword ptr ds:[00413384h]
  00407383: 83 F8 FD           cmp         eax,0FFFFFFFDh
  00407386: 75 10              jne         00407398
  00407388: C7 05 BC 0F 41 00  mov         dword ptr ds:[00410FBCh],1
            01 00 00 00
  00407392: FF 25 88 33 41 00  jmp         dword ptr ds:[00413388h]
  00407398: 83 F8 FC           cmp         eax,0FFFFFFFCh
  0040739B: 75 0F              jne         004073AC
  0040739D: A1 A8 10 41 00     mov         eax,dword ptr ds:[004110A8h]
  004073A2: C7 05 BC 0F 41 00  mov         dword ptr ds:[00410FBCh],1
            01 00 00 00
  004073AC: C3                 ret
  004073AD: 90                 nop
  004073AE: 90                 nop
  004073AF: 90                 nop
  004073B0: 8B 44 24 04        mov         eax,dword ptr [esp+4]
  004073B4: 05 5C FC FF FF     add         eax,0FFFFFC5Ch
  004073B9: 83 F8 12           cmp         eax,12h
  004073BC: 77 27              ja          004073E5
  004073BE: 33 C9              xor         ecx,ecx
  004073C0: 8A 88 FC 73 40 00  mov         cl,byte ptr [eax+004073FCh]
  004073C6: FF 24 8D E8 73 40  jmp         dword ptr [ecx*4+004073E8h]
            00
  004073CD: B8 11 04 00 00     mov         eax,411h
  004073D2: C3                 ret
  004073D3: B8 04 08 00 00     mov         eax,804h
  004073D8: C3                 ret
  004073D9: B8 12 04 00 00     mov         eax,412h
  004073DE: C3                 ret
  004073DF: B8 04 04 00 00     mov         eax,404h
  004073E4: C3                 ret
  004073E5: 33 C0              xor         eax,eax
  004073E7: C3                 ret
  004073E8: CD 73              int         73h
  004073EA: 40                 inc         eax
  004073EB: 00 D3              add         bl,dl
  004073ED: 73 40              jae         0040742F
  004073EF: 00 D9              add         cl,bl
  004073F1: 73 40              jae         00407433
  004073F3: 00 DF              add         bh,bl
  004073F5: 73 40              jae         00407437
  004073F7: 00 E5              add         ch,ah
  004073F9: 73 40              jae         0040743B
  004073FB: 00 00              add         byte ptr [eax],al
  004073FD: 04 04              add         al,4
  004073FF: 04 01              add         al,1
  00407401: 04 04              add         al,4
  00407403: 04 04              add         al,4
  00407405: 04 04              add         al,4
  00407407: 04 04              add         al,4
  00407409: 04 04              add         al,4
  0040740B: 04 04              add         al,4
  0040740D: 02 03              add         al,byte ptr [ebx]
  0040740F: 90                 nop
  00407410: 57                 push        edi
  00407411: B9 40 00 00 00     mov         ecx,40h
  00407416: 33 C0              xor         eax,eax
  00407418: BF A0 0E 41 00     mov         edi,410EA0h
  0040741D: F3 AB              rep stos    dword ptr es:[edi]
  0040741F: AA                 stos        byte ptr es:[edi]
  00407420: 33 C0              xor         eax,eax
  00407422: 5F                 pop         edi
  00407423: A3 A4 0F 41 00     mov         dword ptr ds:[00410FA4h],eax
  00407428: A3 A8 0F 41 00     mov         dword ptr ds:[00410FA8h],eax
  0040742D: A3 B0 0F 41 00     mov         dword ptr ds:[00410FB0h],eax
  00407432: A3 B4 0F 41 00     mov         dword ptr ds:[00410FB4h],eax
  00407437: A3 B8 0F 41 00     mov         dword ptr ds:[00410FB8h],eax
  0040743C: C3                 ret
  0040743D: 90                 nop
  0040743E: 90                 nop
  0040743F: 90                 nop
  00407440: 6A FD              push        0FFFFFFFDh
  00407442: E8 F9 FC FF FF     call        00407140
  00407447: 83 C4 04           add         esp,4
  0040744A: C3                 ret
  0040744B: 90                 nop
  0040744C: 90                 nop
  0040744D: 90                 nop
  0040744E: 90                 nop
  0040744F: 90                 nop
  00407450: 83 EC 48           sub         esp,48h
  00407453: 53                 push        ebx
  00407454: 55                 push        ebp
  00407455: 56                 push        esi
  00407456: 57                 push        edi
  00407457: 68 80 04 00 00     push        480h
  0040745C: E8 FF CA FF FF     call        00403F60
  00407461: 8B F0              mov         esi,eax
  00407463: 33 FF              xor         edi,edi
  00407465: 83 C4 04           add         esp,4
  00407468: 3B F7              cmp         esi,edi
  0040746A: 75 0A              jne         00407476
  0040746C: 6A 1B              push        1Bh
  0040746E: E8 CD D7 FF FF     call        00404C40
  00407473: 83 C4 04           add         esp,4
  00407476: 8D 86 80 04 00 00  lea         eax,[esi+00000480h]
  0040747C: 89 35 60 11 41 00  mov         dword ptr ds:[00411160h],esi
  00407482: 3B F0              cmp         esi,eax
  00407484: C7 05 60 12 41 00  mov         dword ptr ds:[00411260h],20h
            20 00 00 00
  0040748E: B3 0A              mov         bl,0Ah
  00407490: 73 23              jae         004074B5
  00407492: C6 46 04 00        mov         byte ptr [esi+4],0
  00407496: C7 06 FF FF FF FF  mov         dword ptr [esi],0FFFFFFFFh
  0040749C: 88 5E 05           mov         byte ptr [esi+5],bl
  0040749F: 89 7E 08           mov         dword ptr [esi+8],edi
  004074A2: 8B 0D 60 11 41 00  mov         ecx,dword ptr ds:[00411160h]
  004074A8: 83 C6 24           add         esi,24h
  004074AB: 81 C1 80 04 00 00  add         ecx,480h
  004074B1: 3B F1              cmp         esi,ecx
  004074B3: 72 DD              jb          00407492
  004074B5: 8D 54 24 14        lea         edx,[esp+14h]
  004074B9: 52                 push        edx
  004074BA: FF 15 E0 33 41 00  call        dword ptr ds:[004133E0h]
  004074C0: 66 39 7C 24 46     cmp         word ptr [esp+46h],di
  004074C5: 0F 84 FD 00 00 00  je          004075C8
  004074CB: 8B 44 24 48        mov         eax,dword ptr [esp+48h]
  004074CF: 3B C7              cmp         eax,edi
  004074D1: 0F 84 F1 00 00 00  je          004075C8
  004074D7: 8B 08              mov         ecx,dword ptr [eax]
  004074D9: 8D 78 04           lea         edi,[eax+4]
  004074DC: 81 F9 00 08 00 00  cmp         ecx,800h
  004074E2: 89 4C 24 10        mov         dword ptr [esp+10h],ecx
  004074E6: 8D 2C 0F           lea         ebp,[edi+ecx]
  004074E9: 7C 08              jl          004074F3
  004074EB: C7 44 24 10 00 08  mov         dword ptr [esp+10h],800h
            00 00
  004074F3: 8B 44 24 10        mov         eax,dword ptr [esp+10h]
  004074F7: 8B 0D 60 12 41 00  mov         ecx,dword ptr ds:[00411260h]
  004074FD: 3B C8              cmp         ecx,eax
  004074FF: 7D 70              jge         00407571
  00407501: BE 64 11 41 00     mov         esi,411164h
  00407506: 68 80 04 00 00     push        480h
  0040750B: E8 50 CA FF FF     call        00403F60
  00407510: 33 C9              xor         ecx,ecx
  00407512: 83 C4 04           add         esp,4
  00407515: 3B C1              cmp         eax,ecx
  00407517: 74 4C              je          00407565
  00407519: 8B 15 60 12 41 00  mov         edx,dword ptr ds:[00411260h]
  0040751F: 89 06              mov         dword ptr [esi],eax
  00407521: 83 C2 20           add         edx,20h
  00407524: 89 15 60 12 41 00  mov         dword ptr ds:[00411260h],edx
  0040752A: 8D 90 80 04 00 00  lea         edx,[eax+00000480h]
  00407530: 3B C2              cmp         eax,edx
  00407532: 73 1F              jae         00407553
  00407534: C6 40 04 00        mov         byte ptr [eax+4],0
  00407538: C7 00 FF FF FF FF  mov         dword ptr [eax],0FFFFFFFFh
  0040753E: 88 58 05           mov         byte ptr [eax+5],bl
  00407541: 89 48 08           mov         dword ptr [eax+8],ecx
  00407544: 8B 16              mov         edx,dword ptr [esi]
  00407546: 83 C0 24           add         eax,24h
  00407549: 81 C2 80 04 00 00  add         edx,480h
  0040754F: 3B C2              cmp         eax,edx
  00407551: 72 E1              jb          00407534
  00407553: A1 60 12 41 00     mov         eax,dword ptr ds:[00411260h]
  00407558: 8B 54 24 10        mov         edx,dword ptr [esp+10h]
  0040755C: 83 C6 04           add         esi,4
  0040755F: 3B C2              cmp         eax,edx
  00407561: 7C A3              jl          00407506
  00407563: EB 0E              jmp         00407573
  00407565: 8B 15 60 12 41 00  mov         edx,dword ptr ds:[00411260h]
  0040756B: 89 54 24 10        mov         dword ptr [esp+10h],edx
  0040756F: EB 02              jmp         00407573
  00407571: 33 C9              xor         ecx,ecx
  00407573: 8B 44 24 10        mov         eax,dword ptr [esp+10h]
  00407577: 33 F6              xor         esi,esi
  00407579: 3B C1              cmp         eax,ecx
  0040757B: 7E 4B              jle         004075C8
  0040757D: 8B 4D 00           mov         ecx,dword ptr [ebp]
  00407580: 83 F9 FF           cmp         ecx,0FFFFFFFFh
  00407583: 74 36              je          004075BB
  00407585: 8A 07              mov         al,byte ptr [edi]
  00407587: A8 01              test        al,1
  00407589: 74 30              je          004075BB
  0040758B: A8 08              test        al,8
  0040758D: 75 0B              jne         0040759A
  0040758F: 51                 push        ecx
  00407590: FF 15 78 33 41 00  call        dword ptr ds:[00413378h]
  00407596: 85 C0              test        eax,eax
  00407598: 74 21              je          004075BB
  0040759A: 8B CE              mov         ecx,esi
  0040759C: 8B C6              mov         eax,esi
  0040759E: C1 F9 05           sar         ecx,5
  004075A1: 83 E0 1F           and         eax,1Fh
  004075A4: 8D 14 C0           lea         edx,[eax+eax*8]
  004075A7: 8B 04 8D 60 11 41  mov         eax,dword ptr [ecx*4+00411160h]
            00
  004075AE: 8B 4D 00           mov         ecx,dword ptr [ebp]
  004075B1: 8D 04 90           lea         eax,[eax+edx*4]
  004075B4: 89 08              mov         dword ptr [eax],ecx
  004075B6: 8A 17              mov         dl,byte ptr [edi]
  004075B8: 88 50 04           mov         byte ptr [eax+4],dl
  004075BB: 8B 44 24 10        mov         eax,dword ptr [esp+10h]
  004075BF: 46                 inc         esi
  004075C0: 47                 inc         edi
  004075C1: 83 C5 04           add         ebp,4
  004075C4: 3B F0              cmp         esi,eax
  004075C6: 7C B5              jl          0040757D
  004075C8: 8B 1D 7C 33 41 00  mov         ebx,dword ptr ds:[0041337Ch]
  004075CE: 33 ED              xor         ebp,ebp
  004075D0: 8B 0D 60 11 41 00  mov         ecx,dword ptr ds:[00411160h]
  004075D6: 8D 44 ED 00        lea         eax,[ebp+ebp*8]
  004075DA: 8D 34 81           lea         esi,[ecx+eax*4]
  004075DD: 8B 04 81           mov         eax,dword ptr [ecx+eax*4]
  004075E0: 83 F8 FF           cmp         eax,0FFFFFFFFh
  004075E3: 75 54              jne         00407639
  004075E5: 85 ED              test        ebp,ebp
  004075E7: C6 46 04 81        mov         byte ptr [esi+4],81h
  004075EB: 75 07              jne         004075F4
  004075ED: B8 F6 FF FF FF     mov         eax,0FFFFFFF6h
  004075F2: EB 0A              jmp         004075FE
  004075F4: 8B C5              mov         eax,ebp
  004075F6: 48                 dec         eax
  004075F7: F7 D8              neg         eax
  004075F9: 1B C0              sbb         eax,eax
  004075FB: 83 C0 F5           add         eax,0FFFFFFF5h
  004075FE: 50                 push        eax
  004075FF: FF D3              call        ebx
  00407601: 8B F8              mov         edi,eax
  00407603: 83 FF FF           cmp         edi,0FFFFFFFFh
  00407606: 74 2A              je          00407632
  00407608: 57                 push        edi
  00407609: FF 15 78 33 41 00  call        dword ptr ds:[00413378h]
  0040760F: 85 C0              test        eax,eax
  00407611: 74 1F              je          00407632
  00407613: 25 FF 00 00 00     and         eax,0FFh
  00407618: 89 3E              mov         dword ptr [esi],edi
  0040761A: 83 F8 02           cmp         eax,2
  0040761D: 75 07              jne         00407626
  0040761F: 8A 46 04           mov         al,byte ptr [esi+4]
  00407622: 0C 40              or          al,40h
  00407624: EB 18              jmp         0040763E
  00407626: 83 F8 03           cmp         eax,3
  00407629: 75 16              jne         00407641
  0040762B: 8A 46 04           mov         al,byte ptr [esi+4]
  0040762E: 0C 08              or          al,8
  00407630: EB 0C              jmp         0040763E
  00407632: 8A 46 04           mov         al,byte ptr [esi+4]
  00407635: 0C 40              or          al,40h
  00407637: EB 05              jmp         0040763E
  00407639: 8A 46 04           mov         al,byte ptr [esi+4]
  0040763C: 0C 80              or          al,80h
  0040763E: 88 46 04           mov         byte ptr [esi+4],al
  00407641: 45                 inc         ebp
  00407642: 83 FD 03           cmp         ebp,3
  00407645: 7C 89              jl          004075D0
  00407647: 8B 15 60 12 41 00  mov         edx,dword ptr ds:[00411260h]
  0040764D: 52                 push        edx
  0040764E: FF 15 80 33 41 00  call        dword ptr ds:[00413380h]
  00407654: 5F                 pop         edi
  00407655: 5E                 pop         esi
  00407656: 5D                 pop         ebp
  00407657: 5B                 pop         ebx
  00407658: 83 C4 48           add         esp,48h
  0040765B: C3                 ret
  0040765C: 90                 nop
  0040765D: 90                 nop
  0040765E: 90                 nop
  0040765F: 90                 nop
  00407660: A1 C8 0C 41 00     mov         eax,dword ptr ds:[00410CC8h]
  00407665: 83 F8 01           cmp         eax,1
  00407668: 74 0D              je          00407677
  0040766A: 85 C0              test        eax,eax
  0040766C: 75 2E              jne         0040769C
  0040766E: 83 3D 44 D5 40 00  cmp         dword ptr ds:[0040D544h],1
            01
  00407675: 75 25              jne         0040769C
  00407677: 68 FC 00 00 00     push        0FCh
  0040767C: E8 1F 00 00 00     call        004076A0
  00407681: A1 C0 0F 41 00     mov         eax,dword ptr ds:[00410FC0h]
  00407686: 83 C4 04           add         esp,4
  00407689: 85 C0              test        eax,eax
  0040768B: 74 02              je          0040768F
  0040768D: FF D0              call        eax
  0040768F: 68 FF 00 00 00     push        0FFh
  00407694: E8 07 00 00 00     call        004076A0
  00407699: 83 C4 04           add         esp,4
  0040769C: C3                 ret
  0040769D: 90                 nop
  0040769E: 90                 nop
  0040769F: 90                 nop
  004076A0: 8B 4C 24 04        mov         ecx,dword ptr [esp+4]
  004076A4: 81 EC A8 01 00 00  sub         esp,1A8h
  004076AA: B8 00 FE 40 00     mov         eax,40FE00h
  004076AF: 53                 push        ebx
  004076B0: 55                 push        ebp
  004076B1: 56                 push        esi
  004076B2: 57                 push        edi
  004076B3: 33 ED              xor         ebp,ebp
  004076B5: 3B 08              cmp         ecx,dword ptr [eax]
  004076B7: 74 0B              je          004076C4
  004076B9: 83 C0 08           add         eax,8
  004076BC: 45                 inc         ebp
  004076BD: 3D 90 FE 40 00     cmp         eax,40FE90h
  004076C2: 72 F1              jb          004076B5
  004076C4: 3B 0C ED 00 FE 40  cmp         ecx,dword ptr [ebp*8+0040FE00h]
            00
  004076CB: 0F 85 9A 01 00 00  jne         0040786B
  004076D1: A1 C8 0C 41 00     mov         eax,dword ptr ds:[00410CC8h]
  004076D6: 83 F8 01           cmp         eax,1
  004076D9: 0F 84 4E 01 00 00  je          0040782D
  004076DF: 85 C0              test        eax,eax
  004076E1: 75 0D              jne         004076F0
  004076E3: 83 3D 44 D5 40 00  cmp         dword ptr ds:[0040D544h],1
            01
  004076EA: 0F 84 3D 01 00 00  je          0040782D
  004076F0: 81 F9 FC 00 00 00  cmp         ecx,0FCh
  004076F6: 0F 84 6F 01 00 00  je          0040786B
  004076FC: 8D 84 24 B4 00 00  lea         eax,[esp+000000B4h]
            00
  00407703: 68 04 01 00 00     push        104h
  00407708: 50                 push        eax
  00407709: 6A 00              push        0
  0040770B: FF 15 A8 33 41 00  call        dword ptr ds:[004133A8h]
  00407711: 85 C0              test        eax,eax
  00407713: 75 16              jne         0040772B
  00407715: B9 05 00 00 00     mov         ecx,5
  0040771A: BE 88 C3 40 00     mov         esi,40C388h
  0040771F: 8D BC 24 B4 00 00  lea         edi,[esp+000000B4h]
            00
  00407726: F3 A5              rep movs    dword ptr es:[edi],dword ptr [esi]
  00407728: 66 A5              movs        word ptr es:[edi],word ptr [esi]
  0040772A: A4                 movs        byte ptr es:[edi],byte ptr [esi]
  0040772B: 8D BC 24 B4 00 00  lea         edi,[esp+000000B4h]
            00
  00407732: 83 C9 FF           or          ecx,0FFFFFFFFh
  00407735: 33 C0              xor         eax,eax
  00407737: 8D 9C 24 B4 00 00  lea         ebx,[esp+000000B4h]
            00
  0040773E: F2 AE              repne scas  byte ptr es:[edi]
  00407740: F7 D1              not         ecx
  00407742: 83 F9 3C           cmp         ecx,3Ch
  00407745: 76 2D              jbe         00407774
  00407747: 8D BC 24 B4 00 00  lea         edi,[esp+000000B4h]
            00
  0040774E: 83 C9 FF           or          ecx,0FFFFFFFFh
  00407751: F2 AE              repne scas  byte ptr es:[edi]
  00407753: F7 D1              not         ecx
  00407755: 49                 dec         ecx
  00407756: 6A 03              push        3
  00407758: 8B D9              mov         ebx,ecx
  0040775A: 8D 8C 24 B8 00 00  lea         ecx,[esp+000000B8h]
            00
  00407761: 83 E9 3B           sub         ecx,3Bh
  00407764: 68 84 C3 40 00     push        40C384h
  00407769: 03 D9              add         ebx,ecx
  0040776B: 53                 push        ebx
  0040776C: E8 BF CF FF FF     call        00404730
  00407771: 83 C4 0C           add         esp,0Ch
  00407774: B9 06 00 00 00     mov         ecx,6
  00407779: BE 68 C3 40 00     mov         esi,40C368h
  0040777E: 8D 7C 24 14        lea         edi,[esp+14h]
  00407782: 33 C0              xor         eax,eax
  00407784: F3 A5              rep movs    dword ptr es:[edi],dword ptr [esi]
  00407786: 66 A5              movs        word ptr es:[edi],word ptr [esi]
  00407788: 83 C9 FF           or          ecx,0FFFFFFFFh
  0040778B: 8B FB              mov         edi,ebx
  0040778D: F2 AE              repne scas  byte ptr es:[edi]
  0040778F: F7 D1              not         ecx
  00407791: 2B F9              sub         edi,ecx
  00407793: 8D 54 24 14        lea         edx,[esp+14h]
  00407797: 8B D9              mov         ebx,ecx
  00407799: 8B F7              mov         esi,edi
  0040779B: 83 C9 FF           or          ecx,0FFFFFFFFh
  0040779E: 8B FA              mov         edi,edx
  004077A0: F2 AE              repne scas  byte ptr es:[edi]
  004077A2: 8B CB              mov         ecx,ebx
  004077A4: 4F                 dec         edi
  004077A5: C1 E9 02           shr         ecx,2
  004077A8: F3 A5              rep movs    dword ptr es:[edi],dword ptr [esi]
  004077AA: 8B CB              mov         ecx,ebx
  004077AC: 8D 54 24 14        lea         edx,[esp+14h]
  004077B0: 83 E1 03           and         ecx,3
  004077B3: 68 10 20 01 00     push        12010h
  004077B8: F3 A4              rep movs    byte ptr es:[edi],byte ptr [esi]
  004077BA: BF 64 C3 40 00     mov         edi,40C364h
  004077BF: 83 C9 FF           or          ecx,0FFFFFFFFh
  004077C2: F2 AE              repne scas  byte ptr es:[edi]
  004077C4: F7 D1              not         ecx
  004077C6: 2B F9              sub         edi,ecx
  004077C8: 68 3C C3 40 00     push        40C33Ch
  004077CD: 8B F7              mov         esi,edi
  004077CF: 8B D9              mov         ebx,ecx
  004077D1: 8B FA              mov         edi,edx
  004077D3: 83 C9 FF           or          ecx,0FFFFFFFFh
  004077D6: F2 AE              repne scas  byte ptr es:[edi]
  004077D8: 8B CB              mov         ecx,ebx
  004077DA: 4F                 dec         edi
  004077DB: C1 E9 02           shr         ecx,2
  004077DE: F3 A5              rep movs    dword ptr es:[edi],dword ptr [esi]
  004077E0: 8B CB              mov         ecx,ebx
  004077E2: 8D 54 24 1C        lea         edx,[esp+1Ch]
  004077E6: 83 E1 03           and         ecx,3
  004077E9: F3 A4              rep movs    byte ptr es:[edi],byte ptr [esi]
  004077EB: 8B 3C ED 04 FE 40  mov         edi,dword ptr [ebp*8+0040FE04h]
            00
  004077F2: 83 C9 FF           or          ecx,0FFFFFFFFh
  004077F5: F2 AE              repne scas  byte ptr es:[edi]
  004077F7: F7 D1              not         ecx
  004077F9: 2B F9              sub         edi,ecx
  004077FB: 8B F7              mov         esi,edi
  004077FD: 8B D9              mov         ebx,ecx
  004077FF: 8B FA              mov         edi,edx
  00407801: 83 C9 FF           or          ecx,0FFFFFFFFh
  00407804: F2 AE              repne scas  byte ptr es:[edi]
  00407806: 8B CB              mov         ecx,ebx
  00407808: 4F                 dec         edi
  00407809: C1 E9 02           shr         ecx,2
  0040780C: F3 A5              rep movs    dword ptr es:[edi],dword ptr [esi]
  0040780E: 8B CB              mov         ecx,ebx
  00407810: 8D 44 24 1C        lea         eax,[esp+1Ch]
  00407814: 83 E1 03           and         ecx,3
  00407817: 50                 push        eax
  00407818: F3 A4              rep movs    byte ptr es:[edi],byte ptr [esi]
  0040781A: E8 C1 12 00 00     call        00408AE0
  0040781F: 83 C4 0C           add         esp,0Ch
  00407822: 5F                 pop         edi
  00407823: 5E                 pop         esi
  00407824: 5D                 pop         ebp
  00407825: 5B                 pop         ebx
  00407826: 81 C4 A8 01 00 00  add         esp,1A8h
  0040782C: C3                 ret
  0040782D: A1 60 11 41 00     mov         eax,dword ptr ds:[00411160h]
  00407832: 85 C0              test        eax,eax
  00407834: 74 08              je          0040783E
  00407836: 8B 70 48           mov         esi,dword ptr [eax+48h]
  00407839: 83 FE FF           cmp         esi,0FFFFFFFFh
  0040783C: 75 0A              jne         00407848
  0040783E: 6A F4              push        0FFFFFFF4h
  00407840: FF 15 7C 33 41 00  call        dword ptr ds:[0041337Ch]
  00407846: 8B F0              mov         esi,eax
  00407848: 8B 14 ED 04 FE 40  mov         edx,dword ptr [ebp*8+0040FE04h]
            00
  0040784F: 8D 4C 24 10        lea         ecx,[esp+10h]
  00407853: 6A 00              push        0
  00407855: 51                 push        ecx
  00407856: 8B FA              mov         edi,edx
  00407858: 83 C9 FF           or          ecx,0FFFFFFFFh
  0040785B: 33 C0              xor         eax,eax
  0040785D: F2 AE              repne scas  byte ptr es:[edi]
  0040785F: F7 D1              not         ecx
  00407861: 49                 dec         ecx
  00407862: 51                 push        ecx
  00407863: 52                 push        edx
  00407864: 56                 push        esi
  00407865: FF 15 24 34 41 00  call        dword ptr ds:[00413424h]
  0040786B: 5F                 pop         edi
  0040786C: 5E                 pop         esi
  0040786D: 5D                 pop         ebp
  0040786E: 5B                 pop         ebx
  0040786F: 81 C4 A8 01 00 00  add         esp,1A8h
  00407875: C3                 ret
  00407876: 90                 nop
  00407877: 90                 nop
  00407878: 90                 nop
  00407879: 90                 nop
  0040787A: 90                 nop
  0040787B: 90                 nop
  0040787C: 90                 nop
  0040787D: 90                 nop
  0040787E: 90                 nop
  0040787F: 90                 nop
  00407880: A1 60 12 41 00     mov         eax,dword ptr ds:[00411260h]
  00407885: 56                 push        esi
  00407886: 8B 74 24 08        mov         esi,dword ptr [esp+8]
  0040788A: 57                 push        edi
  0040788B: 3B F0              cmp         esi,eax
  0040788D: 73 47              jae         004078D6
  0040788F: 8B C6              mov         eax,esi
  00407891: 8B CE              mov         ecx,esi
  00407893: 83 E0 1F           and         eax,1Fh
  00407896: C1 F9 05           sar         ecx,5
  00407899: 8D 14 C0           lea         edx,[eax+eax*8]
  0040789C: 8B 04 8D 60 11 41  mov         eax,dword ptr [ecx*4+00411160h]
            00
  004078A3: F6 44 90 04 01     test        byte ptr [eax+edx*4+4],1
  004078A8: 74 2C              je          004078D6
  004078AA: 56                 push        esi
  004078AB: E8 B0 13 00 00     call        00408C60
  004078B0: 8B 4C 24 18        mov         ecx,dword ptr [esp+18h]
  004078B4: 8B 54 24 14        mov         edx,dword ptr [esp+14h]
  004078B8: 83 C4 04           add         esp,4
  004078BB: 51                 push        ecx
  004078BC: 52                 push        edx
  004078BD: 56                 push        esi
  004078BE: E8 3D 00 00 00     call        00407900
  004078C3: 83 C4 0C           add         esp,0Ch
  004078C6: 8B F8              mov         edi,eax
  004078C8: 56                 push        esi
  004078C9: E8 02 14 00 00     call        00408CD0
  004078CE: 83 C4 04           add         esp,4
  004078D1: 8B C7              mov         eax,edi
  004078D3: 5F                 pop         edi
  004078D4: 5E                 pop         esi
  004078D5: C3                 ret
  004078D6: E8 E5 EA FF FF     call        004063C0
  004078DB: C7 00 09 00 00 00  mov         dword ptr [eax],9
  004078E1: E8 EA EA FF FF     call        004063D0
  004078E6: C7 00 00 00 00 00  mov         dword ptr [eax],0
  004078EC: 5F                 pop         edi
  004078ED: 83 C8 FF           or          eax,0FFFFFFFFh
  004078F0: 5E                 pop         esi
  004078F1: C3                 ret
  004078F2: 90                 nop
  004078F3: 90                 nop
  004078F4: 90                 nop
  004078F5: 90                 nop
  004078F6: 90                 nop
  004078F7: 90                 nop
  004078F8: 90                 nop
  004078F9: 90                 nop
  004078FA: 90                 nop
  004078FB: 90                 nop
  004078FC: 90                 nop
  004078FD: 90                 nop
  004078FE: 90                 nop
  004078FF: 90                 nop
  00407900: 56                 push        esi
  00407901: 8B 74 24 08        mov         esi,dword ptr [esp+8]
  00407905: 57                 push        edi
  00407906: 56                 push        esi
  00407907: E8 04 13 00 00     call        00408C10
  0040790C: 83 C4 04           add         esp,4
  0040790F: 83 F8 FF           cmp         eax,0FFFFFFFFh
  00407912: 75 11              jne         00407925
  00407914: E8 A7 EA FF FF     call        004063C0
  00407919: C7 00 09 00 00 00  mov         dword ptr [eax],9
  0040791F: 83 C8 FF           or          eax,0FFFFFFFFh
  00407922: 5F                 pop         edi
  00407923: 5E                 pop         esi
  00407924: C3                 ret
  00407925: 8B 4C 24 14        mov         ecx,dword ptr [esp+14h]
  00407929: 8B 54 24 10        mov         edx,dword ptr [esp+10h]
  0040792D: 51                 push        ecx
  0040792E: 6A 00              push        0
  00407930: 52                 push        edx
  00407931: 50                 push        eax
  00407932: FF 15 74 33 41 00  call        dword ptr ds:[00413374h]
  00407938: 8B F8              mov         edi,eax
  0040793A: 83 FF FF           cmp         edi,0FFFFFFFFh
  0040793D: 75 08              jne         00407947
  0040793F: FF 15 3C 34 41 00  call        dword ptr ds:[0041343Ch]
  00407945: EB 02              jmp         00407949
  00407947: 33 C0              xor         eax,eax
  00407949: 85 C0              test        eax,eax
  0040794B: 74 0F              je          0040795C
  0040794D: 50                 push        eax
  0040794E: E8 ED E9 FF FF     call        00406340
  00407953: 83 C4 04           add         esp,4
  00407956: 83 C8 FF           or          eax,0FFFFFFFFh
  00407959: 5F                 pop         edi
  0040795A: 5E                 pop         esi
  0040795B: C3                 ret
  0040795C: 8B C6              mov         eax,esi
  0040795E: 83 E6 1F           and         esi,1Fh
  00407961: C1 F8 05           sar         eax,5
  00407964: 8D 0C F6           lea         ecx,[esi+esi*8]
  00407967: 8B 14 85 60 11 41  mov         edx,dword ptr [eax*4+00411160h]
            00
  0040796E: 8D 44 8A 04        lea         eax,[edx+ecx*4+4]
  00407972: 8A 4C 8A 04        mov         cl,byte ptr [edx+ecx*4+4]
  00407976: 80 E1 FD           and         cl,0FDh
  00407979: 88 08              mov         byte ptr [eax],cl
  0040797B: 8B C7              mov         eax,edi
  0040797D: 5F                 pop         edi
  0040797E: 5E                 pop         esi
  0040797F: C3                 ret
  00407980: A1 60 12 41 00     mov         eax,dword ptr ds:[00411260h]
  00407985: 56                 push        esi
  00407986: 8B 74 24 08        mov         esi,dword ptr [esp+8]
  0040798A: 57                 push        edi
  0040798B: 3B F0              cmp         esi,eax
  0040798D: 73 47              jae         004079D6
  0040798F: 8B C6              mov         eax,esi
  00407991: 8B CE              mov         ecx,esi
  00407993: 83 E0 1F           and         eax,1Fh
  00407996: C1 F9 05           sar         ecx,5
  00407999: 8D 14 C0           lea         edx,[eax+eax*8]
  0040799C: 8B 04 8D 60 11 41  mov         eax,dword ptr [ecx*4+00411160h]
            00
  004079A3: F6 44 90 04 01     test        byte ptr [eax+edx*4+4],1
  004079A8: 74 2C              je          004079D6
  004079AA: 56                 push        esi
  004079AB: E8 B0 12 00 00     call        00408C60
  004079B0: 8B 4C 24 18        mov         ecx,dword ptr [esp+18h]
  004079B4: 8B 54 24 14        mov         edx,dword ptr [esp+14h]
  004079B8: 83 C4 04           add         esp,4
  004079BB: 51                 push        ecx
  004079BC: 52                 push        edx
  004079BD: 56                 push        esi
  004079BE: E8 3D 00 00 00     call        00407A00
  004079C3: 83 C4 0C           add         esp,0Ch
  004079C6: 8B F8              mov         edi,eax
  004079C8: 56                 push        esi
  004079C9: E8 02 13 00 00     call        00408CD0
  004079CE: 83 C4 04           add         esp,4
  004079D1: 8B C7              mov         eax,edi
  004079D3: 5F                 pop         edi
  004079D4: 5E                 pop         esi
  004079D5: C3                 ret
  004079D6: E8 E5 E9 FF FF     call        004063C0
  004079DB: C7 00 09 00 00 00  mov         dword ptr [eax],9
  004079E1: E8 EA E9 FF FF     call        004063D0
  004079E6: C7 00 00 00 00 00  mov         dword ptr [eax],0
  004079EC: 5F                 pop         edi
  004079ED: 83 C8 FF           or          eax,0FFFFFFFFh
  004079F0: 5E                 pop         esi
  004079F1: C3                 ret
  004079F2: 90                 nop
  004079F3: 90                 nop
  004079F4: 90                 nop
  004079F5: 90                 nop
  004079F6: 90                 nop
  004079F7: 90                 nop
  004079F8: 90                 nop
  004079F9: 90                 nop
  004079FA: 90                 nop
  004079FB: 90                 nop
  004079FC: 90                 nop
  004079FD: 90                 nop
  004079FE: 90                 nop
  004079FF: 90                 nop
  00407A00: 81 EC 1C 04 00 00  sub         esp,41Ch
  00407A06: 53                 push        ebx
  00407A07: 8B 9C 24 2C 04 00  mov         ebx,dword ptr [esp+0000042Ch]
            00
  00407A0E: 55                 push        ebp
  00407A0F: 33 ED              xor         ebp,ebp
  00407A11: 56                 push        esi
  00407A12: 3B DD              cmp         ebx,ebp
  00407A14: 57                 push        edi
  00407A15: 89 6C 24 10        mov         dword ptr [esp+10h],ebp
  00407A19: 89 6C 24 20        mov         dword ptr [esp+20h],ebp
  00407A1D: 75 0D              jne         00407A2C
  00407A1F: 33 C0              xor         eax,eax
  00407A21: 5F                 pop         edi
  00407A22: 5E                 pop         esi
  00407A23: 5D                 pop         ebp
  00407A24: 5B                 pop         ebx
  00407A25: 81 C4 1C 04 00 00  add         esp,41Ch
  00407A2B: C3                 ret
  00407A2C: 8B 8C 24 30 04 00  mov         ecx,dword ptr [esp+00000430h]
            00
  00407A33: 8B C1              mov         eax,ecx
  00407A35: C1 F8 05           sar         eax,5
  00407A38: 8D 3C 85 60 11 41  lea         edi,[eax*4+00411160h]
            00
  00407A3F: 8B C1              mov         eax,ecx
  00407A41: 83 E0 1F           and         eax,1Fh
  00407A44: 89 7C 24 24        mov         dword ptr [esp+24h],edi
  00407A48: 8B 17              mov         edx,dword ptr [edi]
  00407A4A: 8D 34 C0           lea         esi,[eax+eax*8]
  00407A4D: C1 E6 02           shl         esi,2
  00407A50: 89 74 24 14        mov         dword ptr [esp+14h],esi
  00407A54: F6 44 16 04 20     test        byte ptr [esi+edx+4],20h
  00407A59: 74 0C              je          00407A67
  00407A5B: 6A 02              push        2
  00407A5D: 55                 push        ebp
  00407A5E: 51                 push        ecx
  00407A5F: E8 9C FE FF FF     call        00407900
  00407A64: 83 C4 0C           add         esp,0Ch
  00407A67: 8B 07              mov         eax,dword ptr [edi]
  00407A69: 03 C6              add         eax,esi
  00407A6B: F6 40 04 80        test        byte ptr [eax+4],80h
  00407A6F: 0F 84 54 01 00 00  je          00407BC9
  00407A75: 8B AC 24 34 04 00  mov         ebp,dword ptr [esp+00000434h]
            00
  00407A7C: C7 44 24 18 00 00  mov         dword ptr [esp+18h],0
            00 00
  00407A84: 85 DB              test        ebx,ebx
  00407A86: 8B FD              mov         edi,ebp
  00407A88: 0F 86 83 00 00 00  jbe         00407B11
  00407A8E: 8D 44 24 28        lea         eax,[esp+28h]
  00407A92: 8B CF              mov         ecx,edi
  00407A94: 2B CD              sub         ecx,ebp
  00407A96: 3B CB              cmp         ecx,ebx
  00407A98: 73 28              jae         00407AC2
  00407A9A: 8A 0F              mov         cl,byte ptr [edi]
  00407A9C: 47                 inc         edi
  00407A9D: 80 F9 0A           cmp         cl,0Ah
  00407AA0: 75 0D              jne         00407AAF
  00407AA2: 8B 74 24 20        mov         esi,dword ptr [esp+20h]
  00407AA6: C6 00 0D           mov         byte ptr [eax],0Dh
  00407AA9: 46                 inc         esi
  00407AAA: 40                 inc         eax
  00407AAB: 89 74 24 20        mov         dword ptr [esp+20h],esi
  00407AAF: 88 08              mov         byte ptr [eax],cl
  00407AB1: 40                 inc         eax
  00407AB2: 8B D0              mov         edx,eax
  00407AB4: 8D 4C 24 28        lea         ecx,[esp+28h]
  00407AB8: 2B D1              sub         edx,ecx
  00407ABA: 81 FA 00 04 00 00  cmp         edx,400h
  00407AC0: 7C D0              jl          00407A92
  00407AC2: 8B F0              mov         esi,eax
  00407AC4: 8D 54 24 28        lea         edx,[esp+28h]
  00407AC8: 8D 44 24 1C        lea         eax,[esp+1Ch]
  00407ACC: 2B F2              sub         esi,edx
  00407ACE: 8B 54 24 24        mov         edx,dword ptr [esp+24h]
  00407AD2: 6A 00              push        0
  00407AD4: 50                 push        eax
  00407AD5: 8D 4C 24 30        lea         ecx,[esp+30h]
  00407AD9: 8B 02              mov         eax,dword ptr [edx]
  00407ADB: 56                 push        esi
  00407ADC: 51                 push        ecx
  00407ADD: 8B 4C 24 24        mov         ecx,dword ptr [esp+24h]
  00407AE1: 8B 14 01           mov         edx,dword ptr [ecx+eax]
  00407AE4: 52                 push        edx
  00407AE5: FF 15 24 34 41 00  call        dword ptr ds:[00413424h]
  00407AEB: 85 C0              test        eax,eax
  00407AED: 0F 84 C7 00 00 00  je          00407BBA
  00407AF3: 8B 44 24 1C        mov         eax,dword ptr [esp+1Ch]
  00407AF7: 8B 54 24 10        mov         edx,dword ptr [esp+10h]
  00407AFB: 03 D0              add         edx,eax
  00407AFD: 3B C6              cmp         eax,esi
  00407AFF: 89 54 24 10        mov         dword ptr [esp+10h],edx
  00407B03: 7C 08              jl          00407B0D
  00407B05: 8B C7              mov         eax,edi
  00407B07: 2B C5              sub         eax,ebp
  00407B09: 3B C3              cmp         eax,ebx
  00407B0B: 72 81              jb          00407A8E
  00407B0D: 8B 74 24 14        mov         esi,dword ptr [esp+14h]
  00407B11: 8B 44 24 10        mov         eax,dword ptr [esp+10h]
  00407B15: 85 C0              test        eax,eax
  00407B17: 0F 85 8C 00 00 00  jne         00407BA9
  00407B1D: 8B 44 24 18        mov         eax,dword ptr [esp+18h]
  00407B21: 85 C0              test        eax,eax
  00407B23: 74 40              je          00407B65
  00407B25: 83 F8 05           cmp         eax,5
  00407B28: 75 24              jne         00407B4E
  00407B2A: E8 91 E8 FF FF     call        004063C0
  00407B2F: C7 00 09 00 00 00  mov         dword ptr [eax],9
  00407B35: E8 96 E8 FF FF     call        004063D0
  00407B3A: C7 00 05 00 00 00  mov         dword ptr [eax],5
  00407B40: 83 C8 FF           or          eax,0FFFFFFFFh
  00407B43: 5F                 pop         edi
  00407B44: 5E                 pop         esi
  00407B45: 5D                 pop         ebp
  00407B46: 5B                 pop         ebx
  00407B47: 81 C4 1C 04 00 00  add         esp,41Ch
  00407B4D: C3                 ret
  00407B4E: 50                 push        eax
  00407B4F: E8 EC E7 FF FF     call        00406340
  00407B54: 83 C4 04           add         esp,4
  00407B57: 83 C8 FF           or          eax,0FFFFFFFFh
  00407B5A: 5F                 pop         edi
  00407B5B: 5E                 pop         esi
  00407B5C: 5D                 pop         ebp
  00407B5D: 5B                 pop         ebx
  00407B5E: 81 C4 1C 04 00 00  add         esp,41Ch
  00407B64: C3                 ret
  00407B65: 8B 4C 24 24        mov         ecx,dword ptr [esp+24h]
  00407B69: 8B 11              mov         edx,dword ptr [ecx]
  00407B6B: F6 44 16 04 40     test        byte ptr [esi+edx+4],40h
  00407B70: 74 13              je          00407B85
  00407B72: 80 7D 00 1A        cmp         byte ptr [ebp],1Ah
  00407B76: 75 0D              jne         00407B85
  00407B78: 33 C0              xor         eax,eax
  00407B7A: 5F                 pop         edi
  00407B7B: 5E                 pop         esi
  00407B7C: 5D                 pop         ebp
  00407B7D: 5B                 pop         ebx
  00407B7E: 81 C4 1C 04 00 00  add         esp,41Ch
  00407B84: C3                 ret
  00407B85: E8 36 E8 FF FF     call        004063C0
  00407B8A: C7 00 1C 00 00 00  mov         dword ptr [eax],1Ch
  00407B90: E8 3B E8 FF FF     call        004063D0
  00407B95: C7 00 00 00 00 00  mov         dword ptr [eax],0
  00407B9B: 83 C8 FF           or          eax,0FFFFFFFFh
  00407B9E: 5F                 pop         edi
  00407B9F: 5E                 pop         esi
  00407BA0: 5D                 pop         ebp
  00407BA1: 5B                 pop         ebx
  00407BA2: 81 C4 1C 04 00 00  add         esp,41Ch
  00407BA8: C3                 ret
  00407BA9: 8B 4C 24 20        mov         ecx,dword ptr [esp+20h]
  00407BAD: 5F                 pop         edi
  00407BAE: 5E                 pop         esi
  00407BAF: 5D                 pop         ebp
  00407BB0: 2B C1              sub         eax,ecx
  00407BB2: 5B                 pop         ebx
  00407BB3: 81 C4 1C 04 00 00  add         esp,41Ch
  00407BB9: C3                 ret
  00407BBA: FF 15 3C 34 41 00  call        dword ptr ds:[0041343Ch]
  00407BC0: 89 44 24 18        mov         dword ptr [esp+18h],eax
  00407BC4: E9 44 FF FF FF     jmp         00407B0D
  00407BC9: 8B 10              mov         edx,dword ptr [eax]
  00407BCB: 8D 4C 24 1C        lea         ecx,[esp+1Ch]
  00407BCF: 55                 push        ebp
  00407BD0: 8B AC 24 38 04 00  mov         ebp,dword ptr [esp+00000438h]
            00
  00407BD7: 51                 push        ecx
  00407BD8: 53                 push        ebx
  00407BD9: 55                 push        ebp
  00407BDA: 52                 push        edx
  00407BDB: FF 15 24 34 41 00  call        dword ptr ds:[00413424h]
  00407BE1: 85 C0              test        eax,eax
  00407BE3: 74 15              je          00407BFA
  00407BE5: 8B 44 24 1C        mov         eax,dword ptr [esp+1Ch]
  00407BE9: C7 44 24 18 00 00  mov         dword ptr [esp+18h],0
            00 00
  00407BF1: 89 44 24 10        mov         dword ptr [esp+10h],eax
  00407BF5: E9 17 FF FF FF     jmp         00407B11
  00407BFA: FF 15 3C 34 41 00  call        dword ptr ds:[0041343Ch]
  00407C00: 89 44 24 18        mov         dword ptr [esp+18h],eax
  00407C04: E9 08 FF FF FF     jmp         00407B11
  00407C09: 90                 nop
  00407C0A: 90                 nop
  00407C0B: 90                 nop
  00407C0C: 90                 nop
  00407C0D: 90                 nop
  00407C0E: 90                 nop
  00407C0F: 90                 nop
  00407C10: A1 48 0D 41 00     mov         eax,dword ptr ds:[00410D48h]
  00407C15: 68 00 10 00 00     push        1000h
  00407C1A: 40                 inc         eax
  00407C1B: A3 48 0D 41 00     mov         dword ptr ds:[00410D48h],eax
  00407C20: E8 3B C3 FF FF     call        00403F60
  00407C25: 8B 4C 24 08        mov         ecx,dword ptr [esp+8]
  00407C29: 83 C4 04           add         esp,4
  00407C2C: 85 C0              test        eax,eax
  00407C2E: 89 41 08           mov         dword ptr [ecx+8],eax
  00407C31: 8B 41 0C           mov         eax,dword ptr [ecx+0Ch]
  00407C34: 74 19              je          00407C4F
  00407C36: 8B 51 08           mov         edx,dword ptr [ecx+8]
  00407C39: 0C 08              or          al,8
  00407C3B: 89 41 0C           mov         dword ptr [ecx+0Ch],eax
  00407C3E: C7 41 18 00 10 00  mov         dword ptr [ecx+18h],1000h
            00
  00407C45: 89 11              mov         dword ptr [ecx],edx
  00407C47: C7 41 04 00 00 00  mov         dword ptr [ecx+4],0
            00
  00407C4E: C3                 ret
  00407C4F: 0C 04              or          al,4
  00407C51: C7 41 18 02 00 00  mov         dword ptr [ecx+18h],2
            00
  00407C58: 89 41 0C           mov         dword ptr [ecx+0Ch],eax
  00407C5B: 8D 41 14           lea         eax,[ecx+14h]
  00407C5E: 8B D0              mov         edx,eax
  00407C60: 89 41 08           mov         dword ptr [ecx+8],eax
  00407C63: 89 11              mov         dword ptr [ecx],edx
  00407C65: C7 41 04 00 00 00  mov         dword ptr [ecx+4],0
            00
  00407C6C: C3                 ret
  00407C6D: 90                 nop
  00407C6E: 90                 nop
  00407C6F: 90                 nop
  00407C70: 8B 44 24 04        mov         eax,dword ptr [esp+4]
  00407C74: 8B 0D 60 12 41 00  mov         ecx,dword ptr ds:[00411260h]
  00407C7A: 3B C1              cmp         eax,ecx
  00407C7C: 72 03              jb          00407C81
  00407C7E: 33 C0              xor         eax,eax
  00407C80: C3                 ret
  00407C81: 8B C8              mov         ecx,eax
  00407C83: 83 E0 1F           and         eax,1Fh
  00407C86: C1 F9 05           sar         ecx,5
  00407C89: 8D 14 C0           lea         edx,[eax+eax*8]
  00407C8C: 8B 04 8D 60 11 41  mov         eax,dword ptr [ecx*4+00411160h]
            00
  00407C93: 8A 44 90 04        mov         al,byte ptr [eax+edx*4+4]
  00407C97: 83 E0 40           and         eax,40h
  00407C9A: C3                 ret
  00407C9B: 90                 nop
  00407C9C: 90                 nop
  00407C9D: 90                 nop
  00407C9E: 90                 nop
  00407C9F: 90                 nop
  00407CA0: 53                 push        ebx
  00407CA1: 56                 push        esi
  00407CA2: 57                 push        edi
  00407CA3: 68 48 11 41 00     push        411148h
  00407CA8: FF 15 6C 33 41 00  call        dword ptr ds:[0041336Ch]
  00407CAE: A1 44 11 41 00     mov         eax,dword ptr ds:[00411144h]
  00407CB3: 8B 3D 70 33 41 00  mov         edi,dword ptr ds:[00413370h]
  00407CB9: 85 C0              test        eax,eax
  00407CBB: 74 18              je          00407CD5
  00407CBD: 68 48 11 41 00     push        411148h
  00407CC2: FF D7              call        edi
  00407CC4: 6A 13              push        13h
  00407CC6: E8 25 DC FF FF     call        004058F0
  00407CCB: 83 C4 04           add         esp,4
  00407CCE: BE 01 00 00 00     mov         esi,1
  00407CD3: EB 02              jmp         00407CD7
  00407CD5: 33 F6              xor         esi,esi
  00407CD7: 8B 44 24 14        mov         eax,dword ptr [esp+14h]
  00407CDB: 8B 4C 24 10        mov         ecx,dword ptr [esp+10h]
  00407CDF: 50                 push        eax
  00407CE0: 51                 push        ecx
  00407CE1: E8 2A 00 00 00     call        00407D10
  00407CE6: 83 C4 08           add         esp,8
  00407CE9: 8B D8              mov         ebx,eax
  00407CEB: 85 F6              test        esi,esi
  00407CED: 74 10              je          00407CFF
  00407CEF: 6A 13              push        13h
  00407CF1: E8 7A DC FF FF     call        00405970
  00407CF6: 83 C4 04           add         esp,4
  00407CF9: 8B C3              mov         eax,ebx
  00407CFB: 5F                 pop         edi
  00407CFC: 5E                 pop         esi
  00407CFD: 5B                 pop         ebx
  00407CFE: C3                 ret
  00407CFF: 68 48 11 41 00     push        411148h
  00407D04: FF D7              call        edi
  00407D06: 5F                 pop         edi
  00407D07: 8B C3              mov         eax,ebx
  00407D09: 5E                 pop         esi
  00407D0A: 5B                 pop         ebx
  00407D0B: C3                 ret
  00407D0C: 90                 nop
  00407D0D: 90                 nop
  00407D0E: 90                 nop
  00407D0F: 90                 nop
  00407D10: 8B 44 24 04        mov         eax,dword ptr [esp+4]
  00407D14: 85 C0              test        eax,eax
  00407D16: 75 01              jne         00407D19
  00407D18: C3                 ret
  00407D19: 8B 0D 98 10 41 00  mov         ecx,dword ptr ds:[00411098h]
  00407D1F: 85 C9              test        ecx,ecx
  00407D21: 75 14              jne         00407D37
  00407D23: 66 8B 4C 24 08     mov         cx,word ptr [esp+8]
  00407D28: 66 81 F9 FF 00     cmp         cx,0FFh
  00407D2D: 77 44              ja          00407D73
  00407D2F: 88 08              mov         byte ptr [eax],cl
  00407D31: B8 01 00 00 00     mov         eax,1
  00407D36: C3                 ret
  00407D37: 8B 15 CC FC 40 00  mov         edx,dword ptr ds:[0040FCCCh]
  00407D3D: 8D 4C 24 04        lea         ecx,[esp+4]
  00407D41: 51                 push        ecx
  00407D42: 8B 0D A8 10 41 00  mov         ecx,dword ptr ds:[004110A8h]
  00407D48: 6A 00              push        0
  00407D4A: 52                 push        edx
  00407D4B: 50                 push        eax
  00407D4C: 8D 44 24 18        lea         eax,[esp+18h]
  00407D50: 6A 01              push        1
  00407D52: 50                 push        eax
  00407D53: 68 20 02 00 00     push        220h
  00407D58: 51                 push        ecx
  00407D59: C7 44 24 24 00 00  mov         dword ptr [esp+24h],0
            00 00
  00407D61: FF 15 90 33 41 00  call        dword ptr ds:[00413390h]
  00407D67: 85 C0              test        eax,eax
  00407D69: 74 08              je          00407D73
  00407D6B: 8B 4C 24 04        mov         ecx,dword ptr [esp+4]
  00407D6F: 85 C9              test        ecx,ecx
  00407D71: 74 0E              je          00407D81
  00407D73: E8 48 E6 FF FF     call        004063C0
  00407D78: C7 00 2A 00 00 00  mov         dword ptr [eax],2Ah
  00407D7E: 83 C8 FF           or          eax,0FFFFFFFFh
  00407D81: C3                 ret
  00407D82: 90                 nop
  00407D83: 90                 nop
  00407D84: 90                 nop
  00407D85: 90                 nop
  00407D86: 90                 nop
  00407D87: 90                 nop
  00407D88: 90                 nop
  00407D89: 90                 nop
  00407D8A: 90                 nop
  00407D8B: 90                 nop
  00407D8C: 90                 nop
  00407D8D: 90                 nop
  00407D8E: 90                 nop
  00407D8F: 90                 nop
  00407D90: 53                 push        ebx
  00407D91: 56                 push        esi
  00407D92: 8B 44 24 18        mov         eax,dword ptr [esp+18h]
  00407D96: 0B C0              or          eax,eax
  00407D98: 75 18              jne         00407DB2
  00407D9A: 8B 4C 24 14        mov         ecx,dword ptr [esp+14h]
  00407D9E: 8B 44 24 10        mov         eax,dword ptr [esp+10h]
  00407DA2: 33 D2              xor         edx,edx
  00407DA4: F7 F1              div         eax,ecx
  00407DA6: 8B D8              mov         ebx,eax
  00407DA8: 8B 44 24 0C        mov         eax,dword ptr [esp+0Ch]
  00407DAC: F7 F1              div         eax,ecx
  00407DAE: 8B D3              mov         edx,ebx
  00407DB0: EB 41              jmp         00407DF3
  00407DB2: 8B C8              mov         ecx,eax
  00407DB4: 8B 5C 24 14        mov         ebx,dword ptr [esp+14h]
  00407DB8: 8B 54 24 10        mov         edx,dword ptr [esp+10h]
  00407DBC: 8B 44 24 0C        mov         eax,dword ptr [esp+0Ch]
  00407DC0: D1 E9              shr         ecx,1
  00407DC2: D1 DB              rcr         ebx,1
  00407DC4: D1 EA              shr         edx,1
  00407DC6: D1 D8              rcr         eax,1
  00407DC8: 0B C9              or          ecx,ecx
  00407DCA: 75 F4              jne         00407DC0
  00407DCC: F7 F3              div         eax,ebx
  00407DCE: 8B F0              mov         esi,eax
  00407DD0: F7 64 24 18        mul         eax,dword ptr [esp+18h]
  00407DD4: 8B C8              mov         ecx,eax
  00407DD6: 8B 44 24 14        mov         eax,dword ptr [esp+14h]
  00407DDA: F7 E6              mul         eax,esi
  00407DDC: 03 D1              add         edx,ecx
  00407DDE: 72 0E              jb          00407DEE
  00407DE0: 3B 54 24 10        cmp         edx,dword ptr [esp+10h]
  00407DE4: 77 08              ja          00407DEE
  00407DE6: 72 07              jb          00407DEF
  00407DE8: 3B 44 24 0C        cmp         eax,dword ptr [esp+0Ch]
  00407DEC: 76 01              jbe         00407DEF
  00407DEE: 4E                 dec         esi
  00407DEF: 33 D2              xor         edx,edx
  00407DF1: 8B C6              mov         eax,esi
  00407DF3: 5E                 pop         esi
  00407DF4: 5B                 pop         ebx
  00407DF5: C2 10 00           ret         10h
  00407DF8: CC                 int         3
  00407DF9: CC                 int         3
  00407DFA: CC                 int         3
  00407DFB: CC                 int         3
  00407DFC: CC                 int         3
  00407DFD: CC                 int         3
  00407DFE: CC                 int         3
  00407DFF: CC                 int         3
  00407E00: 53                 push        ebx
  00407E01: 8B 44 24 14        mov         eax,dword ptr [esp+14h]
  00407E05: 0B C0              or          eax,eax
  00407E07: 75 18              jne         00407E21
  00407E09: 8B 4C 24 10        mov         ecx,dword ptr [esp+10h]
  00407E0D: 8B 44 24 0C        mov         eax,dword ptr [esp+0Ch]
  00407E11: 33 D2              xor         edx,edx
  00407E13: F7 F1              div         eax,ecx
  00407E15: 8B 44 24 08        mov         eax,dword ptr [esp+8]
  00407E19: F7 F1              div         eax,ecx
  00407E1B: 8B C2              mov         eax,edx
  00407E1D: 33 D2              xor         edx,edx
  00407E1F: EB 50              jmp         00407E71
  00407E21: 8B C8              mov         ecx,eax
  00407E23: 8B 5C 24 10        mov         ebx,dword ptr [esp+10h]
  00407E27: 8B 54 24 0C        mov         edx,dword ptr [esp+0Ch]
  00407E2B: 8B 44 24 08        mov         eax,dword ptr [esp+8]
  00407E2F: D1 E9              shr         ecx,1
  00407E31: D1 DB              rcr         ebx,1
  00407E33: D1 EA              shr         edx,1
  00407E35: D1 D8              rcr         eax,1
  00407E37: 0B C9              or          ecx,ecx
  00407E39: 75 F4              jne         00407E2F
  00407E3B: F7 F3              div         eax,ebx
  00407E3D: 8B C8              mov         ecx,eax
  00407E3F: F7 64 24 14        mul         eax,dword ptr [esp+14h]
  00407E43: 91                 xchg        eax,ecx
  00407E44: F7 64 24 10        mul         eax,dword ptr [esp+10h]
  00407E48: 03 D1              add         edx,ecx
  00407E4A: 72 0E              jb          00407E5A
  00407E4C: 3B 54 24 0C        cmp         edx,dword ptr [esp+0Ch]
  00407E50: 77 08              ja          00407E5A
  00407E52: 72 0E              jb          00407E62
  00407E54: 3B 44 24 08        cmp         eax,dword ptr [esp+8]
  00407E58: 76 08              jbe         00407E62
  00407E5A: 2B 44 24 10        sub         eax,dword ptr [esp+10h]
  00407E5E: 1B 54 24 14        sbb         edx,dword ptr [esp+14h]
  00407E62: 2B 44 24 08        sub         eax,dword ptr [esp+8]
  00407E66: 1B 54 24 0C        sbb         edx,dword ptr [esp+0Ch]
  00407E6A: F7 DA              neg         edx
  00407E6C: F7 D8              neg         eax
  00407E6E: 83 DA 00           sbb         edx,0
  00407E71: 5B                 pop         ebx
  00407E72: C2 10 00           ret         10h
  00407E75: CC                 int         3
  00407E76: CC                 int         3
  00407E77: CC                 int         3
  00407E78: CC                 int         3
  00407E79: CC                 int         3
  00407E7A: CC                 int         3
  00407E7B: CC                 int         3
  00407E7C: CC                 int         3
  00407E7D: CC                 int         3
  00407E7E: CC                 int         3
  00407E7F: CC                 int         3
  00407E80: 56                 push        esi
  00407E81: 8B 74 24 08        mov         esi,dword ptr [esp+8]
  00407E85: 56                 push        esi
  00407E86: E8 35 00 00 00     call        00407EC0
  00407E8B: 83 C4 04           add         esp,4
  00407E8E: 85 C0              test        eax,eax
  00407E90: 74 05              je          00407E97
  00407E92: 83 C8 FF           or          eax,0FFFFFFFFh
  00407E95: 5E                 pop         esi
  00407E96: C3                 ret
  00407E97: 8B 46 0C           mov         eax,dword ptr [esi+0Ch]
  00407E9A: F6 C4 40           test        ah,40h
  00407E9D: 74 12              je          00407EB1
  00407E9F: 8B 46 10           mov         eax,dword ptr [esi+10h]
  00407EA2: 50                 push        eax
  00407EA3: E8 68 0E 00 00     call        00408D10
  00407EA8: 83 C4 04           add         esp,4
  00407EAB: F7 D8              neg         eax
  00407EAD: 1B C0              sbb         eax,eax
  00407EAF: 5E                 pop         esi
  00407EB0: C3                 ret
  00407EB1: 33 C0              xor         eax,eax
  00407EB3: 5E                 pop         esi
  00407EB4: C3                 ret
  00407EB5: 90                 nop
  00407EB6: 90                 nop
  00407EB7: 90                 nop
  00407EB8: 90                 nop
  00407EB9: 90                 nop
  00407EBA: 90                 nop
  00407EBB: 90                 nop
  00407EBC: 90                 nop
  00407EBD: 90                 nop
  00407EBE: 90                 nop
  00407EBF: 90                 nop
  00407EC0: 53                 push        ebx
  00407EC1: 56                 push        esi
  00407EC2: 8B 74 24 0C        mov         esi,dword ptr [esp+0Ch]
  00407EC6: 33 DB              xor         ebx,ebx
  00407EC8: 57                 push        edi
  00407EC9: 8B 46 0C           mov         eax,dword ptr [esi+0Ch]
  00407ECC: 8B C8              mov         ecx,eax
  00407ECE: 83 E1 03           and         ecx,3
  00407ED1: 80 F9 02           cmp         cl,2
  00407ED4: 75 46              jne         00407F1C
  00407ED6: A9 08 01 00 00     test        eax,108h
  00407EDB: 74 3F              je          00407F1C
  00407EDD: 8B 46 08           mov         eax,dword ptr [esi+8]
  00407EE0: 8B 3E              mov         edi,dword ptr [esi]
  00407EE2: 2B F8              sub         edi,eax
  00407EE4: 85 FF              test        edi,edi
  00407EE6: 7E 34              jle         00407F1C
  00407EE8: 8B 56 10           mov         edx,dword ptr [esi+10h]
  00407EEB: 57                 push        edi
  00407EEC: 50                 push        eax
  00407EED: 52                 push        edx
  00407EEE: E8 8D FA FF FF     call        00407980
  00407EF3: 83 C4 0C           add         esp,0Ch
  00407EF6: 3B C7              cmp         eax,edi
  00407EF8: 8B 46 0C           mov         eax,dword ptr [esi+0Ch]
  00407EFB: 75 17              jne         00407F14
  00407EFD: A8 80              test        al,80h
  00407EFF: 74 1B              je          00407F1C
  00407F01: 24 FD              and         al,0FDh
  00407F03: 89 5E 04           mov         dword ptr [esi+4],ebx
  00407F06: 89 46 0C           mov         dword ptr [esi+0Ch],eax
  00407F09: 8B 46 08           mov         eax,dword ptr [esi+8]
  00407F0C: 89 06              mov         dword ptr [esi],eax
  00407F0E: 8B C3              mov         eax,ebx
  00407F10: 5F                 pop         edi
  00407F11: 5E                 pop         esi
  00407F12: 5B                 pop         ebx
  00407F13: C3                 ret
  00407F14: 0C 20              or          al,20h
  00407F16: 83 CB FF           or          ebx,0FFFFFFFFh
  00407F19: 89 46 0C           mov         dword ptr [esi+0Ch],eax
  00407F1C: 8B 46 08           mov         eax,dword ptr [esi+8]
  00407F1F: C7 46 04 00 00 00  mov         dword ptr [esi+4],0
            00
  00407F26: 89 06              mov         dword ptr [esi],eax
  00407F28: 5F                 pop         edi
  00407F29: 8B C3              mov         eax,ebx
  00407F2B: 5E                 pop         esi
  00407F2C: 5B                 pop         ebx
  00407F2D: C3                 ret
  00407F2E: 90                 nop
  00407F2F: 90                 nop
  00407F30: 6A 01              push        1
  00407F32: E8 09 00 00 00     call        00407F40
  00407F37: 83 C4 04           add         esp,4
  00407F3A: C3                 ret
  00407F3B: 90                 nop
  00407F3C: 90                 nop
  00407F3D: 90                 nop
  00407F3E: 90                 nop
  00407F3F: 90                 nop
  00407F40: 51                 push        ecx
  00407F41: 53                 push        ebx
  00407F42: 55                 push        ebp
  00407F43: 56                 push        esi
  00407F44: 57                 push        edi
  00407F45: 33 F6              xor         esi,esi
  00407F47: 6A 02              push        2
  00407F49: 89 74 24 14        mov         dword ptr [esp+14h],esi
  00407F4D: 33 ED              xor         ebp,ebp
  00407F4F: E8 9C D9 FF FF     call        004058F0
  00407F54: A1 80 22 41 00     mov         eax,dword ptr ds:[00412280h]
  00407F59: 8B 7C 24 1C        mov         edi,dword ptr [esp+1Ch]
  00407F5D: 83 C4 04           add         esp,4
  00407F60: 3B C6              cmp         eax,esi
  00407F62: 7E 7C              jle         00407FE0
  00407F64: B3 83              mov         bl,83h
  00407F66: A1 70 12 41 00     mov         eax,dword ptr ds:[00411270h]
  00407F6B: 8B 04 B0           mov         eax,dword ptr [eax+esi*4]
  00407F6E: 85 C0              test        eax,eax
  00407F70: 74 64              je          00407FD6
  00407F72: 84 58 0C           test        byte ptr [eax+0Ch],bl
  00407F75: 74 5F              je          00407FD6
  00407F77: 50                 push        eax
  00407F78: 56                 push        esi
  00407F79: E8 52 DA FF FF     call        004059D0
  00407F7E: 8B 0D 70 12 41 00  mov         ecx,dword ptr ds:[00411270h]
  00407F84: 83 C4 08           add         esp,8
  00407F87: 8B 04 B1           mov         eax,dword ptr [ecx+esi*4]
  00407F8A: 8B 48 0C           mov         ecx,dword ptr [eax+0Ch]
  00407F8D: 84 CB              test        bl,cl
  00407F8F: 74 32              je          00407FC3
  00407F91: 83 FF 01           cmp         edi,1
  00407F94: 75 14              jne         00407FAA
  00407F96: 50                 push        eax
  00407F97: E8 E4 FE FF FF     call        00407E80
  00407F9C: 83 C4 04           add         esp,4
  00407F9F: 83 F8 FF           cmp         eax,0FFFFFFFFh
  00407FA2: 74 1F              je          00407FC3
  00407FA4: FF 44 24 10        inc         dword ptr [esp+10h]
  00407FA8: EB 19              jmp         00407FC3
  00407FAA: 85 FF              test        edi,edi
  00407FAC: 75 15              jne         00407FC3
  00407FAE: F6 C1 02           test        cl,2
  00407FB1: 74 10              je          00407FC3
  00407FB3: 50                 push        eax
  00407FB4: E8 C7 FE FF FF     call        00407E80
  00407FB9: 83 C4 04           add         esp,4
  00407FBC: 83 F8 FF           cmp         eax,0FFFFFFFFh
  00407FBF: 75 02              jne         00407FC3
  00407FC1: 0B E8              or          ebp,eax
  00407FC3: 8B 15 70 12 41 00  mov         edx,dword ptr ds:[00411270h]
  00407FC9: 8B 04 B2           mov         eax,dword ptr [edx+esi*4]
  00407FCC: 50                 push        eax
  00407FCD: 56                 push        esi
  00407FCE: E8 6D DA FF FF     call        00405A40
  00407FD3: 83 C4 08           add         esp,8
  00407FD6: A1 80 22 41 00     mov         eax,dword ptr ds:[00412280h]
  00407FDB: 46                 inc         esi
  00407FDC: 3B F0              cmp         esi,eax
  00407FDE: 7C 86              jl          00407F66
  00407FE0: 6A 02              push        2
  00407FE2: E8 89 D9 FF FF     call        00405970
  00407FE7: 8B 44 24 14        mov         eax,dword ptr [esp+14h]
  00407FEB: 83 C4 04           add         esp,4
  00407FEE: 83 FF 01           cmp         edi,1
  00407FF1: 74 02              je          00407FF5
  00407FF3: 8B C5              mov         eax,ebp
  00407FF5: 5F                 pop         edi
  00407FF6: 5E                 pop         esi
  00407FF7: 5D                 pop         ebp
  00407FF8: 5B                 pop         ebx
  00407FF9: 59                 pop         ecx
  00407FFA: C3                 ret
  00407FFB: 90                 nop
  00407FFC: 90                 nop
  00407FFD: 90                 nop
  00407FFE: 90                 nop
  00407FFF: 90                 nop
  00408000: 55                 push        ebp
  00408001: 56                 push        esi
  00408002: 6A 02              push        2
  00408004: 33 ED              xor         ebp,ebp
  00408006: E8 E5 D8 FF FF     call        004058F0
  0040800B: A1 80 22 41 00     mov         eax,dword ptr ds:[00412280h]
  00408010: BE 03 00 00 00     mov         esi,3
  00408015: 83 C4 04           add         esp,4
  00408018: 3B C6              cmp         eax,esi
  0040801A: 7E 68              jle         00408084
  0040801C: 57                 push        edi
  0040801D: 8B 3D 20 34 41 00  mov         edi,dword ptr ds:[00413420h]
  00408023: 53                 push        ebx
  00408024: B3 83              mov         bl,83h
  00408026: A1 70 12 41 00     mov         eax,dword ptr ds:[00411270h]
  0040802B: 8B 04 B0           mov         eax,dword ptr [eax+esi*4]
  0040802E: 85 C0              test        eax,eax
  00408030: 74 46              je          00408078
  00408032: 84 58 0C           test        byte ptr [eax+0Ch],bl
  00408035: 74 0F              je          00408046
  00408037: 50                 push        eax
  00408038: E8 73 0D 00 00     call        00408DB0
  0040803D: 83 C4 04           add         esp,4
  00408040: 83 F8 FF           cmp         eax,0FFFFFFFFh
  00408043: 74 01              je          00408046
  00408045: 45                 inc         ebp
  00408046: 83 FE 14           cmp         esi,14h
  00408049: 7C 2D              jl          00408078
  0040804B: 8B 0D 70 12 41 00  mov         ecx,dword ptr ds:[00411270h]
  00408051: 8B 14 B1           mov         edx,dword ptr [ecx+esi*4]
  00408054: 83 C2 20           add         edx,20h
  00408057: 52                 push        edx
  00408058: FF D7              call        edi
  0040805A: A1 70 12 41 00     mov         eax,dword ptr ds:[00411270h]
  0040805F: 8B 0C B0           mov         ecx,dword ptr [eax+esi*4]
  00408062: 51                 push        ecx
  00408063: E8 88 BE FF FF     call        00403EF0
  00408068: 8B 15 70 12 41 00  mov         edx,dword ptr ds:[00411270h]
  0040806E: 83 C4 04           add         esp,4
  00408071: C7 04 B2 00 00 00  mov         dword ptr [edx+esi*4],0
            00
  00408078: A1 80 22 41 00     mov         eax,dword ptr ds:[00412280h]
  0040807D: 46                 inc         esi
  0040807E: 3B F0              cmp         esi,eax
  00408080: 7C A4              jl          00408026
  00408082: 5B                 pop         ebx
  00408083: 5F                 pop         edi
  00408084: 6A 02              push        2
  00408086: E8 E5 D8 FF FF     call        00405970
  0040808B: 83 C4 04           add         esp,4
  0040808E: 8B C5              mov         eax,ebp
  00408090: 5E                 pop         esi
  00408091: 5D                 pop         ebp
  00408092: C3                 ret
  00408093: 90                 nop
  00408094: 90                 nop
  00408095: 90                 nop
  00408096: 90                 nop
  00408097: 90                 nop
  00408098: 90                 nop
  00408099: 90                 nop
  0040809A: 90                 nop
  0040809B: 90                 nop
  0040809C: 90                 nop
  0040809D: 90                 nop
  0040809E: 90                 nop
  0040809F: 90                 nop
  004080A0: A1 80 10 41 00     mov         eax,dword ptr ds:[00411080h]
  004080A5: 85 C0              test        eax,eax
  004080A7: 75 28              jne         004080D1
  004080A9: 6A 0B              push        0Bh
  004080AB: E8 40 D8 FF FF     call        004058F0
  004080B0: A1 80 10 41 00     mov         eax,dword ptr ds:[00411080h]
  004080B5: 83 C4 04           add         esp,4
  004080B8: 85 C0              test        eax,eax
  004080BA: 75 0B              jne         004080C7
  004080BC: E8 1F 00 00 00     call        004080E0
  004080C1: FF 05 80 10 41 00  inc         dword ptr ds:[00411080h]
  004080C7: 6A 0B              push        0Bh
  004080C9: E8 A2 D8 FF FF     call        00405970
  004080CE: 83 C4 04           add         esp,4
  004080D1: C3                 ret
  004080D2: 90                 nop
  004080D3: 90                 nop
  004080D4: 90                 nop
  004080D5: 90                 nop
  004080D6: 90                 nop
  004080D7: 90                 nop
  004080D8: 90                 nop
  004080D9: 90                 nop
  004080DA: 90                 nop
  004080DB: 90                 nop
  004080DC: 90                 nop
  004080DD: 90                 nop
  004080DE: 90                 nop
  004080DF: 90                 nop
  004080E0: 51                 push        ecx
  004080E1: 55                 push        ebp
  004080E2: 56                 push        esi
  004080E3: 57                 push        edi
  004080E4: 33 F6              xor         esi,esi
  004080E6: 6A 0C              push        0Ch
  004080E8: 89 74 24 10        mov         dword ptr [esp+10h],esi
  004080EC: E8 FF D7 FF FF     call        004058F0
  004080F1: 83 C4 04           add         esp,4
  004080F4: 89 35 C8 0F 41 00  mov         dword ptr ds:[00410FC8h],esi
  004080FA: C7 05 58 FF 40 00  mov         dword ptr ds:[0040FF58h],0FFFFFFFFh
            FF FF FF FF
  00408104: C7 05 48 FF 40 00  mov         dword ptr ds:[0040FF48h],0FFFFFFFFh
            FF FF FF FF
  0040810E: 68 E0 C3 40 00     push        40C3E0h
  00408113: E8 F8 0F 00 00     call        00409110
  00408118: 8B E8              mov         ebp,eax
  0040811A: 83 C4 04           add         esp,4
  0040811D: 3B EE              cmp         ebp,esi
  0040811F: 0F 85 D6 00 00 00  jne         004081FB
  00408125: 6A 0C              push        0Ch
  00408127: E8 44 D8 FF FF     call        00405970
  0040812C: 83 C4 04           add         esp,4
  0040812F: 68 D0 0F 41 00     push        410FD0h
  00408134: FF 15 FC 33 41 00  call        dword ptr ds:[004133FCh]
  0040813A: 83 F8 FF           cmp         eax,0FFFFFFFFh
  0040813D: 0F 84 70 02 00 00  je          004083B3
  00408143: A1 D0 0F 41 00     mov         eax,dword ptr ds:[00410FD0h]
  00408148: 8B 0D 24 10 41 00  mov         ecx,dword ptr ds:[00411024h]
  0040814E: 33 FF              xor         edi,edi
  00408150: BE 01 00 00 00     mov         esi,1
  00408155: 8D 04 40           lea         eax,[eax+eax*2]
  00408158: 89 35 C8 0F 41 00  mov         dword ptr ds:[00410FC8h],esi
  0040815E: 8D 04 80           lea         eax,[eax+eax*4]
  00408161: C1 E0 02           shl         eax,2
  00408164: 66 39 3D 16 10 41  cmp         word ptr ds:[00411016h],di
            00
  0040816B: A3 B0 FE 40 00     mov         dword ptr ds:[0040FEB0h],eax
  00408170: 74 0E              je          00408180
  00408172: 8D 14 49           lea         edx,[ecx+ecx*2]
  00408175: 8D 14 92           lea         edx,[edx+edx*4]
  00408178: 8D 04 90           lea         eax,[eax+edx*4]
  0040817B: A3 B0 FE 40 00     mov         dword ptr ds:[0040FEB0h],eax
  00408180: 66 39 3D 6A 10 41  cmp         word ptr ds:[0041106Ah],di
            00
  00408187: 74 22              je          004081AB
  00408189: A1 78 10 41 00     mov         eax,dword ptr ds:[00411078h]
  0040818E: 3B C7              cmp         eax,edi
  00408190: 74 19              je          004081AB
  00408192: 2B C1              sub         eax,ecx
  00408194: 89 35 B4 FE 40 00  mov         dword ptr ds:[0040FEB4h],esi
  0040819A: 8D 04 40           lea         eax,[eax+eax*2]
  0040819D: 8D 0C 80           lea         ecx,[eax+eax*4]
  004081A0: C1 E1 02           shl         ecx,2
  004081A3: 89 0D B8 FE 40 00  mov         dword ptr ds:[0040FEB8h],ecx
  004081A9: EB 0C              jmp         004081B7
  004081AB: 89 3D B4 FE 40 00  mov         dword ptr ds:[0040FEB4h],edi
  004081B1: 89 3D B8 FE 40 00  mov         dword ptr ds:[0040FEB8h],edi
  004081B7: 8B 15 40 FF 40 00  mov         edx,dword ptr ds:[0040FF40h]
  004081BD: 6A 40              push        40h
  004081BF: 68 D4 0F 41 00     push        410FD4h
  004081C4: 52                 push        edx
  004081C5: E8 96 0C 00 00     call        00408E60
  004081CA: A1 44 FF 40 00     mov         eax,dword ptr ds:[0040FF44h]
  004081CF: 83 C4 0C           add         esp,0Ch
  004081D2: 6A 40              push        40h
  004081D4: 68 28 10 41 00     push        411028h
  004081D9: 50                 push        eax
  004081DA: E8 81 0C 00 00     call        00408E60
  004081DF: 8B 0D 44 FF 40 00  mov         ecx,dword ptr ds:[0040FF44h]
  004081E5: 83 C4 0C           add         esp,0Ch
  004081E8: C6 41 3F 00        mov         byte ptr [ecx+3Fh],0
  004081EC: 8B 15 40 FF 40 00  mov         edx,dword ptr ds:[0040FF40h]
  004081F2: C6 42 3F 00        mov         byte ptr [edx+3Fh],0
  004081F6: 5F                 pop         edi
  004081F7: 5E                 pop         esi
  004081F8: 5D                 pop         ebp
  004081F9: 59                 pop         ecx
  004081FA: C3                 ret
  004081FB: 80 7D 00 00        cmp         byte ptr [ebp],0
  004081FF: 0F 84 A4 01 00 00  je          004083A9
  00408205: 8B 3D 7C 10 41 00  mov         edi,dword ptr ds:[0041107Ch]
  0040820B: 3B FE              cmp         edi,esi
  0040820D: 74 35              je          00408244
  0040820F: 8B F7              mov         esi,edi
  00408211: 8B C5              mov         eax,ebp
  00408213: 8A 10              mov         dl,byte ptr [eax]
  00408215: 8A CA              mov         cl,dl
  00408217: 3A 16              cmp         dl,byte ptr [esi]
  00408219: 75 1C              jne         00408237
  0040821B: 84 C9              test        cl,cl
  0040821D: 74 14              je          00408233
  0040821F: 8A 50 01           mov         dl,byte ptr [eax+1]
  00408222: 8A CA              mov         cl,dl
  00408224: 3A 56 01           cmp         dl,byte ptr [esi+1]
  00408227: 75 0E              jne         00408237
  00408229: 83 C0 02           add         eax,2
  0040822C: 83 C6 02           add         esi,2
  0040822F: 84 C9              test        cl,cl
  00408231: 75 E0              jne         00408213
  00408233: 33 C0              xor         eax,eax
  00408235: EB 05              jmp         0040823C
  00408237: 1B C0              sbb         eax,eax
  00408239: 83 D8 FF           sbb         eax,0FFFFFFFFh
  0040823C: 85 C0              test        eax,eax
  0040823E: 0F 84 65 01 00 00  je          004083A9
  00408244: 57                 push        edi
  00408245: E8 A6 BC FF FF     call        00403EF0
  0040824A: 8B FD              mov         edi,ebp
  0040824C: 83 C9 FF           or          ecx,0FFFFFFFFh
  0040824F: 33 C0              xor         eax,eax
  00408251: 83 C4 04           add         esp,4
  00408254: F2 AE              repne scas  byte ptr es:[edi]
  00408256: F7 D1              not         ecx
  00408258: 51                 push        ecx
  00408259: E8 02 BD FF FF     call        00403F60
  0040825E: 8B D0              mov         edx,eax
  00408260: 83 C4 04           add         esp,4
  00408263: 85 D2              test        edx,edx
  00408265: 89 15 7C 10 41 00  mov         dword ptr ds:[0041107Ch],edx
  0040826B: 0F 84 38 01 00 00  je          004083A9
  00408271: 8B FD              mov         edi,ebp
  00408273: 83 C9 FF           or          ecx,0FFFFFFFFh
  00408276: 33 C0              xor         eax,eax
  00408278: 6A 0C              push        0Ch
  0040827A: F2 AE              repne scas  byte ptr es:[edi]
  0040827C: F7 D1              not         ecx
  0040827E: 2B F9              sub         edi,ecx
  00408280: 8B C1              mov         eax,ecx
  00408282: 8B F7              mov         esi,edi
  00408284: 8B FA              mov         edi,edx
  00408286: C1 E9 02           shr         ecx,2
  00408289: F3 A5              rep movs    dword ptr es:[edi],dword ptr [esi]
  0040828B: 8B C8              mov         ecx,eax
  0040828D: 83 E1 03           and         ecx,3
  00408290: F3 A4              rep movs    byte ptr es:[edi],byte ptr [esi]
  00408292: E8 D9 D6 FF FF     call        00405970
  00408297: 8B 0D 40 FF 40 00  mov         ecx,dword ptr ds:[0040FF40h]
  0040829D: 83 C4 04           add         esp,4
  004082A0: 6A 03              push        3
  004082A2: 55                 push        ebp
  004082A3: 51                 push        ecx
  004082A4: E8 87 C4 FF FF     call        00404730
  004082A9: 8B 15 40 FF 40 00  mov         edx,dword ptr ds:[0040FF40h]
  004082AF: 83 C5 03           add         ebp,3
  004082B2: 83 C4 0C           add         esp,0Ch
  004082B5: C6 42 03 00        mov         byte ptr [edx+3],0
  004082B9: 8A 45 00           mov         al,byte ptr [ebp]
  004082BC: 3C 2D              cmp         al,2Dh
  004082BE: 75 08              jne         004082C8
  004082C0: BE 01 00 00 00     mov         esi,1
  004082C5: 45                 inc         ebp
  004082C6: EB 04              jmp         004082CC
  004082C8: 8B 74 24 0C        mov         esi,dword ptr [esp+0Ch]
  004082CC: 55                 push        ebp
  004082CD: E8 0E C7 FF FF     call        004049E0
  004082D2: 8D 04 80           lea         eax,[eax+eax*4]
  004082D5: 83 C4 04           add         esp,4
  004082D8: 8D 04 80           lea         eax,[eax+eax*4]
  004082DB: 8D 0C C0           lea         ecx,[eax+eax*8]
  004082DE: C1 E1 04           shl         ecx,4
  004082E1: 89 0D B0 FE 40 00  mov         dword ptr ds:[0040FEB0h],ecx
  004082E7: 8A 45 00           mov         al,byte ptr [ebp]
  004082EA: 3C 2B              cmp         al,2Bh
  004082EC: 74 08              je          004082F6
  004082EE: 3C 30              cmp         al,30h
  004082F0: 7C 07              jl          004082F9
  004082F2: 3C 39              cmp         al,39h
  004082F4: 7F 03              jg          004082F9
  004082F6: 45                 inc         ebp
  004082F7: EB EE              jmp         004082E7
  004082F9: 80 7D 00 3A        cmp         byte ptr [ebp],3Ah
  004082FD: 75 63              jne         00408362
  004082FF: 45                 inc         ebp
  00408300: 55                 push        ebp
  00408301: E8 DA C6 FF FF     call        004049E0
  00408306: 8B 0D B0 FE 40 00  mov         ecx,dword ptr ds:[0040FEB0h]
  0040830C: 8D 04 40           lea         eax,[eax+eax*2]
  0040830F: 83 C4 04           add         esp,4
  00408312: 8D 04 80           lea         eax,[eax+eax*4]
  00408315: 8D 0C 81           lea         ecx,[ecx+eax*4]
  00408318: 89 0D B0 FE 40 00  mov         dword ptr ds:[0040FEB0h],ecx
  0040831E: 8A 45 00           mov         al,byte ptr [ebp]
  00408321: 3C 30              cmp         al,30h
  00408323: 7C 0C              jl          00408331
  00408325: 3C 39              cmp         al,39h
  00408327: 7F 08              jg          00408331
  00408329: 8A 45 01           mov         al,byte ptr [ebp+1]
  0040832C: 45                 inc         ebp
  0040832D: 3C 30              cmp         al,30h
  0040832F: 7D F4              jge         00408325
  00408331: 80 7D 00 3A        cmp         byte ptr [ebp],3Ah
  00408335: 75 2B              jne         00408362
  00408337: 45                 inc         ebp
  00408338: 55                 push        ebp
  00408339: E8 A2 C6 FF FF     call        004049E0
  0040833E: 8B 0D B0 FE 40 00  mov         ecx,dword ptr ds:[0040FEB0h]
  00408344: 83 C4 04           add         esp,4
  00408347: 03 C8              add         ecx,eax
  00408349: 89 0D B0 FE 40 00  mov         dword ptr ds:[0040FEB0h],ecx
  0040834F: 8A 45 00           mov         al,byte ptr [ebp]
  00408352: 3C 30              cmp         al,30h
  00408354: 7C 0C              jl          00408362
  00408356: 3C 39              cmp         al,39h
  00408358: 7F 08              jg          00408362
  0040835A: 8A 45 01           mov         al,byte ptr [ebp+1]
  0040835D: 45                 inc         ebp
  0040835E: 3C 30              cmp         al,30h
  00408360: 7D F4              jge         00408356
  00408362: 85 F6              test        esi,esi
  00408364: 74 08              je          0040836E
  00408366: F7 D9              neg         ecx
  00408368: 89 0D B0 FE 40 00  mov         dword ptr ds:[0040FEB0h],ecx
  0040836E: 0F BE 45 00        movsx       eax,byte ptr [ebp]
  00408372: 85 C0              test        eax,eax
  00408374: A3 B4 FE 40 00     mov         dword ptr ds:[0040FEB4h],eax
  00408379: 74 20              je          0040839B
  0040837B: 8B 15 44 FF 40 00  mov         edx,dword ptr ds:[0040FF44h]
  00408381: 6A 03              push        3
  00408383: 55                 push        ebp
  00408384: 52                 push        edx
  00408385: E8 A6 C3 FF FF     call        00404730
  0040838A: A1 44 FF 40 00     mov         eax,dword ptr ds:[0040FF44h]
  0040838F: 83 C4 0C           add         esp,0Ch
  00408392: C6 40 03 00        mov         byte ptr [eax+3],0
  00408396: 5F                 pop         edi
  00408397: 5E                 pop         esi
  00408398: 5D                 pop         ebp
  00408399: 59                 pop         ecx
  0040839A: C3                 ret
  0040839B: 8B 0D 44 FF 40 00  mov         ecx,dword ptr ds:[0040FF44h]
  004083A1: C6 01 00           mov         byte ptr [ecx],0
  004083A4: 5F                 pop         edi
  004083A5: 5E                 pop         esi
  004083A6: 5D                 pop         ebp
  004083A7: 59                 pop         ecx
  004083A8: C3                 ret
  004083A9: 6A 0C              push        0Ch
  004083AB: E8 C0 D5 FF FF     call        00405970
  004083B0: 83 C4 04           add         esp,4
  004083B3: 5F                 pop         edi
  004083B4: 5E                 pop         esi
  004083B5: 5D                 pop         ebp
  004083B6: 59                 pop         ecx
  004083B7: C3                 ret
  004083B8: 90                 nop
  004083B9: 90                 nop
  004083BA: 90                 nop
  004083BB: 90                 nop
  004083BC: 90                 nop
  004083BD: 90                 nop
  004083BE: 90                 nop
  004083BF: 90                 nop
  004083C0: 56                 push        esi
  004083C1: 6A 0B              push        0Bh
  004083C3: E8 28 D5 FF FF     call        004058F0
  004083C8: 8B 44 24 0C        mov         eax,dword ptr [esp+0Ch]
  004083CC: 83 C4 04           add         esp,4
  004083CF: 50                 push        eax
  004083D0: E8 1B 00 00 00     call        004083F0
  004083D5: 83 C4 04           add         esp,4
  004083D8: 8B F0              mov         esi,eax
  004083DA: 6A 0B              push        0Bh
  004083DC: E8 8F D5 FF FF     call        00405970
  004083E1: 83 C4 04           add         esp,4
  004083E4: 8B C6              mov         eax,esi
  004083E6: 5E                 pop         esi
  004083E7: C3                 ret
  004083E8: 90                 nop
  004083E9: 90                 nop
  004083EA: 90                 nop
  004083EB: 90                 nop
  004083EC: 90                 nop
  004083ED: 90                 nop
  004083EE: 90                 nop
  004083EF: 90                 nop
  004083F0: A1 B4 FE 40 00     mov         eax,dword ptr ds:[0040FEB4h]
  004083F5: 56                 push        esi
  004083F6: 85 C0              test        eax,eax
  004083F8: 57                 push        edi
  004083F9: 75 05              jne         00408400
  004083FB: 33 C0              xor         eax,eax
  004083FD: 5F                 pop         edi
  004083FE: 5E                 pop         esi
  004083FF: C3                 ret
  00408400: 8B 74 24 0C        mov         esi,dword ptr [esp+0Ch]
  00408404: 8B 0D 48 FF 40 00  mov         ecx,dword ptr ds:[0040FF48h]
  0040840A: 8B 46 14           mov         eax,dword ptr [esi+14h]
  0040840D: 3B C1              cmp         eax,ecx
  0040840F: 75 0C              jne         0040841D
  00408411: 3B 05 58 FF 40 00  cmp         eax,dword ptr ds:[0040FF58h]
  00408417: 0F 84 A7 01 00 00  je          004085C4
  0040841D: 8B 0D C8 0F 41 00  mov         ecx,dword ptr ds:[00410FC8h]
  00408423: 85 C9              test        ecx,ecx
  00408425: 0F 84 5C 01 00 00  je          00408587
  0040842B: 66 83 3D 68 10 41  cmp         word ptr ds:[00411068h],0
            00 00
  00408433: 75 56              jne         0040848B
  00408435: 8B 15 74 10 41 00  mov         edx,dword ptr ds:[00411074h]
  0040843B: 33 C9              xor         ecx,ecx
  0040843D: 66 8B 0D 76 10 41  mov         cx,word ptr ds:[00411076h]
            00
  00408444: 81 E2 FF FF 00 00  and         edx,0FFFFh
  0040844A: 51                 push        ecx
  0040844B: 33 C9              xor         ecx,ecx
  0040844D: 66 8B 0D 72 10 41  mov         cx,word ptr ds:[00411072h]
            00
  00408454: 52                 push        edx
  00408455: 8B 15 70 10 41 00  mov         edx,dword ptr ds:[00411070h]
  0040845B: 51                 push        ecx
  0040845C: 8B 0D 6C 10 41 00  mov         ecx,dword ptr ds:[0041106Ch]
  00408462: 81 E2 FF FF 00 00  and         edx,0FFFFh
  00408468: 52                 push        edx
  00408469: 81 E1 FF FF 00 00  and         ecx,0FFFFh
  0040846F: 6A 00              push        0
  00408471: 51                 push        ecx
  00408472: 33 D2              xor         edx,edx
  00408474: 33 C9              xor         ecx,ecx
  00408476: 66 8B 15 6E 10 41  mov         dx,word ptr ds:[0041106Eh]
            00
  0040847D: 66 8B 0D 6A 10 41  mov         cx,word ptr ds:[0041106Ah]
            00
  00408484: 52                 push        edx
  00408485: 51                 push        ecx
  00408486: 50                 push        eax
  00408487: 6A 01              push        1
  00408489: EB 49              jmp         004084D4
  0040848B: 8B 0D 74 10 41 00  mov         ecx,dword ptr ds:[00411074h]
  00408491: 33 D2              xor         edx,edx
  00408493: 66 8B 15 76 10 41  mov         dx,word ptr ds:[00411076h]
            00
  0040849A: 81 E1 FF FF 00 00  and         ecx,0FFFFh
  004084A0: 52                 push        edx
  004084A1: 33 D2              xor         edx,edx
  004084A3: 66 8B 15 72 10 41  mov         dx,word ptr ds:[00411072h]
            00
  004084AA: 51                 push        ecx
  004084AB: 8B 0D 70 10 41 00  mov         ecx,dword ptr ds:[00411070h]
  004084B1: 52                 push        edx
  004084B2: 81 E1 FF FF 00 00  and         ecx,0FFFFh
  004084B8: 33 D2              xor         edx,edx
  004084BA: 66 8B 15 6E 10 41  mov         dx,word ptr ds:[0041106Eh]
            00
  004084C1: 51                 push        ecx
  004084C2: 33 C9              xor         ecx,ecx
  004084C4: 52                 push        edx
  004084C5: 66 8B 0D 6A 10 41  mov         cx,word ptr ds:[0041106Ah]
            00
  004084CC: 6A 00              push        0
  004084CE: 6A 00              push        0
  004084D0: 51                 push        ecx
  004084D1: 50                 push        eax
  004084D2: 6A 00              push        0
  004084D4: 6A 01              push        1
  004084D6: E8 85 01 00 00     call        00408660
  004084DB: 83 C4 2C           add         esp,2Ch
  004084DE: 66 83 3D 14 10 41  cmp         word ptr ds:[00411014h],0
            00 00
  004084E6: 75 53              jne         0040853B
  004084E8: A1 20 10 41 00     mov         eax,dword ptr ds:[00411020h]
  004084ED: 33 D2              xor         edx,edx
  004084EF: 66 8B 15 22 10 41  mov         dx,word ptr ds:[00411022h]
            00
  004084F6: 25 FF FF 00 00     and         eax,0FFFFh
  004084FB: 52                 push        edx
  004084FC: 8B 15 1C 10 41 00  mov         edx,dword ptr ds:[0041101Ch]
  00408502: 33 C9              xor         ecx,ecx
  00408504: 50                 push        eax
  00408505: 66 8B 0D 1E 10 41  mov         cx,word ptr ds:[0041101Eh]
            00
  0040850C: A1 18 10 41 00     mov         eax,dword ptr ds:[00411018h]
  00408511: 81 E2 FF FF 00 00  and         edx,0FFFFh
  00408517: 51                 push        ecx
  00408518: 52                 push        edx
  00408519: 25 FF FF 00 00     and         eax,0FFFFh
  0040851E: 33 C9              xor         ecx,ecx
  00408520: 33 D2              xor         edx,edx
  00408522: 66 8B 0D 1A 10 41  mov         cx,word ptr ds:[0041101Ah]
            00
  00408529: 66 8B 15 16 10 41  mov         dx,word ptr ds:[00411016h]
            00
  00408530: 6A 00              push        0
  00408532: 50                 push        eax
  00408533: 8B 46 14           mov         eax,dword ptr [esi+14h]
  00408536: 51                 push        ecx
  00408537: 52                 push        edx
  00408538: 50                 push        eax
  00408539: EB 7D              jmp         004085B8
  0040853B: 8B 15 20 10 41 00  mov         edx,dword ptr ds:[00411020h]
  00408541: 33 C9              xor         ecx,ecx
  00408543: 66 8B 0D 22 10 41  mov         cx,word ptr ds:[00411022h]
            00
  0040854A: 81 E2 FF FF 00 00  and         edx,0FFFFh
  00408550: 51                 push        ecx
  00408551: 8B 0D 1C 10 41 00  mov         ecx,dword ptr ds:[0041101Ch]
  00408557: 33 C0              xor         eax,eax
  00408559: 52                 push        edx
  0040855A: 66 A1 1E 10 41 00  mov         ax,word ptr ds:[0041101Eh]
  00408560: 33 D2              xor         edx,edx
  00408562: 66 8B 15 1A 10 41  mov         dx,word ptr ds:[0041101Ah]
            00
  00408569: 81 E1 FF FF 00 00  and         ecx,0FFFFh
  0040856F: 50                 push        eax
  00408570: 51                 push        ecx
  00408571: 8B 4E 14           mov         ecx,dword ptr [esi+14h]
  00408574: 33 C0              xor         eax,eax
  00408576: 66 A1 16 10 41 00  mov         ax,word ptr ds:[00411016h]
  0040857C: 52                 push        edx
  0040857D: 6A 00              push        0
  0040857F: 6A 00              push        0
  00408581: 50                 push        eax
  00408582: 51                 push        ecx
  00408583: 6A 00              push        0
  00408585: EB 33              jmp         004085BA
  00408587: 6A 00              push        0
  00408589: 6A 00              push        0
  0040858B: 6A 00              push        0
  0040858D: 6A 02              push        2
  0040858F: 6A 00              push        0
  00408591: 6A 00              push        0
  00408593: 6A 01              push        1
  00408595: 6A 04              push        4
  00408597: 50                 push        eax
  00408598: 6A 01              push        1
  0040859A: 6A 01              push        1
  0040859C: E8 BF 00 00 00     call        00408660
  004085A1: 83 C4 2C           add         esp,2Ch
  004085A4: 8B 56 14           mov         edx,dword ptr [esi+14h]
  004085A7: 6A 00              push        0
  004085A9: 6A 00              push        0
  004085AB: 6A 00              push        0
  004085AD: 6A 02              push        2
  004085AF: 6A 00              push        0
  004085B1: 6A 00              push        0
  004085B3: 6A 05              push        5
  004085B5: 6A 0A              push        0Ah
  004085B7: 52                 push        edx
  004085B8: 6A 01              push        1
  004085BA: 6A 00              push        0
  004085BC: E8 9F 00 00 00     call        00408660
  004085C1: 83 C4 2C           add         esp,2Ch
  004085C4: 8B 15 4C FF 40 00  mov         edx,dword ptr ds:[0040FF4Ch]
  004085CA: A1 5C FF 40 00     mov         eax,dword ptr ds:[0040FF5Ch]
  004085CF: 8B 4E 1C           mov         ecx,dword ptr [esi+1Ch]
  004085D2: 3B D0              cmp         edx,eax
  004085D4: 7D 18              jge         004085EE
  004085D6: 3B CA              cmp         ecx,edx
  004085D8: 7C 24              jl          004085FE
  004085DA: 3B C8              cmp         ecx,eax
  004085DC: 7F 20              jg          004085FE
  004085DE: 3B CA              cmp         ecx,edx
  004085E0: 7E 21              jle         00408603
  004085E2: 3B C8              cmp         ecx,eax
  004085E4: 7D 1D              jge         00408603
  004085E6: B8 01 00 00 00     mov         eax,1
  004085EB: 5F                 pop         edi
  004085EC: 5E                 pop         esi
  004085ED: C3                 ret
  004085EE: 3B C8              cmp         ecx,eax
  004085F0: 7C 5F              jl          00408651
  004085F2: 3B CA              cmp         ecx,edx
  004085F4: 7F 5B              jg          00408651
  004085F6: 3B C8              cmp         ecx,eax
  004085F8: 7E 09              jle         00408603
  004085FA: 3B CA              cmp         ecx,edx
  004085FC: 7D 05              jge         00408603
  004085FE: 33 C0              xor         eax,eax
  00408600: 5F                 pop         edi
  00408601: 5E                 pop         esi
  00408602: C3                 ret
  00408603: 8B 46 08           mov         eax,dword ptr [esi+8]
  00408606: 8B 7E 04           mov         edi,dword ptr [esi+4]
  00408609: 8B 36              mov         esi,dword ptr [esi]
  0040860B: 8D 04 40           lea         eax,[eax+eax*2]
  0040860E: 8D 04 80           lea         eax,[eax+eax*4]
  00408611: 8D 04 87           lea         eax,[edi+eax*4]
  00408614: 8D 04 40           lea         eax,[eax+eax*2]
  00408617: 8D 04 80           lea         eax,[eax+eax*4]
  0040861A: 8D 04 86           lea         eax,[esi+eax*4]
  0040861D: 8D 04 80           lea         eax,[eax+eax*4]
  00408620: 8D 04 80           lea         eax,[eax+eax*4]
  00408623: 8D 04 80           lea         eax,[eax+eax*4]
  00408626: C1 E0 03           shl         eax,3
  00408629: 3B CA              cmp         ecx,edx
  0040862B: 75 12              jne         0040863F
  0040862D: 8B 15 50 FF 40 00  mov         edx,dword ptr ds:[0040FF50h]
  00408633: 33 C9              xor         ecx,ecx
  00408635: 3B C2              cmp         eax,edx
  00408637: 0F 9D C1           setge       cl
  0040863A: 8B C1              mov         eax,ecx
  0040863C: 5F                 pop         edi
  0040863D: 5E                 pop         esi
  0040863E: C3                 ret
  0040863F: 8B 0D 60 FF 40 00  mov         ecx,dword ptr ds:[0040FF60h]
  00408645: 33 D2              xor         edx,edx
  00408647: 3B C1              cmp         eax,ecx
  00408649: 0F 9C C2           setl        dl
  0040864C: 8B C2              mov         eax,edx
  0040864E: 5F                 pop         edi
  0040864F: 5E                 pop         esi
  00408650: C3                 ret
  00408651: 5F                 pop         edi
  00408652: B8 01 00 00 00     mov         eax,1
  00408657: 5E                 pop         esi
  00408658: C3                 ret
  00408659: 90                 nop
  0040865A: 90                 nop
  0040865B: 90                 nop
  0040865C: 90                 nop
  0040865D: 90                 nop
  0040865E: 90                 nop
  0040865F: 90                 nop
  00408660: 8B 44 24 08        mov         eax,dword ptr [esp+8]
  00408664: 53                 push        ebx
  00408665: 8B 5C 24 10        mov         ebx,dword ptr [esp+10h]
  00408669: 55                 push        ebp
  0040866A: 56                 push        esi
  0040866B: 83 F8 01           cmp         eax,1
  0040866E: 57                 push        edi
  0040866F: 0F 85 A0 00 00 00  jne         00408715
  00408675: 8B C3              mov         eax,ebx
  00408677: 83 E0 03           and         eax,3
  0040867A: 89 44 24 1C        mov         dword ptr [esp+1Ch],eax
  0040867E: 75 13              jne         00408693
  00408680: 8B 44 24 20        mov         eax,dword ptr [esp+20h]
  00408684: 8D 3C 85 00 00 00  lea         edi,[eax*4+00000000h]
            00
  0040868B: 8B 87 64 FF 40 00  mov         eax,dword ptr [edi+0040FF64h]
  00408691: EB 11              jmp         004086A4
  00408693: 8B 4C 24 20        mov         ecx,dword ptr [esp+20h]
  00408697: 8D 3C 8D 00 00 00  lea         edi,[ecx*4+00000000h]
            00
  0040869E: 8B 87 9C FF 40 00  mov         eax,dword ptr [edi+0040FF9Ch]
  004086A4: 8D 14 DB           lea         edx,[ebx+ebx*8]
  004086A7: 8D 48 01           lea         ecx,[eax+1]
  004086AA: 8D 73 FF           lea         esi,[ebx-1]
  004086AD: 8D 04 D3           lea         eax,[ebx+edx*8]
  004086B0: 8B D0              mov         edx,eax
  004086B2: 03 D1              add         edx,ecx
  004086B4: C1 FE 02           sar         esi,2
  004086B7: 8D 04 82           lea         eax,[edx+eax*4]
  004086BA: 8D 84 06 25 9C FF  lea         eax,[esi+eax+FFFF9C25h]
            FF
  004086C1: BE 07 00 00 00     mov         esi,7
  004086C6: 99                 cdq
  004086C7: F7 FE              idiv        eax,esi
  004086C9: 8B 74 24 28        mov         esi,dword ptr [esp+28h]
  004086CD: 8B 44 24 24        mov         eax,dword ptr [esp+24h]
  004086D1: 8B E8              mov         ebp,eax
  004086D3: 3B D6              cmp         edx,esi
  004086D5: 7D 0F              jge         004086E6
  004086D7: C1 E5 03           shl         ebp,3
  004086DA: 2B E8              sub         ebp,eax
  004086DC: 2B EA              sub         ebp,edx
  004086DE: 03 EE              add         ebp,esi
  004086E0: 8D 4C 29 F9        lea         ecx,[ecx+ebp-7]
  004086E4: EB 0B              jmp         004086F1
  004086E6: C1 E5 03           shl         ebp,3
  004086E9: 2B E8              sub         ebp,eax
  004086EB: 2B EA              sub         ebp,edx
  004086ED: 03 EE              add         ebp,esi
  004086EF: 03 CD              add         ecx,ebp
  004086F1: 83 F8 05           cmp         eax,5
  004086F4: 75 40              jne         00408736
  004086F6: 8B 44 24 1C        mov         eax,dword ptr [esp+1Ch]
  004086FA: 85 C0              test        eax,eax
  004086FC: 75 08              jne         00408706
  004086FE: 8B BF 68 FF 40 00  mov         edi,dword ptr [edi+0040FF68h]
  00408704: EB 06              jmp         0040870C
  00408706: 8B BF A0 FF 40 00  mov         edi,dword ptr [edi+0040FFA0h]
  0040870C: 3B CF              cmp         ecx,edi
  0040870E: 7E 26              jle         00408736
  00408710: 83 E9 07           sub         ecx,7
  00408713: EB 21              jmp         00408736
  00408715: F6 C3 03           test        bl,3
  00408718: 75 0D              jne         00408727
  0040871A: 8B 4C 24 20        mov         ecx,dword ptr [esp+20h]
  0040871E: 8B 0C 8D 64 FF 40  mov         ecx,dword ptr [ecx*4+0040FF64h]
            00
  00408725: EB 0B              jmp         00408732
  00408727: 8B 54 24 20        mov         edx,dword ptr [esp+20h]
  0040872B: 8B 0C 95 9C FF 40  mov         ecx,dword ptr [edx*4+0040FF9Ch]
            00
  00408732: 03 4C 24 2C        add         ecx,dword ptr [esp+2Ch]
  00408736: 83 7C 24 14 01     cmp         dword ptr [esp+14h],1
  0040873B: 75 47              jne         00408784
  0040873D: 8B 44 24 30        mov         eax,dword ptr [esp+30h]
  00408741: 8B 54 24 34        mov         edx,dword ptr [esp+34h]
  00408745: 89 0D 4C FF 40 00  mov         dword ptr ds:[0040FF4Ch],ecx
  0040874B: 8B C8              mov         ecx,eax
  0040874D: C1 E1 04           shl         ecx,4
  00408750: 2B C8              sub         ecx,eax
  00408752: 89 1D 48 FF 40 00  mov         dword ptr ds:[0040FF48h],ebx
  00408758: 8D 04 8A           lea         eax,[edx+ecx*4]
  0040875B: 8B 54 24 38        mov         edx,dword ptr [esp+38h]
  0040875F: 8B C8              mov         ecx,eax
  00408761: C1 E1 04           shl         ecx,4
  00408764: 2B C8              sub         ecx,eax
  00408766: 8D 04 8A           lea         eax,[edx+ecx*4]
  00408769: 8B 4C 24 3C        mov         ecx,dword ptr [esp+3Ch]
  0040876D: 8D 04 80           lea         eax,[eax+eax*4]
  00408770: 8D 04 80           lea         eax,[eax+eax*4]
  00408773: 8D 04 80           lea         eax,[eax+eax*4]
  00408776: 8D 14 C1           lea         edx,[ecx+eax*8]
  00408779: 89 15 50 FF 40 00  mov         dword ptr ds:[0040FF50h],edx
  0040877F: 5F                 pop         edi
  00408780: 5E                 pop         esi
  00408781: 5D                 pop         ebp
  00408782: 5B                 pop         ebx
  00408783: C3                 ret
  00408784: 8B 44 24 30        mov         eax,dword ptr [esp+30h]
  00408788: 8B 54 24 34        mov         edx,dword ptr [esp+34h]
  0040878C: 89 0D 5C FF 40 00  mov         dword ptr ds:[0040FF5Ch],ecx
  00408792: 8B C8              mov         ecx,eax
  00408794: C1 E1 04           shl         ecx,4
  00408797: 2B C8              sub         ecx,eax
  00408799: 8D 04 8A           lea         eax,[edx+ecx*4]
  0040879C: 8B 54 24 38        mov         edx,dword ptr [esp+38h]
  004087A0: 8B C8              mov         ecx,eax
  004087A2: C1 E1 04           shl         ecx,4
  004087A5: 2B C8              sub         ecx,eax
  004087A7: 8D 04 8A           lea         eax,[edx+ecx*4]
  004087AA: 8B 15 B8 FE 40 00  mov         edx,dword ptr ds:[0040FEB8h]
  004087B0: 03 C2              add         eax,edx
  004087B2: 8B 4C 24 3C        mov         ecx,dword ptr [esp+3Ch]
  004087B6: 8D 04 80           lea         eax,[eax+eax*4]
  004087B9: 8D 04 80           lea         eax,[eax+eax*4]
  004087BC: 8D 04 80           lea         eax,[eax+eax*4]
  004087BF: 8D 04 C1           lea         eax,[ecx+eax*8]
  004087C2: 85 C0              test        eax,eax
  004087C4: A3 60 FF 40 00     mov         dword ptr ds:[0040FF60h],eax
  004087C9: 7D 15              jge         004087E0
  004087CB: 05 FF 5B 26 05     add         eax,5265BFFh
  004087D0: 89 1D 58 FF 40 00  mov         dword ptr ds:[0040FF58h],ebx
  004087D6: A3 60 FF 40 00     mov         dword ptr ds:[0040FF60h],eax
  004087DB: 5F                 pop         edi
  004087DC: 5E                 pop         esi
  004087DD: 5D                 pop         ebp
  004087DE: 5B                 pop         ebx
  004087DF: C3                 ret
  004087E0: 3D 00 5C 26 05     cmp         eax,5265C00h
  004087E5: 7C 0A              jl          004087F1
  004087E7: 2D FF 5B 26 05     sub         eax,5265BFFh
  004087EC: A3 60 FF 40 00     mov         dword ptr ds:[0040FF60h],eax
  004087F1: 5F                 pop         edi
  004087F2: 5E                 pop         esi
  004087F3: 89 1D 58 FF 40 00  mov         dword ptr ds:[0040FF58h],ebx
  004087F9: 5D                 pop         ebp
  004087FA: 5B                 pop         ebx
  004087FB: C3                 ret
  004087FC: 90                 nop
  004087FD: 90                 nop
  004087FE: 90                 nop
  004087FF: 90                 nop
  00408800: 51                 push        ecx
  00408801: A1 84 10 41 00     mov         eax,dword ptr ds:[00411084h]
  00408806: 53                 push        ebx
  00408807: 33 DB              xor         ebx,ebx
  00408809: 55                 push        ebp
  0040880A: 56                 push        esi
  0040880B: 8B 35 64 33 41 00  mov         esi,dword ptr ds:[00413364h]
  00408811: 3B C3              cmp         eax,ebx
  00408813: 57                 push        edi
  00408814: 75 42              jne         00408858
  00408816: 8D 44 24 10        lea         eax,[esp+10h]
  0040881A: 50                 push        eax
  0040881B: 6A 01              push        1
  0040881D: 68 E8 C3 40 00     push        40C3E8h
  00408822: 6A 01              push        1
  00408824: FF D6              call        esi
  00408826: 85 C0              test        eax,eax
  00408828: 74 07              je          00408831
  0040882A: B8 01 00 00 00     mov         eax,1
  0040882F: EB 22              jmp         00408853
  00408831: 8D 4C 24 10        lea         ecx,[esp+10h]
  00408835: 51                 push        ecx
  00408836: 6A 01              push        1
  00408838: 68 E4 C3 40 00     push        40C3E4h
  0040883D: 6A 01              push        1
  0040883F: 53                 push        ebx
  00408840: FF 15 68 33 41 00  call        dword ptr ds:[00413368h]
  00408846: 85 C0              test        eax,eax
  00408848: 0F 84 86 00 00 00  je          004088D4
  0040884E: B8 02 00 00 00     mov         eax,2
  00408853: A3 84 10 41 00     mov         dword ptr ds:[00411084h],eax
  00408858: 83 F8 01           cmp         eax,1
  0040885B: 75 1C              jne         00408879
  0040885D: 8B 54 24 24        mov         edx,dword ptr [esp+24h]
  00408861: 8B 44 24 20        mov         eax,dword ptr [esp+20h]
  00408865: 8B 4C 24 1C        mov         ecx,dword ptr [esp+1Ch]
  00408869: 52                 push        edx
  0040886A: 8B 54 24 1C        mov         edx,dword ptr [esp+1Ch]
  0040886E: 50                 push        eax
  0040886F: 51                 push        ecx
  00408870: 52                 push        edx
  00408871: FF D6              call        esi
  00408873: 5F                 pop         edi
  00408874: 5E                 pop         esi
  00408875: 5D                 pop         ebp
  00408876: 5B                 pop         ebx
  00408877: 59                 pop         ecx
  00408878: C3                 ret
  00408879: 83 F8 02           cmp         eax,2
  0040887C: 0F 85 FC 00 00 00  jne         0040897E
  00408882: 8B 44 24 28        mov         eax,dword ptr [esp+28h]
  00408886: 89 5C 24 10        mov         dword ptr [esp+10h],ebx
  0040888A: 3B C3              cmp         eax,ebx
  0040888C: 75 09              jne         00408897
  0040888E: A1 A8 10 41 00     mov         eax,dword ptr ds:[004110A8h]
  00408893: 89 44 24 28        mov         dword ptr [esp+28h],eax
  00408897: 8B 7C 24 20        mov         edi,dword ptr [esp+20h]
  0040889B: 8B 4C 24 1C        mov         ecx,dword ptr [esp+1Ch]
  0040889F: 8B 54 24 28        mov         edx,dword ptr [esp+28h]
  004088A3: 53                 push        ebx
  004088A4: 53                 push        ebx
  004088A5: 53                 push        ebx
  004088A6: 53                 push        ebx
  004088A7: 57                 push        edi
  004088A8: 51                 push        ecx
  004088A9: 68 20 02 00 00     push        220h
  004088AE: 52                 push        edx
  004088AF: FF 15 90 33 41 00  call        dword ptr ds:[00413390h]
  004088B5: 8B F0              mov         esi,eax
  004088B7: 3B F3              cmp         esi,ebx
  004088B9: 75 08              jne         004088C3
  004088BB: 33 C0              xor         eax,eax
  004088BD: 5F                 pop         edi
  004088BE: 5E                 pop         esi
  004088BF: 5D                 pop         ebp
  004088C0: 5B                 pop         ebx
  004088C1: 59                 pop         ecx
  004088C2: C3                 ret
  004088C3: 56                 push        esi
  004088C4: 6A 01              push        1
  004088C6: E8 75 B5 FF FF     call        00403E40
  004088CB: 8B E8              mov         ebp,eax
  004088CD: 83 C4 08           add         esp,8
  004088D0: 85 ED              test        ebp,ebp
  004088D2: 75 08              jne         004088DC
  004088D4: 33 C0              xor         eax,eax
  004088D6: 5F                 pop         edi
  004088D7: 5E                 pop         esi
  004088D8: 5D                 pop         ebp
  004088D9: 5B                 pop         ebx
  004088DA: 59                 pop         ecx
  004088DB: C3                 ret
  004088DC: 8B 44 24 1C        mov         eax,dword ptr [esp+1Ch]
  004088E0: 8B 4C 24 28        mov         ecx,dword ptr [esp+28h]
  004088E4: 6A 00              push        0
  004088E6: 6A 00              push        0
  004088E8: 56                 push        esi
  004088E9: 55                 push        ebp
  004088EA: 57                 push        edi
  004088EB: 50                 push        eax
  004088EC: 68 20 02 00 00     push        220h
  004088F1: 51                 push        ecx
  004088F2: FF 15 90 33 41 00  call        dword ptr ds:[00413390h]
  004088F8: 85 C0              test        eax,eax
  004088FA: 74 6C              je          00408968
  004088FC: 8D 54 36 02        lea         edx,[esi+esi+2]
  00408900: 52                 push        edx
  00408901: E8 5A B6 FF FF     call        00403F60
  00408906: 8B D8              mov         ebx,eax
  00408908: 83 C4 04           add         esp,4
  0040890B: 85 DB              test        ebx,ebx
  0040890D: 74 59              je          00408968
  0040890F: 8B 44 24 2C        mov         eax,dword ptr [esp+2Ch]
  00408913: 85 C0              test        eax,eax
  00408915: 75 05              jne         0040891C
  00408917: A1 98 10 41 00     mov         eax,dword ptr ds:[00411098h]
  0040891C: 8B 4C 24 18        mov         ecx,dword ptr [esp+18h]
  00408920: 53                 push        ebx
  00408921: 03 FF              add         edi,edi
  00408923: 56                 push        esi
  00408924: 55                 push        ebp
  00408925: 51                 push        ecx
  00408926: 66 C7 04 3B FF FF  mov         word ptr [ebx+edi],0FFFFh
  0040892C: 50                 push        eax
  0040892D: 66 C7 44 3B FE FF  mov         word ptr [ebx+edi-2],0FFFFh
            FF
  00408934: FF 15 68 33 41 00  call        dword ptr ds:[00413368h]
  0040893A: 66 81 7C 3B FE FF  cmp         word ptr [ebx+edi-2],0FFFFh
            FF
  00408941: 89 44 24 10        mov         dword ptr [esp+10h],eax
  00408945: 74 19              je          00408960
  00408947: 66 81 3C 3B FF FF  cmp         word ptr [ebx+edi],0FFFFh
  0040894D: 75 11              jne         00408960
  0040894F: 8B 54 24 24        mov         edx,dword ptr [esp+24h]
  00408953: 57                 push        edi
  00408954: 53                 push        ebx
  00408955: 52                 push        edx
  00408956: E8 15 BA FF FF     call        00404370
  0040895B: 83 C4 0C           add         esp,0Ch
  0040895E: EB 08              jmp         00408968
  00408960: C7 44 24 10 00 00  mov         dword ptr [esp+10h],0
            00 00
  00408968: 55                 push        ebp
  00408969: E8 82 B5 FF FF     call        00403EF0
  0040896E: 83 C4 04           add         esp,4
  00408971: 53                 push        ebx
  00408972: E8 79 B5 FF FF     call        00403EF0
  00408977: 8B 44 24 14        mov         eax,dword ptr [esp+14h]
  0040897B: 83 C4 04           add         esp,4
  0040897E: 5F                 pop         edi
  0040897F: 5E                 pop         esi
  00408980: 5D                 pop         ebp
  00408981: 5B                 pop         ebx
  00408982: 59                 pop         ecx
  00408983: C3                 ret
  00408984: 90                 nop
  00408985: 90                 nop
  00408986: 90                 nop
  00408987: 90                 nop
  00408988: 90                 nop
  00408989: 90                 nop
  0040898A: 90                 nop
  0040898B: 90                 nop
  0040898C: 90                 nop
  0040898D: 90                 nop
  0040898E: 90                 nop
  0040898F: 90                 nop
  00408990: 51                 push        ecx
  00408991: A1 88 10 41 00     mov         eax,dword ptr ds:[00411088h]
  00408996: 53                 push        ebx
  00408997: 55                 push        ebp
  00408998: 56                 push        esi
  00408999: 8B 35 68 33 41 00  mov         esi,dword ptr ds:[00413368h]
  0040899F: 57                 push        edi
  004089A0: 33 FF              xor         edi,edi
  004089A2: 3B C7              cmp         eax,edi
  004089A4: 75 23              jne         004089C9
  004089A6: 8D 44 24 12        lea         eax,[esp+12h]
  004089AA: 50                 push        eax
  004089AB: 6A 01              push        1
  004089AD: 68 E4 C3 40 00     push        40C3E4h
  004089B2: 6A 01              push        1
  004089B4: 57                 push        edi
  004089B5: FF D6              call        esi
  004089B7: 85 C0              test        eax,eax
  004089B9: 0F 84 CF 00 00 00  je          00408A8E
  004089BF: B8 02 00 00 00     mov         eax,2
  004089C4: A3 88 10 41 00     mov         dword ptr ds:[00411088h],eax
  004089C9: 83 F8 02           cmp         eax,2
  004089CC: 75 2A              jne         004089F8
  004089CE: 8B 44 24 2C        mov         eax,dword ptr [esp+2Ch]
  004089D2: 3B C7              cmp         eax,edi
  004089D4: 75 05              jne         004089DB
  004089D6: A1 98 10 41 00     mov         eax,dword ptr ds:[00411098h]
  004089DB: 8B 54 24 24        mov         edx,dword ptr [esp+24h]
  004089DF: 8B 4C 24 20        mov         ecx,dword ptr [esp+20h]
  004089E3: 52                 push        edx
  004089E4: 8B 54 24 20        mov         edx,dword ptr [esp+20h]
  004089E8: 51                 push        ecx
  004089E9: 8B 4C 24 20        mov         ecx,dword ptr [esp+20h]
  004089ED: 52                 push        edx
  004089EE: 51                 push        ecx
  004089EF: 50                 push        eax
  004089F0: FF D6              call        esi
  004089F2: 5F                 pop         edi
  004089F3: 5E                 pop         esi
  004089F4: 5D                 pop         ebp
  004089F5: 5B                 pop         ebx
  004089F6: 59                 pop         ecx
  004089F7: C3                 ret
  004089F8: 83 F8 01           cmp         eax,1
  004089FB: 0F 85 87 00 00 00  jne         00408A88
  00408A01: 8B 5C 24 28        mov         ebx,dword ptr [esp+28h]
  00408A05: 89 7C 24 2C        mov         dword ptr [esp+2Ch],edi
  00408A09: 3B DF              cmp         ebx,edi
  00408A0B: 75 06              jne         00408A13
  00408A0D: 8B 1D A8 10 41 00  mov         ebx,dword ptr ds:[004110A8h]
  00408A13: 8B 6C 24 20        mov         ebp,dword ptr [esp+20h]
  00408A17: 8B 54 24 1C        mov         edx,dword ptr [esp+1Ch]
  00408A1B: 57                 push        edi
  00408A1C: 57                 push        edi
  00408A1D: 55                 push        ebp
  00408A1E: 52                 push        edx
  00408A1F: 6A 09              push        9
  00408A21: 53                 push        ebx
  00408A22: FF 15 A0 33 41 00  call        dword ptr ds:[004133A0h]
  00408A28: 8B F0              mov         esi,eax
  00408A2A: 85 F6              test        esi,esi
  00408A2C: 74 4B              je          00408A79
  00408A2E: 56                 push        esi
  00408A2F: 6A 02              push        2
  00408A31: E8 0A B4 FF FF     call        00403E40
  00408A36: 8B F8              mov         edi,eax
  00408A38: 83 C4 08           add         esp,8
  00408A3B: 85 FF              test        edi,edi
  00408A3D: 74 3A              je          00408A79
  00408A3F: 8B 44 24 1C        mov         eax,dword ptr [esp+1Ch]
  00408A43: 56                 push        esi
  00408A44: 57                 push        edi
  00408A45: 55                 push        ebp
  00408A46: 50                 push        eax
  00408A47: 6A 01              push        1
  00408A49: 53                 push        ebx
  00408A4A: FF 15 A0 33 41 00  call        dword ptr ds:[004133A0h]
  00408A50: 85 C0              test        eax,eax
  00408A52: 74 25              je          00408A79
  00408A54: 8B 4C 24 24        mov         ecx,dword ptr [esp+24h]
  00408A58: 8B 54 24 18        mov         edx,dword ptr [esp+18h]
  00408A5C: 51                 push        ecx
  00408A5D: 50                 push        eax
  00408A5E: 57                 push        edi
  00408A5F: 52                 push        edx
  00408A60: FF 15 64 33 41 00  call        dword ptr ds:[00413364h]
  00408A66: 57                 push        edi
  00408A67: 8B F0              mov         esi,eax
  00408A69: E8 82 B4 FF FF     call        00403EF0
  00408A6E: 83 C4 04           add         esp,4
  00408A71: 8B C6              mov         eax,esi
  00408A73: 5F                 pop         edi
  00408A74: 5E                 pop         esi
  00408A75: 5D                 pop         ebp
  00408A76: 5B                 pop         ebx
  00408A77: 59                 pop         ecx
  00408A78: C3                 ret
  00408A79: 8B 74 24 2C        mov         esi,dword ptr [esp+2Ch]
  00408A7D: 57                 push        edi
  00408A7E: E8 6D B4 FF FF     call        00403EF0
  00408A83: 83 C4 04           add         esp,4
  00408A86: 8B C6              mov         eax,esi
  00408A88: 5F                 pop         edi
  00408A89: 5E                 pop         esi
  00408A8A: 5D                 pop         ebp
  00408A8B: 5B                 pop         ebx
  00408A8C: 59                 pop         ecx
  00408A8D: C3                 ret
  00408A8E: 8D 4C 24 12        lea         ecx,[esp+12h]
  00408A92: 51                 push        ecx
  00408A93: 6A 01              push        1
  00408A95: 68 E8 C3 40 00     push        40C3E8h
  00408A9A: 6A 01              push        1
  00408A9C: FF 15 64 33 41 00  call        dword ptr ds:[00413364h]
  00408AA2: 85 C0              test        eax,eax
  00408AA4: 74 0F              je          00408AB5
  00408AA6: B8 01 00 00 00     mov         eax,1
  00408AAB: A3 88 10 41 00     mov         dword ptr ds:[00411088h],eax
  00408AB0: E9 14 FF FF FF     jmp         004089C9
  00408AB5: 5F                 pop         edi
  00408AB6: 5E                 pop         esi
  00408AB7: 5D                 pop         ebp
  00408AB8: 33 C0              xor         eax,eax
  00408ABA: 5B                 pop         ebx
  00408ABB: 59                 pop         ecx
  00408ABC: C3                 ret
  00408ABD: 90                 nop
  00408ABE: 90                 nop
  00408ABF: 90                 nop
  00408AC0: 8B 4C 24 04        mov         ecx,dword ptr [esp+4]
  00408AC4: 66 83 39 00        cmp         word ptr [ecx],0
  00408AC8: 8D 41 02           lea         eax,[ecx+2]
  00408ACB: 74 0B              je          00408AD8
  00408ACD: 66 8B 10           mov         dx,word ptr [eax]
  00408AD0: 83 C0 02           add         eax,2
  00408AD3: 66 85 D2           test        dx,dx
  00408AD6: 75 F5              jne         00408ACD
  00408AD8: 2B C1              sub         eax,ecx
  00408ADA: D1 F8              sar         eax,1
  00408ADC: 48                 dec         eax
  00408ADD: C3                 ret
  00408ADE: 90                 nop
  00408ADF: 90                 nop
  00408AE0: A1 AC 10 41 00     mov         eax,dword ptr ds:[004110ACh]
  00408AE5: 53                 push        ebx
  00408AE6: 33 DB              xor         ebx,ebx
  00408AE8: 56                 push        esi
  00408AE9: 85 C0              test        eax,eax
  00408AEB: 57                 push        edi
  00408AEC: 75 42              jne         00408B30
  00408AEE: 68 1C C4 40 00     push        40C41Ch
  00408AF3: FF 15 14 34 41 00  call        dword ptr ds:[00413414h]
  00408AF9: 8B F0              mov         esi,eax
  00408AFB: 85 F6              test        esi,esi
  00408AFD: 74 6A              je          00408B69
  00408AFF: 8B 3D 60 33 41 00  mov         edi,dword ptr ds:[00413360h]
  00408B05: 68 10 C4 40 00     push        40C410h
  00408B0A: 56                 push        esi
  00408B0B: FF D7              call        edi
  00408B0D: 85 C0              test        eax,eax
  00408B0F: A3 AC 10 41 00     mov         dword ptr ds:[004110ACh],eax
  00408B14: 74 53              je          00408B69
  00408B16: 68 00 C4 40 00     push        40C400h
  00408B1B: 56                 push        esi
  00408B1C: FF D7              call        edi
  00408B1E: 68 EC C3 40 00     push        40C3ECh
  00408B23: 56                 push        esi
  00408B24: A3 B0 10 41 00     mov         dword ptr ds:[004110B0h],eax
  00408B29: FF D7              call        edi
  00408B2B: A3 B4 10 41 00     mov         dword ptr ds:[004110B4h],eax
  00408B30: A1 B0 10 41 00     mov         eax,dword ptr ds:[004110B0h]
  00408B35: 85 C0              test        eax,eax
  00408B37: 74 04              je          00408B3D
  00408B39: FF D0              call        eax
  00408B3B: 8B D8              mov         ebx,eax
  00408B3D: 85 DB              test        ebx,ebx
  00408B3F: 74 0E              je          00408B4F
  00408B41: A1 B4 10 41 00     mov         eax,dword ptr ds:[004110B4h]
  00408B46: 85 C0              test        eax,eax
  00408B48: 74 05              je          00408B4F
  00408B4A: 53                 push        ebx
  00408B4B: FF D0              call        eax
  00408B4D: 8B D8              mov         ebx,eax
  00408B4F: 8B 44 24 18        mov         eax,dword ptr [esp+18h]
  00408B53: 8B 4C 24 14        mov         ecx,dword ptr [esp+14h]
  00408B57: 8B 54 24 10        mov         edx,dword ptr [esp+10h]
  00408B5B: 50                 push        eax
  00408B5C: 51                 push        ecx
  00408B5D: 52                 push        edx
  00408B5E: 53                 push        ebx
  00408B5F: FF 15 AC 10 41 00  call        dword ptr ds:[004110ACh]
  00408B65: 5F                 pop         edi
  00408B66: 5E                 pop         esi
  00408B67: 5B                 pop         ebx
  00408B68: C3                 ret
  00408B69: 5F                 pop         edi
  00408B6A: 5E                 pop         esi
  00408B6B: 33 C0              xor         eax,eax
  00408B6D: 5B                 pop         ebx
  00408B6E: C3                 ret
  00408B6F: 90                 nop
  00408B70: 8B 4C 24 04        mov         ecx,dword ptr [esp+4]
  00408B74: A1 60 12 41 00     mov         eax,dword ptr ds:[00411260h]
  00408B79: 53                 push        ebx
  00408B7A: 56                 push        esi
  00408B7B: 3B C8              cmp         ecx,eax
  00408B7D: 57                 push        edi
  00408B7E: 73 66              jae         00408BE6
  00408B80: 8B C1              mov         eax,ecx
  00408B82: C1 F8 05           sar         eax,5
  00408B85: 8D 3C 85 60 11 41  lea         edi,[eax*4+00411160h]
            00
  00408B8C: 8B C1              mov         eax,ecx
  00408B8E: 83 E0 1F           and         eax,1Fh
  00408B91: 8B 17              mov         edx,dword ptr [edi]
  00408B93: 8D 34 C0           lea         esi,[eax+eax*8]
  00408B96: C1 E6 02           shl         esi,2
  00408B99: 8A 5C 32 04        mov         bl,byte ptr [edx+esi+4]
  00408B9D: 8D 04 32           lea         eax,[edx+esi]
  00408BA0: BA 01 00 00 00     mov         edx,1
  00408BA5: 84 DA              test        dl,bl
  00408BA7: 74 3D              je          00408BE6
  00408BA9: 83 38 FF           cmp         dword ptr [eax],0FFFFFFFFh
  00408BAC: 74 38              je          00408BE6
  00408BAE: 39 15 44 D5 40 00  cmp         dword ptr ds:[0040D544h],edx
  00408BB4: 75 21              jne         00408BD7
  00408BB6: 83 E9 00           sub         ecx,0
  00408BB9: 74 12              je          00408BCD
  00408BBB: 49                 dec         ecx
  00408BBC: 74 09              je          00408BC7
  00408BBE: 49                 dec         ecx
  00408BBF: 75 16              jne         00408BD7
  00408BC1: 6A 00              push        0
  00408BC3: 6A F4              push        0FFFFFFF4h
  00408BC5: EB 0A              jmp         00408BD1
  00408BC7: 6A 00              push        0
  00408BC9: 6A F5              push        0FFFFFFF5h
  00408BCB: EB 04              jmp         00408BD1
  00408BCD: 6A 00              push        0
  00408BCF: 6A F6              push        0FFFFFFF6h
  00408BD1: FF 15 5C 33 41 00  call        dword ptr ds:[0041335Ch]
  00408BD7: 8B 07              mov         eax,dword ptr [edi]
  00408BD9: C7 04 30 FF FF FF  mov         dword ptr [eax+esi],0FFFFFFFFh
            FF
  00408BE0: 33 C0              xor         eax,eax
  00408BE2: 5F                 pop         edi
  00408BE3: 5E                 pop         esi
  00408BE4: 5B                 pop         ebx
  00408BE5: C3                 ret
  00408BE6: E8 D5 D7 FF FF     call        004063C0
  00408BEB: C7 00 09 00 00 00  mov         dword ptr [eax],9
  00408BF1: E8 DA D7 FF FF     call        004063D0
  00408BF6: 5F                 pop         edi
  00408BF7: C7 00 00 00 00 00  mov         dword ptr [eax],0
  00408BFD: 5E                 pop         esi
  00408BFE: 83 C8 FF           or          eax,0FFFFFFFFh
  00408C01: 5B                 pop         ebx
  00408C02: C3                 ret
  00408C03: 90                 nop
  00408C04: 90                 nop
  00408C05: 90                 nop
  00408C06: 90                 nop
  00408C07: 90                 nop
  00408C08: 90                 nop
  00408C09: 90                 nop
  00408C0A: 90                 nop
  00408C0B: 90                 nop
  00408C0C: 90                 nop
  00408C0D: 90                 nop
  00408C0E: 90                 nop
  00408C0F: 90                 nop
  00408C10: 8B 44 24 04        mov         eax,dword ptr [esp+4]
  00408C14: 8B 0D 60 12 41 00  mov         ecx,dword ptr ds:[00411260h]
  00408C1A: 3B C1              cmp         eax,ecx
  00408C1C: 73 21              jae         00408C3F
  00408C1E: 8B C8              mov         ecx,eax
  00408C20: 83 E0 1F           and         eax,1Fh
  00408C23: C1 F9 05           sar         ecx,5
  00408C26: 8D 14 C0           lea         edx,[eax+eax*8]
  00408C29: 8B 04 8D 60 11 41  mov         eax,dword ptr [ecx*4+00411160h]
            00
  00408C30: 8A 4C 90 04        mov         cl,byte ptr [eax+edx*4+4]
  00408C34: 8D 04 90           lea         eax,[eax+edx*4]
  00408C37: F6 C1 01           test        cl,1
  00408C3A: 74 03              je          00408C3F
  00408C3C: 8B 00              mov         eax,dword ptr [eax]
  00408C3E: C3                 ret
  00408C3F: E8 7C D7 FF FF     call        004063C0
  00408C44: C7 00 09 00 00 00  mov         dword ptr [eax],9
  00408C4A: E8 81 D7 FF FF     call        004063D0
  00408C4F: C7 00 00 00 00 00  mov         dword ptr [eax],0
  00408C55: 83 C8 FF           or          eax,0FFFFFFFFh
  00408C58: C3                 ret
  00408C59: 90                 nop
  00408C5A: 90                 nop
  00408C5B: 90                 nop
  00408C5C: 90                 nop
  00408C5D: 90                 nop
  00408C5E: 90                 nop
  00408C5F: 90                 nop
  00408C60: 8B 44 24 04        mov         eax,dword ptr [esp+4]
  00408C64: 53                 push        ebx
  00408C65: 8B C8              mov         ecx,eax
  00408C67: 83 E0 1F           and         eax,1Fh
  00408C6A: C1 F9 05           sar         ecx,5
  00408C6D: 56                 push        esi
  00408C6E: 57                 push        edi
  00408C6F: 8B 34 8D 60 11 41  mov         esi,dword ptr [ecx*4+00411160h]
            00
  00408C76: 8D 1C 8D 60 11 41  lea         ebx,[ecx*4+00411160h]
            00
  00408C7D: 8D 3C C0           lea         edi,[eax+eax*8]
  00408C80: C1 E7 02           shl         edi,2
  00408C83: 03 F7              add         esi,edi
  00408C85: 8B 46 08           mov         eax,dword ptr [esi+8]
  00408C88: 85 C0              test        eax,eax
  00408C8A: 75 28              jne         00408CB4
  00408C8C: 6A 11              push        11h
  00408C8E: E8 5D CC FF FF     call        004058F0
  00408C93: 8B 46 08           mov         eax,dword ptr [esi+8]
  00408C96: 83 C4 04           add         esp,4
  00408C99: 85 C0              test        eax,eax
  00408C9B: 75 0D              jne         00408CAA
  00408C9D: 8D 56 0C           lea         edx,[esi+0Ch]
  00408CA0: 52                 push        edx
  00408CA1: FF 15 1C 34 41 00  call        dword ptr ds:[0041341Ch]
  00408CA7: FF 46 08           inc         dword ptr [esi+8]
  00408CAA: 6A 11              push        11h
  00408CAC: E8 BF CC FF FF     call        00405970
  00408CB1: 83 C4 04           add         esp,4
  00408CB4: 8B 03              mov         eax,dword ptr [ebx]
  00408CB6: 8D 4C 38 0C        lea         ecx,[eax+edi+0Ch]
  00408CBA: 51                 push        ecx
  00408CBB: FF 15 28 34 41 00  call        dword ptr ds:[00413428h]
  00408CC1: 5F                 pop         edi
  00408CC2: 5E                 pop         esi
  00408CC3: 5B                 pop         ebx
  00408CC4: C3                 ret
  00408CC5: 90                 nop
  00408CC6: 90                 nop
  00408CC7: 90                 nop
  00408CC8: 90                 nop
  00408CC9: 90                 nop
  00408CCA: 90                 nop
  00408CCB: 90                 nop
  00408CCC: 90                 nop
  00408CCD: 90                 nop
  00408CCE: 90                 nop
  00408CCF: 90                 nop
  00408CD0: 8B 44 24 04        mov         eax,dword ptr [esp+4]
  00408CD4: 8B C8              mov         ecx,eax
  00408CD6: 83 E0 1F           and         eax,1Fh
  00408CD9: C1 F9 05           sar         ecx,5
  00408CDC: 8D 14 C0           lea         edx,[eax+eax*8]
  00408CDF: 8B 04 8D 60 11 41  mov         eax,dword ptr [ecx*4+00411160h]
            00
  00408CE6: 8D 4C 90 0C        lea         ecx,[eax+edx*4+0Ch]
  00408CEA: 51                 push        ecx
  00408CEB: FF 15 34 33 41 00  call        dword ptr ds:[00413334h]
  00408CF1: C3                 ret
  00408CF2: 90                 nop
  00408CF3: 90                 nop
  00408CF4: 90                 nop
  00408CF5: 90                 nop
  00408CF6: 90                 nop
  00408CF7: 90                 nop
  00408CF8: 90                 nop
  00408CF9: 90                 nop
  00408CFA: 90                 nop
  00408CFB: 90                 nop
  00408CFC: 90                 nop
  00408CFD: 90                 nop
  00408CFE: 90                 nop
  00408CFF: 90                 nop
  00408D00: 6A 02              push        2
  00408D02: E8 39 BF FF FF     call        00404C40
  00408D07: 83 C4 04           add         esp,4
  00408D0A: C3                 ret
  00408D0B: 90                 nop
  00408D0C: 90                 nop
  00408D0D: 90                 nop
  00408D0E: 90                 nop
  00408D0F: 90                 nop
  00408D10: A1 60 12 41 00     mov         eax,dword ptr ds:[00411260h]
  00408D15: 55                 push        ebp
  00408D16: 56                 push        esi
  00408D17: 57                 push        edi
  00408D18: 8B 7C 24 10        mov         edi,dword ptr [esp+10h]
  00408D1C: 3B F8              cmp         edi,eax
  00408D1E: 73 7C              jae         00408D9C
  00408D20: 8B C7              mov         eax,edi
  00408D22: C1 F8 05           sar         eax,5
  00408D25: 8D 2C 85 60 11 41  lea         ebp,[eax*4+00411160h]
            00
  00408D2C: 8B C7              mov         eax,edi
  00408D2E: 83 E0 1F           and         eax,1Fh
  00408D31: 8B 4D 00           mov         ecx,dword ptr [ebp]
  00408D34: 8D 34 C0           lea         esi,[eax+eax*8]
  00408D37: C1 E6 02           shl         esi,2
  00408D3A: F6 44 31 04 01     test        byte ptr [ecx+esi+4],1
  00408D3F: 74 5B              je          00408D9C
  00408D41: 57                 push        edi
  00408D42: E8 19 FF FF FF     call        00408C60
  00408D47: 8B 55 00           mov         edx,dword ptr [ebp]
  00408D4A: 83 C4 04           add         esp,4
  00408D4D: F6 44 32 04 01     test        byte ptr [edx+esi+4],1
  00408D52: 74 2B              je          00408D7F
  00408D54: 57                 push        edi
  00408D55: E8 B6 FE FF FF     call        00408C10
  00408D5A: 83 C4 04           add         esp,4
  00408D5D: 50                 push        eax
  00408D5E: FF 15 58 33 41 00  call        dword ptr ds:[00413358h]
  00408D64: 85 C0              test        eax,eax
  00408D66: 75 0A              jne         00408D72
  00408D68: FF 15 3C 34 41 00  call        dword ptr ds:[0041343Ch]
  00408D6E: 8B F0              mov         esi,eax
  00408D70: EB 02              jmp         00408D74
  00408D72: 33 F6              xor         esi,esi
  00408D74: 85 F6              test        esi,esi
  00408D76: 74 15              je          00408D8D
  00408D78: E8 53 D6 FF FF     call        004063D0
  00408D7D: 89 30              mov         dword ptr [eax],esi
  00408D7F: E8 3C D6 FF FF     call        004063C0
  00408D84: C7 00 09 00 00 00  mov         dword ptr [eax],9
  00408D8A: 83 CE FF           or          esi,0FFFFFFFFh
  00408D8D: 57                 push        edi
  00408D8E: E8 3D FF FF FF     call        00408CD0
  00408D93: 83 C4 04           add         esp,4
  00408D96: 8B C6              mov         eax,esi
  00408D98: 5F                 pop         edi
  00408D99: 5E                 pop         esi
  00408D9A: 5D                 pop         ebp
  00408D9B: C3                 ret
  00408D9C: E8 1F D6 FF FF     call        004063C0
  00408DA1: 5F                 pop         edi
  00408DA2: C7 00 09 00 00 00  mov         dword ptr [eax],9
  00408DA8: 5E                 pop         esi
  00408DA9: 83 C8 FF           or          eax,0FFFFFFFFh
  00408DAC: 5D                 pop         ebp
  00408DAD: C3                 ret
  00408DAE: 90                 nop
  00408DAF: 90                 nop
  00408DB0: 56                 push        esi
  00408DB1: 8B 74 24 08        mov         esi,dword ptr [esp+8]
  00408DB5: 57                 push        edi
  00408DB6: 83 CF FF           or          edi,0FFFFFFFFh
  00408DB9: F6 46 0C 40        test        byte ptr [esi+0Ch],40h
  00408DBD: 74 0C              je          00408DCB
  00408DBF: C7 46 0C 00 00 00  mov         dword ptr [esi+0Ch],0
            00
  00408DC6: 8B C7              mov         eax,edi
  00408DC8: 5F                 pop         edi
  00408DC9: 5E                 pop         esi
  00408DCA: C3                 ret
  00408DCB: 56                 push        esi
  00408DCC: E8 BF CB FF FF     call        00405990
  00408DD1: 83 C4 04           add         esp,4
  00408DD4: 56                 push        esi
  00408DD5: E8 16 00 00 00     call        00408DF0
  00408DDA: 83 C4 04           add         esp,4
  00408DDD: 8B F8              mov         edi,eax
  00408DDF: 56                 push        esi
  00408DE0: E8 1B CC FF FF     call        00405A00
  00408DE5: 83 C4 04           add         esp,4
  00408DE8: 8B C7              mov         eax,edi
  00408DEA: 5F                 pop         edi
  00408DEB: 5E                 pop         esi
  00408DEC: C3                 ret
  00408DED: 90                 nop
  00408DEE: 90                 nop
  00408DEF: 90                 nop
  00408DF0: 56                 push        esi
  00408DF1: 8B 74 24 08        mov         esi,dword ptr [esp+8]
  00408DF5: 57                 push        edi
  00408DF6: 83 CF FF           or          edi,0FFFFFFFFh
  00408DF9: F6 46 0C 83        test        byte ptr [esi+0Ch],83h
  00408DFD: 74 4A              je          00408E49
  00408DFF: 56                 push        esi
  00408E00: E8 BB F0 FF FF     call        00407EC0
  00408E05: 83 C4 04           add         esp,4
  00408E08: 8B F8              mov         edi,eax
  00408E0A: 56                 push        esi
  00408E0B: E8 40 14 00 00     call        0040A250
  00408E10: 8B 46 10           mov         eax,dword ptr [esi+10h]
  00408E13: 83 C4 04           add         esp,4
  00408E16: 50                 push        eax
  00408E17: E8 34 13 00 00     call        0040A150
  00408E1C: 83 C4 04           add         esp,4
  00408E1F: 85 C0              test        eax,eax
  00408E21: 7D 0F              jge         00408E32
  00408E23: 83 CF FF           or          edi,0FFFFFFFFh
  00408E26: C7 46 0C 00 00 00  mov         dword ptr [esi+0Ch],0
            00
  00408E2D: 8B C7              mov         eax,edi
  00408E2F: 5F                 pop         edi
  00408E30: 5E                 pop         esi
  00408E31: C3                 ret
  00408E32: 8B 46 1C           mov         eax,dword ptr [esi+1Ch]
  00408E35: 85 C0              test        eax,eax
  00408E37: 74 10              je          00408E49
  00408E39: 50                 push        eax
  00408E3A: E8 B1 B0 FF FF     call        00403EF0
  00408E3F: 83 C4 04           add         esp,4
  00408E42: C7 46 1C 00 00 00  mov         dword ptr [esi+1Ch],0
            00
  00408E49: 8B C7              mov         eax,edi
  00408E4B: C7 46 0C 00 00 00  mov         dword ptr [esi+0Ch],0
            00
  00408E52: 5F                 pop         edi
  00408E53: 5E                 pop         esi
  00408E54: C3                 ret
  00408E55: 90                 nop
  00408E56: 90                 nop
  00408E57: 90                 nop
  00408E58: 90                 nop
  00408E59: 90                 nop
  00408E5A: 90                 nop
  00408E5B: 90                 nop
  00408E5C: 90                 nop
  00408E5D: 90                 nop
  00408E5E: 90                 nop
  00408E5F: 90                 nop
  00408E60: 53                 push        ebx
  00408E61: 56                 push        esi
  00408E62: 57                 push        edi
  00408E63: 68 48 11 41 00     push        411148h
  00408E68: FF 15 6C 33 41 00  call        dword ptr ds:[0041336Ch]
  00408E6E: A1 44 11 41 00     mov         eax,dword ptr ds:[00411144h]
  00408E73: 8B 3D 70 33 41 00  mov         edi,dword ptr ds:[00413370h]
  00408E79: 85 C0              test        eax,eax
  00408E7B: 74 18              je          00408E95
  00408E7D: 68 48 11 41 00     push        411148h
  00408E82: FF D7              call        edi
  00408E84: 6A 13              push        13h
  00408E86: E8 65 CA FF FF     call        004058F0
  00408E8B: 83 C4 04           add         esp,4
  00408E8E: BE 01 00 00 00     mov         esi,1
  00408E93: EB 02              jmp         00408E97
  00408E95: 33 F6              xor         esi,esi
  00408E97: 8B 44 24 18        mov         eax,dword ptr [esp+18h]
  00408E9B: 8B 4C 24 14        mov         ecx,dword ptr [esp+14h]
  00408E9F: 8B 54 24 10        mov         edx,dword ptr [esp+10h]
  00408EA3: 50                 push        eax
  00408EA4: 51                 push        ecx
  00408EA5: 52                 push        edx
  00408EA6: E8 35 00 00 00     call        00408EE0
  00408EAB: 83 C4 0C           add         esp,0Ch
  00408EAE: 8B D8              mov         ebx,eax
  00408EB0: 85 F6              test        esi,esi
  00408EB2: 74 10              je          00408EC4
  00408EB4: 6A 13              push        13h
  00408EB6: E8 B5 CA FF FF     call        00405970
  00408EBB: 83 C4 04           add         esp,4
  00408EBE: 8B C3              mov         eax,ebx
  00408EC0: 5F                 pop         edi
  00408EC1: 5E                 pop         esi
  00408EC2: 5B                 pop         ebx
  00408EC3: C3                 ret
  00408EC4: 68 48 11 41 00     push        411148h
  00408EC9: FF D7              call        edi
  00408ECB: 5F                 pop         edi
  00408ECC: 8B C3              mov         eax,ebx
  00408ECE: 5E                 pop         esi
  00408ECF: 5B                 pop         ebx
  00408ED0: C3                 ret
  00408ED1: 90                 nop
  00408ED2: 90                 nop
  00408ED3: 90                 nop
  00408ED4: 90                 nop
  00408ED5: 90                 nop
  00408ED6: 90                 nop
  00408ED7: 90                 nop
  00408ED8: 90                 nop
  00408ED9: 90                 nop
  00408EDA: 90                 nop
  00408EDB: 90                 nop
  00408EDC: 90                 nop
  00408EDD: 90                 nop
  00408EDE: 90                 nop
  00408EDF: 90                 nop
  00408EE0: 51                 push        ecx
  00408EE1: 53                 push        ebx
  00408EE2: 55                 push        ebp
  00408EE3: 8B 6C 24 18        mov         ebp,dword ptr [esp+18h]
  00408EE7: 56                 push        esi
  00408EE8: 57                 push        edi
  00408EE9: 8B 7C 24 18        mov         edi,dword ptr [esp+18h]
  00408EED: 33 C0              xor         eax,eax
  00408EEF: 85 FF              test        edi,edi
  00408EF1: 89 44 24 10        mov         dword ptr [esp+10h],eax
  00408EF5: 74 0A              je          00408F01
  00408EF7: 85 ED              test        ebp,ebp
  00408EF9: 75 06              jne         00408F01
  00408EFB: 5F                 pop         edi
  00408EFC: 5E                 pop         esi
  00408EFD: 5D                 pop         ebp
  00408EFE: 5B                 pop         ebx
  00408EFF: 59                 pop         ecx
  00408F00: C3                 ret
  00408F01: 85 FF              test        edi,edi
  00408F03: 0F 84 5B 01 00 00  je          00409064
  00408F09: 8B 0D 98 10 41 00  mov         ecx,dword ptr ds:[00411098h]
  00408F0F: 85 C9              test        ecx,ecx
  00408F11: 75 37              jne         00408F4A
  00408F13: 85 ED              test        ebp,ebp
  00408F15: 0F 86 A9 01 00 00  jbe         004090C4
  00408F1B: 8B 4C 24 1C        mov         ecx,dword ptr [esp+1Ch]
  00408F1F: 66 81 39 FF 00     cmp         word ptr [ecx],0FFh
  00408F24: 0F 87 8C 01 00 00  ja          004090B6
  00408F2A: 8A 11              mov         dl,byte ptr [ecx]
  00408F2C: 83 C1 02           add         ecx,2
  00408F2F: 88 14 38           mov         byte ptr [eax+edi],dl
  00408F32: 66 8B 51 FE        mov         dx,word ptr [ecx-2]
  00408F36: 66 85 D2           test        dx,dx
  00408F39: 0F 84 85 01 00 00  je          004090C4
  00408F3F: 40                 inc         eax
  00408F40: 3B C5              cmp         eax,ebp
  00408F42: 72 DB              jb          00408F1F
  00408F44: 5F                 pop         edi
  00408F45: 5E                 pop         esi
  00408F46: 5D                 pop         ebp
  00408F47: 5B                 pop         ebx
  00408F48: 59                 pop         ecx
  00408F49: C3                 ret
  00408F4A: 83 3D CC FC 40 00  cmp         dword ptr ds:[0040FCCCh],1
            01
  00408F51: 75 58              jne         00408FAB
  00408F53: 8B 74 24 1C        mov         esi,dword ptr [esp+1Ch]
  00408F57: 85 ED              test        ebp,ebp
  00408F59: 76 0C              jbe         00408F67
  00408F5B: 55                 push        ebp
  00408F5C: 56                 push        esi
  00408F5D: E8 6E 01 00 00     call        004090D0
  00408F62: 83 C4 08           add         esp,8
  00408F65: 8B E8              mov         ebp,eax
  00408F67: 8B 0D A8 10 41 00  mov         ecx,dword ptr ds:[004110A8h]
  00408F6D: 8D 44 24 10        lea         eax,[esp+10h]
  00408F71: 50                 push        eax
  00408F72: 6A 00              push        0
  00408F74: 55                 push        ebp
  00408F75: 57                 push        edi
  00408F76: 55                 push        ebp
  00408F77: 56                 push        esi
  00408F78: 68 20 02 00 00     push        220h
  00408F7D: 51                 push        ecx
  00408F7E: FF 15 90 33 41 00  call        dword ptr ds:[00413390h]
  00408F84: 85 C0              test        eax,eax
  00408F86: 0F 84 2A 01 00 00  je          004090B6
  00408F8C: 8B 4C 24 10        mov         ecx,dword ptr [esp+10h]
  00408F90: 85 C9              test        ecx,ecx
  00408F92: 0F 85 1E 01 00 00  jne         004090B6
  00408F98: 8A 4C 38 FF        mov         cl,byte ptr [eax+edi-1]
  00408F9C: 84 C9              test        cl,cl
  00408F9E: 0F 85 20 01 00 00  jne         004090C4
  00408FA4: 48                 dec         eax
  00408FA5: 5F                 pop         edi
  00408FA6: 5E                 pop         esi
  00408FA7: 5D                 pop         ebp
  00408FA8: 5B                 pop         ebx
  00408FA9: 59                 pop         ecx
  00408FAA: C3                 ret
  00408FAB: 8B 5C 24 1C        mov         ebx,dword ptr [esp+1Ch]
  00408FAF: A1 A8 10 41 00     mov         eax,dword ptr ds:[004110A8h]
  00408FB4: 8D 54 24 10        lea         edx,[esp+10h]
  00408FB8: 52                 push        edx
  00408FB9: 6A 00              push        0
  00408FBB: 55                 push        ebp
  00408FBC: 57                 push        edi
  00408FBD: 6A FF              push        0FFFFFFFFh
  00408FBF: 53                 push        ebx
  00408FC0: 68 20 02 00 00     push        220h
  00408FC5: 50                 push        eax
  00408FC6: FF 15 90 33 41 00  call        dword ptr ds:[00413390h]
  00408FCC: 8B F0              mov         esi,eax
  00408FCE: 8B 44 24 10        mov         eax,dword ptr [esp+10h]
  00408FD2: 85 F6              test        esi,esi
  00408FD4: 74 11              je          00408FE7
  00408FD6: 85 C0              test        eax,eax
  00408FD8: 0F 85 D8 00 00 00  jne         004090B6
  00408FDE: 8D 46 FF           lea         eax,[esi-1]
  00408FE1: 5F                 pop         edi
  00408FE2: 5E                 pop         esi
  00408FE3: 5D                 pop         ebp
  00408FE4: 5B                 pop         ebx
  00408FE5: 59                 pop         ecx
  00408FE6: C3                 ret
  00408FE7: 85 C0              test        eax,eax
  00408FE9: 0F 85 C7 00 00 00  jne         004090B6
  00408FEF: FF 15 3C 34 41 00  call        dword ptr ds:[0041343Ch]
  00408FF5: 83 F8 7A           cmp         eax,7Ah
  00408FF8: 0F 85 B8 00 00 00  jne         004090B6
  00408FFE: 3B F5              cmp         esi,ebp
  00409000: 73 5A              jae         0040905C
  00409002: 8B 15 CC FC 40 00  mov         edx,dword ptr ds:[0040FCCCh]
  00409008: 8D 4C 24 10        lea         ecx,[esp+10h]
  0040900C: 51                 push        ecx
  0040900D: 8B 0D A8 10 41 00  mov         ecx,dword ptr ds:[004110A8h]
  00409013: 6A 00              push        0
  00409015: 8D 44 24 24        lea         eax,[esp+24h]
  00409019: 52                 push        edx
  0040901A: 50                 push        eax
  0040901B: 6A 01              push        1
  0040901D: 53                 push        ebx
  0040901E: 6A 00              push        0
  00409020: 51                 push        ecx
  00409021: FF 15 90 33 41 00  call        dword ptr ds:[00413390h]
  00409027: 85 C0              test        eax,eax
  00409029: 0F 84 87 00 00 00  je          004090B6
  0040902F: 8B 4C 24 10        mov         ecx,dword ptr [esp+10h]
  00409033: 85 C9              test        ecx,ecx
  00409035: 75 7F              jne         004090B6
  00409037: 8D 14 30           lea         edx,[eax+esi]
  0040903A: 3B D5              cmp         edx,ebp
  0040903C: 77 1E              ja          0040905C
  0040903E: 33 D2              xor         edx,edx
  00409040: 85 C0              test        eax,eax
  00409042: 7E 11              jle         00409055
  00409044: 8A 4C 14 1C        mov         cl,byte ptr [esp+edx+1Ch]
  00409048: 84 C9              test        cl,cl
  0040904A: 88 0C 3E           mov         byte ptr [esi+edi],cl
  0040904D: 74 0D              je          0040905C
  0040904F: 42                 inc         edx
  00409050: 46                 inc         esi
  00409051: 3B D0              cmp         edx,eax
  00409053: 7C EF              jl          00409044
  00409055: 83 C3 02           add         ebx,2
  00409058: 3B F5              cmp         esi,ebp
  0040905A: 72 A6              jb          00409002
  0040905C: 8B C6              mov         eax,esi
  0040905E: 5F                 pop         edi
  0040905F: 5E                 pop         esi
  00409060: 5D                 pop         ebp
  00409061: 5B                 pop         ebx
  00409062: 59                 pop         ecx
  00409063: C3                 ret
  00409064: A1 98 10 41 00     mov         eax,dword ptr ds:[00411098h]
  00409069: 85 C0              test        eax,eax
  0040906B: 75 13              jne         00409080
  0040906D: 8B 44 24 1C        mov         eax,dword ptr [esp+1Ch]
  00409071: 50                 push        eax
  00409072: E8 49 FA FF FF     call        00408AC0
  00409077: 83 C4 04           add         esp,4
  0040907A: 5F                 pop         edi
  0040907B: 5E                 pop         esi
  0040907C: 5D                 pop         ebp
  0040907D: 5B                 pop         ebx
  0040907E: 59                 pop         ecx
  0040907F: C3                 ret
  00409080: 8B 54 24 1C        mov         edx,dword ptr [esp+1Ch]
  00409084: A1 A8 10 41 00     mov         eax,dword ptr ds:[004110A8h]
  00409089: 8D 4C 24 10        lea         ecx,[esp+10h]
  0040908D: 51                 push        ecx
  0040908E: 6A 00              push        0
  00409090: 6A 00              push        0
  00409092: 6A 00              push        0
  00409094: 6A FF              push        0FFFFFFFFh
  00409096: 52                 push        edx
  00409097: 68 20 02 00 00     push        220h
  0040909C: 50                 push        eax
  0040909D: FF 15 90 33 41 00  call        dword ptr ds:[00413390h]
  004090A3: 85 C0              test        eax,eax
  004090A5: 74 0F              je          004090B6
  004090A7: 8B 4C 24 10        mov         ecx,dword ptr [esp+10h]
  004090AB: 85 C9              test        ecx,ecx
  004090AD: 75 07              jne         004090B6
  004090AF: 48                 dec         eax
  004090B0: 5F                 pop         edi
  004090B1: 5E                 pop         esi
  004090B2: 5D                 pop         ebp
  004090B3: 5B                 pop         ebx
  004090B4: 59                 pop         ecx
  004090B5: C3                 ret
  004090B6: E8 05 D3 FF FF     call        004063C0
  004090BB: C7 00 2A 00 00 00  mov         dword ptr [eax],2Ah
  004090C1: 83 C8 FF           or          eax,0FFFFFFFFh
  004090C4: 5F                 pop         edi
  004090C5: 5E                 pop         esi
  004090C6: 5D                 pop         ebp
  004090C7: 5B                 pop         ebx
  004090C8: 59                 pop         ecx
  004090C9: C3                 ret
  004090CA: 90                 nop
  004090CB: 90                 nop
  004090CC: 90                 nop
  004090CD: 90                 nop
  004090CE: 90                 nop
  004090CF: 90                 nop
  004090D0: 8B 54 24 04        mov         edx,dword ptr [esp+4]
  004090D4: 56                 push        esi
  004090D5: 8B 74 24 0C        mov         esi,dword ptr [esp+0Ch]
  004090D9: 8B C2              mov         eax,edx
  004090DB: 8B CE              mov         ecx,esi
  004090DD: 85 C9              test        ecx,ecx
  004090DF: 74 1D              je          004090FE
  004090E1: 66 83 38 00        cmp         word ptr [eax],0
  004090E5: 74 06              je          004090ED
  004090E7: 83 C0 02           add         eax,2
  004090EA: 49                 dec         ecx
  004090EB: 75 F4              jne         004090E1
  004090ED: 85 C9              test        ecx,ecx
  004090EF: 74 0D              je          004090FE
  004090F1: 66 83 38 00        cmp         word ptr [eax],0
  004090F5: 75 07              jne         004090FE
  004090F7: 2B C2              sub         eax,edx
  004090F9: D1 F8              sar         eax,1
  004090FB: 40                 inc         eax
  004090FC: 5E                 pop         esi
  004090FD: C3                 ret
  004090FE: 8B C6              mov         eax,esi
  00409100: 5E                 pop         esi
  00409101: C3                 ret
  00409102: 90                 nop
  00409103: 90                 nop
  00409104: 90                 nop
  00409105: 90                 nop
  00409106: 90                 nop
  00409107: 90                 nop
  00409108: 90                 nop
  00409109: 90                 nop
  0040910A: 90                 nop
  0040910B: 90                 nop
  0040910C: 90                 nop
  0040910D: 90                 nop
  0040910E: 90                 nop
  0040910F: 90                 nop
  00409110: 53                 push        ebx
  00409111: 8B 1D 6C 0D 41 00  mov         ebx,dword ptr ds:[00410D6Ch]
  00409117: 55                 push        ebp
  00409118: 56                 push        esi
  00409119: 85 DB              test        ebx,ebx
  0040911B: 57                 push        edi
  0040911C: 75 1C              jne         0040913A
  0040911E: A1 74 0D 41 00     mov         eax,dword ptr ds:[00410D74h]
  00409123: 85 C0              test        eax,eax
  00409125: 74 0F              je          00409136
  00409127: E8 A4 11 00 00     call        0040A2D0
  0040912C: 85 C0              test        eax,eax
  0040912E: 75 67              jne         00409197
  00409130: 8B 1D 6C 0D 41 00  mov         ebx,dword ptr ds:[00410D6Ch]
  00409136: 85 DB              test        ebx,ebx
  00409138: 74 5D              je          00409197
  0040913A: 8B 6C 24 14        mov         ebp,dword ptr [esp+14h]
  0040913E: 85 ED              test        ebp,ebp
  00409140: 74 55              je          00409197
  00409142: 8B FD              mov         edi,ebp
  00409144: 83 C9 FF           or          ecx,0FFFFFFFFh
  00409147: 33 C0              xor         eax,eax
  00409149: 8B 13              mov         edx,dword ptr [ebx]
  0040914B: F2 AE              repne scas  byte ptr es:[edi]
  0040914D: F7 D1              not         ecx
  0040914F: 49                 dec         ecx
  00409150: 85 D2              test        edx,edx
  00409152: 8B F1              mov         esi,ecx
  00409154: 74 41              je          00409197
  00409156: 8B FA              mov         edi,edx
  00409158: 83 C9 FF           or          ecx,0FFFFFFFFh
  0040915B: 33 C0              xor         eax,eax
  0040915D: F2 AE              repne scas  byte ptr es:[edi]
  0040915F: F7 D1              not         ecx
  00409161: 49                 dec         ecx
  00409162: 3B CE              cmp         ecx,esi
  00409164: 76 15              jbe         0040917B
  00409166: 80 3C 16 3D        cmp         byte ptr [esi+edx],3Dh
  0040916A: 75 0F              jne         0040917B
  0040916C: 56                 push        esi
  0040916D: 55                 push        ebp
  0040916E: 52                 push        edx
  0040916F: E8 1C 11 00 00     call        0040A290
  00409174: 83 C4 0C           add         esp,0Ch
  00409177: 85 C0              test        eax,eax
  00409179: 74 11              je          0040918C
  0040917B: 8B 53 04           mov         edx,dword ptr [ebx+4]
  0040917E: 83 C3 04           add         ebx,4
  00409181: 85 D2              test        edx,edx
  00409183: 75 D1              jne         00409156
  00409185: 33 C0              xor         eax,eax
  00409187: 5F                 pop         edi
  00409188: 5E                 pop         esi
  00409189: 5D                 pop         ebp
  0040918A: 5B                 pop         ebx
  0040918B: C3                 ret
  0040918C: 8B 03              mov         eax,dword ptr [ebx]
  0040918E: 8D 44 30 01        lea         eax,[eax+esi+1]
  00409192: 5F                 pop         edi
  00409193: 5E                 pop         esi
  00409194: 5D                 pop         ebp
  00409195: 5B                 pop         ebx
  00409196: C3                 ret
  00409197: 5F                 pop         edi
  00409198: 5E                 pop         esi
  00409199: 5D                 pop         ebp
  0040919A: 33 C0              xor         eax,eax
  0040919C: 5B                 pop         ebx
  0040919D: C3                 ret
  0040919E: 90                 nop
  0040919F: 90                 nop
  004091A0: A1 A4 10 41 00     mov         eax,dword ptr ds:[004110A4h]
  004091A5: 56                 push        esi
  004091A6: 85 C0              test        eax,eax
  004091A8: 74 6F              je          00409219
  004091AA: 68 AC 00 00 00     push        0ACh
  004091AF: 6A 01              push        1
  004091B1: E8 8A AC FF FF     call        00403E40
  004091B6: 8B F0              mov         esi,eax
  004091B8: 83 C4 08           add         esp,8
  004091BB: 85 F6              test        esi,esi
  004091BD: 75 07              jne         004091C6
  004091BF: B8 01 00 00 00     mov         eax,1
  004091C4: 5E                 pop         esi
  004091C5: C3                 ret
  004091C6: 56                 push        esi
  004091C7: E8 84 00 00 00     call        00409250
  004091CC: 83 C4 04           add         esp,4
  004091CF: 85 C0              test        eax,eax
  004091D1: 74 19              je          004091EC
  004091D3: 56                 push        esi
  004091D4: E8 F7 03 00 00     call        004095D0
  004091D9: 83 C4 04           add         esp,4
  004091DC: 56                 push        esi
  004091DD: E8 0E AD FF FF     call        00403EF0
  004091E2: 83 C4 04           add         esp,4
  004091E5: B8 01 00 00 00     mov         eax,1
  004091EA: 5E                 pop         esi
  004091EB: C3                 ret
  004091EC: A1 C4 10 41 00     mov         eax,dword ptr ds:[004110C4h]
  004091F1: 89 35 E4 09 41 00  mov         dword ptr ds:[004109E4h],esi
  004091F7: 50                 push        eax
  004091F8: E8 D3 03 00 00     call        004095D0
  004091FD: 8B 0D C4 10 41 00  mov         ecx,dword ptr ds:[004110C4h]
  00409203: 83 C4 04           add         esp,4
  00409206: 51                 push        ecx
  00409207: E8 E4 AC FF FF     call        00403EF0
  0040920C: 83 C4 04           add         esp,4
  0040920F: 89 35 C4 10 41 00  mov         dword ptr ds:[004110C4h],esi
  00409215: 33 C0              xor         eax,eax
  00409217: 5E                 pop         esi
  00409218: C3                 ret
  00409219: 8B 15 C4 10 41 00  mov         edx,dword ptr ds:[004110C4h]
  0040921F: C7 05 E4 09 41 00  mov         dword ptr ds:[004109E4h],410938h
            38 09 41 00
  00409229: 52                 push        edx
  0040922A: E8 A1 03 00 00     call        004095D0
  0040922F: A1 C4 10 41 00     mov         eax,dword ptr ds:[004110C4h]
  00409234: 83 C4 04           add         esp,4
  00409237: 50                 push        eax
  00409238: E8 B3 AC FF FF     call        00403EF0
  0040923D: 83 C4 04           add         esp,4
  00409240: C7 05 C4 10 41 00  mov         dword ptr ds:[004110C4h],0
            00 00 00 00
  0040924A: 33 C0              xor         eax,eax
  0040924C: 5E                 pop         esi
  0040924D: C3                 ret
  0040924E: 90                 nop
  0040924F: 90                 nop
  00409250: 53                 push        ebx
  00409251: 55                 push        ebp
  00409252: 57                 push        edi
  00409253: 8B 7C 24 10        mov         edi,dword ptr [esp+10h]
  00409257: 33 DB              xor         ebx,ebx
  00409259: 33 ED              xor         ebp,ebp
  0040925B: 66 8B 1D FE 10 41  mov         bx,word ptr ds:[004110FEh]
            00
  00409262: 66 8B 2D 00 11 41  mov         bp,word ptr ds:[00411100h]
            00
  00409269: 85 FF              test        edi,edi
  0040926B: 75 07              jne         00409274
  0040926D: 83 C8 FF           or          eax,0FFFFFFFFh
  00409270: 5F                 pop         edi
  00409271: 5D                 pop         ebp
  00409272: 5B                 pop         ebx
  00409273: C3                 ret
  00409274: 8D 47 04           lea         eax,[edi+4]
  00409277: 56                 push        esi
  00409278: 50                 push        eax
  00409279: 6A 31              push        31h
  0040927B: 53                 push        ebx
  0040927C: 6A 01              push        1
  0040927E: E8 CD 10 00 00     call        0040A350
  00409283: 83 C4 10           add         esp,10h
  00409286: 8D 4F 08           lea         ecx,[edi+8]
  00409289: 8B F0              mov         esi,eax
  0040928B: 51                 push        ecx
  0040928C: 6A 32              push        32h
  0040928E: 53                 push        ebx
  0040928F: 6A 01              push        1
  00409291: E8 BA 10 00 00     call        0040A350
  00409296: 83 C4 10           add         esp,10h
  00409299: 8D 57 0C           lea         edx,[edi+0Ch]
  0040929C: 0B F0              or          esi,eax
  0040929E: 52                 push        edx
  0040929F: 6A 33              push        33h
  004092A1: 53                 push        ebx
  004092A2: 6A 01              push        1
  004092A4: E8 A7 10 00 00     call        0040A350
  004092A9: 83 C4 10           add         esp,10h
  004092AC: 0B F0              or          esi,eax
  004092AE: 8D 47 10           lea         eax,[edi+10h]
  004092B1: 50                 push        eax
  004092B2: 6A 34              push        34h
  004092B4: 53                 push        ebx
  004092B5: 6A 01              push        1
  004092B7: E8 94 10 00 00     call        0040A350
  004092BC: 83 C4 10           add         esp,10h
  004092BF: 8D 4F 14           lea         ecx,[edi+14h]
  004092C2: 0B F0              or          esi,eax
  004092C4: 51                 push        ecx
  004092C5: 6A 35              push        35h
  004092C7: 53                 push        ebx
  004092C8: 6A 01              push        1
  004092CA: E8 81 10 00 00     call        0040A350
  004092CF: 83 C4 10           add         esp,10h
  004092D2: 8D 57 18           lea         edx,[edi+18h]
  004092D5: 0B F0              or          esi,eax
  004092D7: 52                 push        edx
  004092D8: 6A 36              push        36h
  004092DA: 53                 push        ebx
  004092DB: 6A 01              push        1
  004092DD: E8 6E 10 00 00     call        0040A350
  004092E2: 83 C4 10           add         esp,10h
  004092E5: 0B F0              or          esi,eax
  004092E7: 57                 push        edi
  004092E8: 6A 37              push        37h
  004092EA: 53                 push        ebx
  004092EB: 6A 01              push        1
  004092ED: E8 5E 10 00 00     call        0040A350
  004092F2: 83 C4 10           add         esp,10h
  004092F5: 0B F0              or          esi,eax
  004092F7: 8D 47 20           lea         eax,[edi+20h]
  004092FA: 50                 push        eax
  004092FB: 6A 2A              push        2Ah
  004092FD: 53                 push        ebx
  004092FE: 6A 01              push        1
  00409300: E8 4B 10 00 00     call        0040A350
  00409305: 83 C4 10           add         esp,10h
  00409308: 8D 4F 24           lea         ecx,[edi+24h]
  0040930B: 0B F0              or          esi,eax
  0040930D: 51                 push        ecx
  0040930E: 6A 2B              push        2Bh
  00409310: 53                 push        ebx
  00409311: 6A 01              push        1
  00409313: E8 38 10 00 00     call        0040A350
  00409318: 83 C4 10           add         esp,10h
  0040931B: 8D 57 28           lea         edx,[edi+28h]
  0040931E: 0B F0              or          esi,eax
  00409320: 52                 push        edx
  00409321: 6A 2C              push        2Ch
  00409323: 53                 push        ebx
  00409324: 6A 01              push        1
  00409326: E8 25 10 00 00     call        0040A350
  0040932B: 83 C4 10           add         esp,10h
  0040932E: 0B F0              or          esi,eax
  00409330: 8D 47 2C           lea         eax,[edi+2Ch]
  00409333: 50                 push        eax
  00409334: 6A 2D              push        2Dh
  00409336: 53                 push        ebx
  00409337: 6A 01              push        1
  00409339: E8 12 10 00 00     call        0040A350
  0040933E: 83 C4 10           add         esp,10h
  00409341: 8D 4F 30           lea         ecx,[edi+30h]
  00409344: 0B F0              or          esi,eax
  00409346: 51                 push        ecx
  00409347: 6A 2E              push        2Eh
  00409349: 53                 push        ebx
  0040934A: 6A 01              push        1
  0040934C: E8 FF 0F 00 00     call        0040A350
  00409351: 83 C4 10           add         esp,10h
  00409354: 8D 57 34           lea         edx,[edi+34h]
  00409357: 0B F0              or          esi,eax
  00409359: 52                 push        edx
  0040935A: 6A 2F              push        2Fh
  0040935C: 53                 push        ebx
  0040935D: 6A 01              push        1
  0040935F: E8 EC 0F 00 00     call        0040A350
  00409364: 83 C4 10           add         esp,10h
  00409367: 0B F0              or          esi,eax
  00409369: 8D 47 1C           lea         eax,[edi+1Ch]
  0040936C: 50                 push        eax
  0040936D: 6A 30              push        30h
  0040936F: 53                 push        ebx
  00409370: 6A 01              push        1
  00409372: E8 D9 0F 00 00     call        0040A350
  00409377: 83 C4 10           add         esp,10h
  0040937A: 8D 4F 38           lea         ecx,[edi+38h]
  0040937D: 0B F0              or          esi,eax
  0040937F: 51                 push        ecx
  00409380: 6A 44              push        44h
  00409382: 53                 push        ebx
  00409383: 6A 01              push        1
  00409385: E8 C6 0F 00 00     call        0040A350
  0040938A: 83 C4 10           add         esp,10h
  0040938D: 8D 57 3C           lea         edx,[edi+3Ch]
  00409390: 0B F0              or          esi,eax
  00409392: 52                 push        edx
  00409393: 6A 45              push        45h
  00409395: 53                 push        ebx
  00409396: 6A 01              push        1
  00409398: E8 B3 0F 00 00     call        0040A350
  0040939D: 83 C4 10           add         esp,10h
  004093A0: 0B F0              or          esi,eax
  004093A2: 8D 47 40           lea         eax,[edi+40h]
  004093A5: 50                 push        eax
  004093A6: 6A 46              push        46h
  004093A8: 53                 push        ebx
  004093A9: 6A 01              push        1
  004093AB: E8 A0 0F 00 00     call        0040A350
  004093B0: 83 C4 10           add         esp,10h
  004093B3: 8D 4F 44           lea         ecx,[edi+44h]
  004093B6: 0B F0              or          esi,eax
  004093B8: 51                 push        ecx
  004093B9: 6A 47              push        47h
  004093BB: 53                 push        ebx
  004093BC: 6A 01              push        1
  004093BE: E8 8D 0F 00 00     call        0040A350
  004093C3: 83 C4 10           add         esp,10h
  004093C6: 8D 57 48           lea         edx,[edi+48h]
  004093C9: 0B F0              or          esi,eax
  004093CB: 52                 push        edx
  004093CC: 6A 48              push        48h
  004093CE: 53                 push        ebx
  004093CF: 6A 01              push        1
  004093D1: E8 7A 0F 00 00     call        0040A350
  004093D6: 83 C4 10           add         esp,10h
  004093D9: 0B F0              or          esi,eax
  004093DB: 8D 47 4C           lea         eax,[edi+4Ch]
  004093DE: 50                 push        eax
  004093DF: 6A 49              push        49h
  004093E1: 53                 push        ebx
  004093E2: 6A 01              push        1
  004093E4: E8 67 0F 00 00     call        0040A350
  004093E9: 83 C4 10           add         esp,10h
  004093EC: 8D 4F 50           lea         ecx,[edi+50h]
  004093EF: 0B F0              or          esi,eax
  004093F1: 51                 push        ecx
  004093F2: 6A 4A              push        4Ah
  004093F4: 53                 push        ebx
  004093F5: 6A 01              push        1
  004093F7: E8 54 0F 00 00     call        0040A350
  004093FC: 83 C4 10           add         esp,10h
  004093FF: 8D 57 54           lea         edx,[edi+54h]
  00409402: 0B F0              or          esi,eax
  00409404: 52                 push        edx
  00409405: 6A 4B              push        4Bh
  00409407: 53                 push        ebx
  00409408: 6A 01              push        1
  0040940A: E8 41 0F 00 00     call        0040A350
  0040940F: 83 C4 10           add         esp,10h
  00409412: 0B F0              or          esi,eax
  00409414: 8D 47 58           lea         eax,[edi+58h]
  00409417: 50                 push        eax
  00409418: 6A 4C              push        4Ch
  0040941A: 53                 push        ebx
  0040941B: 6A 01              push        1
  0040941D: E8 2E 0F 00 00     call        0040A350
  00409422: 83 C4 10           add         esp,10h
  00409425: 8D 4F 5C           lea         ecx,[edi+5Ch]
  00409428: 0B F0              or          esi,eax
  0040942A: 51                 push        ecx
  0040942B: 6A 4D              push        4Dh
  0040942D: 53                 push        ebx
  0040942E: 6A 01              push        1
  00409430: E8 1B 0F 00 00     call        0040A350
  00409435: 83 C4 10           add         esp,10h
  00409438: 8D 57 60           lea         edx,[edi+60h]
  0040943B: 0B F0              or          esi,eax
  0040943D: 52                 push        edx
  0040943E: 6A 4E              push        4Eh
  00409440: 53                 push        ebx
  00409441: 6A 01              push        1
  00409443: E8 08 0F 00 00     call        0040A350
  00409448: 83 C4 10           add         esp,10h
  0040944B: 0B F0              or          esi,eax
  0040944D: 8D 47 64           lea         eax,[edi+64h]
  00409450: 50                 push        eax
  00409451: 6A 4F              push        4Fh
  00409453: 53                 push        ebx
  00409454: 6A 01              push        1
  00409456: E8 F5 0E 00 00     call        0040A350
  0040945B: 83 C4 10           add         esp,10h
  0040945E: 8D 4F 68           lea         ecx,[edi+68h]
  00409461: 0B F0              or          esi,eax
  00409463: 51                 push        ecx
  00409464: 6A 38              push        38h
  00409466: 53                 push        ebx
  00409467: 6A 01              push        1
  00409469: E8 E2 0E 00 00     call        0040A350
  0040946E: 83 C4 10           add         esp,10h
  00409471: 8D 57 6C           lea         edx,[edi+6Ch]
  00409474: 0B F0              or          esi,eax
  00409476: 52                 push        edx
  00409477: 6A 39              push        39h
  00409479: 53                 push        ebx
  0040947A: 6A 01              push        1
  0040947C: E8 CF 0E 00 00     call        0040A350
  00409481: 83 C4 10           add         esp,10h
  00409484: 0B F0              or          esi,eax
  00409486: 8D 47 70           lea         eax,[edi+70h]
  00409489: 50                 push        eax
  0040948A: 6A 3A              push        3Ah
  0040948C: 53                 push        ebx
  0040948D: 6A 01              push        1
  0040948F: E8 BC 0E 00 00     call        0040A350
  00409494: 83 C4 10           add         esp,10h
  00409497: 8D 4F 74           lea         ecx,[edi+74h]
  0040949A: 0B F0              or          esi,eax
  0040949C: 51                 push        ecx
  0040949D: 6A 3B              push        3Bh
  0040949F: 53                 push        ebx
  004094A0: 6A 01              push        1
  004094A2: E8 A9 0E 00 00     call        0040A350
  004094A7: 83 C4 10           add         esp,10h
  004094AA: 8D 57 78           lea         edx,[edi+78h]
  004094AD: 0B F0              or          esi,eax
  004094AF: 52                 push        edx
  004094B0: 6A 3C              push        3Ch
  004094B2: 53                 push        ebx
  004094B3: 6A 01              push        1
  004094B5: E8 96 0E 00 00     call        0040A350
  004094BA: 83 C4 10           add         esp,10h
  004094BD: 0B F0              or          esi,eax
  004094BF: 8D 47 7C           lea         eax,[edi+7Ch]
  004094C2: 50                 push        eax
  004094C3: 6A 3D              push        3Dh
  004094C5: 53                 push        ebx
  004094C6: 6A 01              push        1
  004094C8: E8 83 0E 00 00     call        0040A350
  004094CD: 83 C4 10           add         esp,10h
  004094D0: 8D 8F 80 00 00 00  lea         ecx,[edi+00000080h]
  004094D6: 0B F0              or          esi,eax
  004094D8: 51                 push        ecx
  004094D9: 6A 3E              push        3Eh
  004094DB: 53                 push        ebx
  004094DC: 6A 01              push        1
  004094DE: E8 6D 0E 00 00     call        0040A350
  004094E3: 83 C4 10           add         esp,10h
  004094E6: 8D 97 84 00 00 00  lea         edx,[edi+00000084h]
  004094EC: 0B F0              or          esi,eax
  004094EE: 52                 push        edx
  004094EF: 6A 3F              push        3Fh
  004094F1: 53                 push        ebx
  004094F2: 6A 01              push        1
  004094F4: E8 57 0E 00 00     call        0040A350
  004094F9: 83 C4 10           add         esp,10h
  004094FC: 0B F0              or          esi,eax
  004094FE: 8D 87 88 00 00 00  lea         eax,[edi+00000088h]
  00409504: 50                 push        eax
  00409505: 6A 40              push        40h
  00409507: 53                 push        ebx
  00409508: 6A 01              push        1
  0040950A: E8 41 0E 00 00     call        0040A350
  0040950F: 83 C4 10           add         esp,10h
  00409512: 8D 8F 8C 00 00 00  lea         ecx,[edi+0000008Ch]
  00409518: 0B F0              or          esi,eax
  0040951A: 51                 push        ecx
  0040951B: 6A 41              push        41h
  0040951D: 53                 push        ebx
  0040951E: 6A 01              push        1
  00409520: E8 2B 0E 00 00     call        0040A350
  00409525: 83 C4 10           add         esp,10h
  00409528: 8D 97 90 00 00 00  lea         edx,[edi+00000090h]
  0040952E: 0B F0              or          esi,eax
  00409530: 52                 push        edx
  00409531: 6A 42              push        42h
  00409533: 53                 push        ebx
  00409534: 6A 01              push        1
  00409536: E8 15 0E 00 00     call        0040A350
  0040953B: 83 C4 10           add         esp,10h
  0040953E: 0B F0              or          esi,eax
  00409540: 8D 87 94 00 00 00  lea         eax,[edi+00000094h]
  00409546: 50                 push        eax
  00409547: 6A 43              push        43h
  00409549: 53                 push        ebx
  0040954A: 6A 01              push        1
  0040954C: E8 FF 0D 00 00     call        0040A350
  00409551: 83 C4 10           add         esp,10h
  00409554: 8D 8F 98 00 00 00  lea         ecx,[edi+00000098h]
  0040955A: 0B F0              or          esi,eax
  0040955C: 51                 push        ecx
  0040955D: 6A 28              push        28h
  0040955F: 53                 push        ebx
  00409560: 6A 01              push        1
  00409562: E8 E9 0D 00 00     call        0040A350
  00409567: 83 C4 10           add         esp,10h
  0040956A: 8D 97 9C 00 00 00  lea         edx,[edi+0000009Ch]
  00409570: 0B F0              or          esi,eax
  00409572: 52                 push        edx
  00409573: 6A 29              push        29h
  00409575: 53                 push        ebx
  00409576: 6A 01              push        1
  00409578: E8 D3 0D 00 00     call        0040A350
  0040957D: 83 C4 10           add         esp,10h
  00409580: 0B F0              or          esi,eax
  00409582: 8D 87 A0 00 00 00  lea         eax,[edi+000000A0h]
  00409588: 50                 push        eax
  00409589: 6A 1F              push        1Fh
  0040958B: 55                 push        ebp
  0040958C: 6A 01              push        1
  0040958E: E8 BD 0D 00 00     call        0040A350
  00409593: 83 C4 10           add         esp,10h
  00409596: 8D 8F A4 00 00 00  lea         ecx,[edi+000000A4h]
  0040959C: 0B F0              or          esi,eax
  0040959E: 51                 push        ecx
  0040959F: 6A 20              push        20h
  004095A1: 55                 push        ebp
  004095A2: 6A 01              push        1
  004095A4: E8 A7 0D 00 00     call        0040A350
  004095A9: 83 C4 10           add         esp,10h
  004095AC: 0B F0              or          esi,eax
  004095AE: 57                 push        edi
  004095AF: 55                 push        ebp
  004095B0: E8 5B 02 00 00     call        00409810
  004095B5: 83 C4 08           add         esp,8
  004095B8: 0B F0              or          esi,eax
  004095BA: 8B C6              mov         eax,esi
  004095BC: 5E                 pop         esi
  004095BD: 5F                 pop         edi
  004095BE: 5D                 pop         ebp
  004095BF: 5B                 pop         ebx
  004095C0: C3                 ret
  004095C1: 90                 nop
  004095C2: 90                 nop
  004095C3: 90                 nop
  004095C4: 90                 nop
  004095C5: 90                 nop
  004095C6: 90                 nop
  004095C7: 90                 nop
  004095C8: 90                 nop
  004095C9: 90                 nop
  004095CA: 90                 nop
  004095CB: 90                 nop
  004095CC: 90                 nop
  004095CD: 90                 nop
  004095CE: 90                 nop
  004095CF: 90                 nop
  004095D0: 56                 push        esi
  004095D1: 8B 74 24 08        mov         esi,dword ptr [esp+8]
  004095D5: 85 F6              test        esi,esi
  004095D7: 0F 84 24 02 00 00  je          00409801
  004095DD: 8B 46 04           mov         eax,dword ptr [esi+4]
  004095E0: 50                 push        eax
  004095E1: E8 0A A9 FF FF     call        00403EF0
  004095E6: 8B 4E 08           mov         ecx,dword ptr [esi+8]
  004095E9: 83 C4 04           add         esp,4
  004095EC: 51                 push        ecx
  004095ED: E8 FE A8 FF FF     call        00403EF0
  004095F2: 8B 56 0C           mov         edx,dword ptr [esi+0Ch]
  004095F5: 83 C4 04           add         esp,4
  004095F8: 52                 push        edx
  004095F9: E8 F2 A8 FF FF     call        00403EF0
  004095FE: 8B 46 10           mov         eax,dword ptr [esi+10h]
  00409601: 83 C4 04           add         esp,4
  00409604: 50                 push        eax
  00409605: E8 E6 A8 FF FF     call        00403EF0
  0040960A: 8B 4E 14           mov         ecx,dword ptr [esi+14h]
  0040960D: 83 C4 04           add         esp,4
  00409610: 51                 push        ecx
  00409611: E8 DA A8 FF FF     call        00403EF0
  00409616: 8B 56 18           mov         edx,dword ptr [esi+18h]
  00409619: 83 C4 04           add         esp,4
  0040961C: 52                 push        edx
  0040961D: E8 CE A8 FF FF     call        00403EF0
  00409622: 8B 06              mov         eax,dword ptr [esi]
  00409624: 83 C4 04           add         esp,4
  00409627: 50                 push        eax
  00409628: E8 C3 A8 FF FF     call        00403EF0
  0040962D: 8B 4E 20           mov         ecx,dword ptr [esi+20h]
  00409630: 83 C4 04           add         esp,4
  00409633: 51                 push        ecx
  00409634: E8 B7 A8 FF FF     call        00403EF0
  00409639: 8B 56 24           mov         edx,dword ptr [esi+24h]
  0040963C: 83 C4 04           add         esp,4
  0040963F: 52                 push        edx
  00409640: E8 AB A8 FF FF     call        00403EF0
  00409645: 8B 46 28           mov         eax,dword ptr [esi+28h]
  00409648: 83 C4 04           add         esp,4
  0040964B: 50                 push        eax
  0040964C: E8 9F A8 FF FF     call        00403EF0
  00409651: 8B 4E 2C           mov         ecx,dword ptr [esi+2Ch]
  00409654: 83 C4 04           add         esp,4
  00409657: 51                 push        ecx
  00409658: E8 93 A8 FF FF     call        00403EF0
  0040965D: 8B 56 30           mov         edx,dword ptr [esi+30h]
  00409660: 83 C4 04           add         esp,4
  00409663: 52                 push        edx
  00409664: E8 87 A8 FF FF     call        00403EF0
  00409669: 8B 46 34           mov         eax,dword ptr [esi+34h]
  0040966C: 83 C4 04           add         esp,4
  0040966F: 50                 push        eax
  00409670: E8 7B A8 FF FF     call        00403EF0
  00409675: 8B 4E 1C           mov         ecx,dword ptr [esi+1Ch]
  00409678: 83 C4 04           add         esp,4
  0040967B: 51                 push        ecx
  0040967C: E8 6F A8 FF FF     call        00403EF0
  00409681: 8B 56 38           mov         edx,dword ptr [esi+38h]
  00409684: 83 C4 04           add         esp,4
  00409687: 52                 push        edx
  00409688: E8 63 A8 FF FF     call        00403EF0
  0040968D: 8B 46 3C           mov         eax,dword ptr [esi+3Ch]
  00409690: 83 C4 04           add         esp,4
  00409693: 50                 push        eax
  00409694: E8 57 A8 FF FF     call        00403EF0
  00409699: 8B 4E 40           mov         ecx,dword ptr [esi+40h]
  0040969C: 83 C4 04           add         esp,4
  0040969F: 51                 push        ecx
  004096A0: E8 4B A8 FF FF     call        00403EF0
  004096A5: 8B 56 44           mov         edx,dword ptr [esi+44h]
  004096A8: 83 C4 04           add         esp,4
  004096AB: 52                 push        edx
  004096AC: E8 3F A8 FF FF     call        00403EF0
  004096B1: 8B 46 48           mov         eax,dword ptr [esi+48h]
  004096B4: 83 C4 04           add         esp,4
  004096B7: 50                 push        eax
  004096B8: E8 33 A8 FF FF     call        00403EF0
  004096BD: 8B 4E 4C           mov         ecx,dword ptr [esi+4Ch]
  004096C0: 83 C4 04           add         esp,4
  004096C3: 51                 push        ecx
  004096C4: E8 27 A8 FF FF     call        00403EF0
  004096C9: 8B 56 50           mov         edx,dword ptr [esi+50h]
  004096CC: 83 C4 04           add         esp,4
  004096CF: 52                 push        edx
  004096D0: E8 1B A8 FF FF     call        00403EF0
  004096D5: 8B 46 54           mov         eax,dword ptr [esi+54h]
  004096D8: 83 C4 04           add         esp,4
  004096DB: 50                 push        eax
  004096DC: E8 0F A8 FF FF     call        00403EF0
  004096E1: 8B 4E 58           mov         ecx,dword ptr [esi+58h]
  004096E4: 83 C4 04           add         esp,4
  004096E7: 51                 push        ecx
  004096E8: E8 03 A8 FF FF     call        00403EF0
  004096ED: 8B 56 5C           mov         edx,dword ptr [esi+5Ch]
  004096F0: 83 C4 04           add         esp,4
  004096F3: 52                 push        edx
  004096F4: E8 F7 A7 FF FF     call        00403EF0
  004096F9: 8B 46 60           mov         eax,dword ptr [esi+60h]
  004096FC: 83 C4 04           add         esp,4
  004096FF: 50                 push        eax
  00409700: E8 EB A7 FF FF     call        00403EF0
  00409705: 8B 4E 64           mov         ecx,dword ptr [esi+64h]
  00409708: 83 C4 04           add         esp,4
  0040970B: 51                 push        ecx
  0040970C: E8 DF A7 FF FF     call        00403EF0
  00409711: 8B 56 68           mov         edx,dword ptr [esi+68h]
  00409714: 83 C4 04           add         esp,4
  00409717: 52                 push        edx
  00409718: E8 D3 A7 FF FF     call        00403EF0
  0040971D: 8B 46 6C           mov         eax,dword ptr [esi+6Ch]
  00409720: 83 C4 04           add         esp,4
  00409723: 50                 push        eax
  00409724: E8 C7 A7 FF FF     call        00403EF0
  00409729: 8B 4E 70           mov         ecx,dword ptr [esi+70h]
  0040972C: 83 C4 04           add         esp,4
  0040972F: 51                 push        ecx
  00409730: E8 BB A7 FF FF     call        00403EF0
  00409735: 8B 56 74           mov         edx,dword ptr [esi+74h]
  00409738: 83 C4 04           add         esp,4
  0040973B: 52                 push        edx
  0040973C: E8 AF A7 FF FF     call        00403EF0
  00409741: 8B 46 78           mov         eax,dword ptr [esi+78h]
  00409744: 83 C4 04           add         esp,4
  00409747: 50                 push        eax
  00409748: E8 A3 A7 FF FF     call        00403EF0
  0040974D: 8B 4E 7C           mov         ecx,dword ptr [esi+7Ch]
  00409750: 83 C4 04           add         esp,4
  00409753: 51                 push        ecx
  00409754: E8 97 A7 FF FF     call        00403EF0
  00409759: 8B 96 80 00 00 00  mov         edx,dword ptr [esi+00000080h]
  0040975F: 83 C4 04           add         esp,4
  00409762: 52                 push        edx
  00409763: E8 88 A7 FF FF     call        00403EF0
  00409768: 8B 86 84 00 00 00  mov         eax,dword ptr [esi+00000084h]
  0040976E: 83 C4 04           add         esp,4
  00409771: 50                 push        eax
  00409772: E8 79 A7 FF FF     call        00403EF0
  00409777: 8B 8E 88 00 00 00  mov         ecx,dword ptr [esi+00000088h]
  0040977D: 83 C4 04           add         esp,4
  00409780: 51                 push        ecx
  00409781: E8 6A A7 FF FF     call        00403EF0
  00409786: 8B 96 8C 00 00 00  mov         edx,dword ptr [esi+0000008Ch]
  0040978C: 83 C4 04           add         esp,4
  0040978F: 52                 push        edx
  00409790: E8 5B A7 FF FF     call        00403EF0
  00409795: 8B 86 90 00 00 00  mov         eax,dword ptr [esi+00000090h]
  0040979B: 83 C4 04           add         esp,4
  0040979E: 50                 push        eax
  0040979F: E8 4C A7 FF FF     call        00403EF0
  004097A4: 8B 8E 94 00 00 00  mov         ecx,dword ptr [esi+00000094h]
  004097AA: 83 C4 04           add         esp,4
  004097AD: 51                 push        ecx
  004097AE: E8 3D A7 FF FF     call        00403EF0
  004097B3: 8B 96 98 00 00 00  mov         edx,dword ptr [esi+00000098h]
  004097B9: 83 C4 04           add         esp,4
  004097BC: 52                 push        edx
  004097BD: E8 2E A7 FF FF     call        00403EF0
  004097C2: 8B 86 9C 00 00 00  mov         eax,dword ptr [esi+0000009Ch]
  004097C8: 83 C4 04           add         esp,4
  004097CB: 50                 push        eax
  004097CC: E8 1F A7 FF FF     call        00403EF0
  004097D1: 8B 8E A0 00 00 00  mov         ecx,dword ptr [esi+000000A0h]
  004097D7: 83 C4 04           add         esp,4
  004097DA: 51                 push        ecx
  004097DB: E8 10 A7 FF FF     call        00403EF0
  004097E0: 8B 96 A4 00 00 00  mov         edx,dword ptr [esi+000000A4h]
  004097E6: 83 C4 04           add         esp,4
  004097E9: 52                 push        edx
  004097EA: E8 01 A7 FF FF     call        00403EF0
  004097EF: 8B 86 A8 00 00 00  mov         eax,dword ptr [esi+000000A8h]
  004097F5: 83 C4 04           add         esp,4
  004097F8: 50                 push        eax
  004097F9: E8 F2 A6 FF FF     call        00403EF0
  004097FE: 83 C4 04           add         esp,4
  00409801: 5E                 pop         esi
  00409802: C3                 ret
  00409803: 90                 nop
  00409804: 90                 nop
  00409805: 90                 nop
  00409806: 90                 nop
  00409807: 90                 nop
  00409808: 90                 nop
  00409809: 90                 nop
  0040980A: 90                 nop
  0040980B: 90                 nop
  0040980C: 90                 nop
  0040980D: 90                 nop
  0040980E: 90                 nop
  0040980F: 90                 nop
  00409810: 83 EC 08           sub         esp,8
  00409813: 56                 push        esi
  00409814: 8D 44 24 08        lea         eax,[esp+8]
  00409818: 57                 push        edi
  00409819: 8B 7C 24 14        mov         edi,dword ptr [esp+14h]
  0040981D: 50                 push        eax
  0040981E: 6A 23              push        23h
  00409820: 57                 push        edi
  00409821: 6A 00              push        0
  00409823: C7 44 24 1C 00 00  mov         dword ptr [esp+1Ch],0
            00 00
  0040982B: C7 44 24 18 00 00  mov         dword ptr [esp+18h],0
            00 00
  00409833: E8 18 0B 00 00     call        0040A350
  00409838: 83 C4 10           add         esp,10h
  0040983B: 8D 4C 24 08        lea         ecx,[esp+8]
  0040983F: 8B F0              mov         esi,eax
  00409841: 51                 push        ecx
  00409842: 6A 25              push        25h
  00409844: 57                 push        edi
  00409845: 6A 00              push        0
  00409847: E8 04 0B 00 00     call        0040A350
  0040984C: 83 C4 10           add         esp,10h
  0040984F: 8D 54 24 14        lea         edx,[esp+14h]
  00409853: 0B F0              or          esi,eax
  00409855: 52                 push        edx
  00409856: 6A 1E              push        1Eh
  00409858: 57                 push        edi
  00409859: 6A 01              push        1
  0040985B: E8 F0 0A 00 00     call        0040A350
  00409860: 83 C4 10           add         esp,10h
  00409863: 0B F0              or          esi,eax
  00409865: 74 08              je          0040986F
  00409867: 8B C6              mov         eax,esi
  00409869: 5F                 pop         edi
  0040986A: 5E                 pop         esi
  0040986B: 83 C4 08           add         esp,8
  0040986E: C3                 ret
  0040986F: 6A 0D              push        0Dh
  00409871: E8 EA A6 FF FF     call        00403F60
  00409876: 8B 4C 24 1C        mov         ecx,dword ptr [esp+1Ch]
  0040987A: 83 C4 04           add         esp,4
  0040987D: 89 81 A8 00 00 00  mov         dword ptr [ecx+000000A8h],eax
  00409883: 8B 4C 24 0C        mov         ecx,dword ptr [esp+0Ch]
  00409887: 85 C9              test        ecx,ecx
  00409889: 74 11              je          0040989C
  0040988B: C6 00 48           mov         byte ptr [eax],48h
  0040988E: 8B 4C 24 08        mov         ecx,dword ptr [esp+8]
  00409892: 40                 inc         eax
  00409893: 85 C9              test        ecx,ecx
  00409895: 74 15              je          004098AC
  00409897: C6 00 48           mov         byte ptr [eax],48h
  0040989A: EB 0F              jmp         004098AB
  0040989C: C6 00 68           mov         byte ptr [eax],68h
  0040989F: 8B 4C 24 08        mov         ecx,dword ptr [esp+8]
  004098A3: 40                 inc         eax
  004098A4: 85 C9              test        ecx,ecx
  004098A6: 74 04              je          004098AC
  004098A8: C6 00 68           mov         byte ptr [eax],68h
  004098AB: 40                 inc         eax
  004098AC: 8B 54 24 14        mov         edx,dword ptr [esp+14h]
  004098B0: 8A 0A              mov         cl,byte ptr [edx]
  004098B2: 84 C9              test        cl,cl
  004098B4: 74 0B              je          004098C1
  004098B6: 88 08              mov         byte ptr [eax],cl
  004098B8: 8A 4A 01           mov         cl,byte ptr [edx+1]
  004098BB: 40                 inc         eax
  004098BC: 42                 inc         edx
  004098BD: 84 C9              test        cl,cl
  004098BF: 75 F5              jne         004098B6
  004098C1: C6 00 6D           mov         byte ptr [eax],6Dh
  004098C4: 8B 4C 24 08        mov         ecx,dword ptr [esp+8]
  004098C8: 40                 inc         eax
  004098C9: 85 C9              test        ecx,ecx
  004098CB: 74 04              je          004098D1
  004098CD: C6 00 6D           mov         byte ptr [eax],6Dh
  004098D0: 40                 inc         eax
  004098D1: 8B 54 24 14        mov         edx,dword ptr [esp+14h]
  004098D5: 8A 0A              mov         cl,byte ptr [edx]
  004098D7: 84 C9              test        cl,cl
  004098D9: 74 0B              je          004098E6
  004098DB: 88 08              mov         byte ptr [eax],cl
  004098DD: 8A 4A 01           mov         cl,byte ptr [edx+1]
  004098E0: 40                 inc         eax
  004098E1: 42                 inc         edx
  004098E2: 84 C9              test        cl,cl
  004098E4: 75 F5              jne         004098DB
  004098E6: C6 00 73           mov         byte ptr [eax],73h
  004098E9: 40                 inc         eax
  004098EA: C6 00 73           mov         byte ptr [eax],73h
  004098ED: C6 40 01 00        mov         byte ptr [eax+1],0
  004098F1: 8B 54 24 14        mov         edx,dword ptr [esp+14h]
  004098F5: 52                 push        edx
  004098F6: E8 F5 A5 FF FF     call        00403EF0
  004098FB: 83 C4 04           add         esp,4
  004098FE: 33 C0              xor         eax,eax
  00409900: 5F                 pop         edi
  00409901: 5E                 pop         esi
  00409902: 83 C4 08           add         esp,8
  00409905: C3                 ret
  00409906: 90                 nop
  00409907: 90                 nop
  00409908: 90                 nop
  00409909: 90                 nop
  0040990A: 90                 nop
  0040990B: 90                 nop
  0040990C: 90                 nop
  0040990D: 90                 nop
  0040990E: 90                 nop
  0040990F: 90                 nop
  00409910: A1 A0 10 41 00     mov         eax,dword ptr ds:[004110A0h]
  00409915: 53                 push        ebx
  00409916: 56                 push        esi
  00409917: 33 DB              xor         ebx,ebx
  00409919: 33 F6              xor         esi,esi
  0040991B: 3B C3              cmp         eax,ebx
  0040991D: 66 8B 35 FA 10 41  mov         si,word ptr ds:[004110FAh]
            00
  00409924: 57                 push        edi
  00409925: 0F 84 FE 00 00 00  je          00409A29
  0040992B: 68 C8 10 41 00     push        4110C8h
  00409930: 6A 0E              push        0Eh
  00409932: 56                 push        esi
  00409933: 6A 01              push        1
  00409935: E8 16 0A 00 00     call        0040A350
  0040993A: 83 C4 10           add         esp,10h
  0040993D: 8B F8              mov         edi,eax
  0040993F: 68 CC 10 41 00     push        4110CCh
  00409944: 6A 0F              push        0Fh
  00409946: 56                 push        esi
  00409947: 6A 01              push        1
  00409949: E8 02 0A 00 00     call        0040A350
  0040994E: 83 C4 10           add         esp,10h
  00409951: 0B F8              or          edi,eax
  00409953: 68 D0 10 41 00     push        4110D0h
  00409958: 6A 10              push        10h
  0040995A: 56                 push        esi
  0040995B: 6A 01              push        1
  0040995D: E8 EE 09 00 00     call        0040A350
  00409962: 83 C4 10           add         esp,10h
  00409965: 0B F8              or          edi,eax
  00409967: A1 D0 10 41 00     mov         eax,dword ptr ds:[004110D0h]
  0040996C: 50                 push        eax
  0040996D: E8 9E 01 00 00     call        00409B10
  00409972: 83 C4 04           add         esp,4
  00409975: 3B FB              cmp         edi,ebx
  00409977: 74 45              je          004099BE
  00409979: 8B 0D C8 10 41 00  mov         ecx,dword ptr ds:[004110C8h]
  0040997F: 51                 push        ecx
  00409980: E8 6B A5 FF FF     call        00403EF0
  00409985: 8B 15 CC 10 41 00  mov         edx,dword ptr ds:[004110CCh]
  0040998B: 83 C4 04           add         esp,4
  0040998E: 52                 push        edx
  0040998F: E8 5C A5 FF FF     call        00403EF0
  00409994: A1 D0 10 41 00     mov         eax,dword ptr ds:[004110D0h]
  00409999: 83 C4 04           add         esp,4
  0040999C: 50                 push        eax
  0040999D: E8 4E A5 FF FF     call        00403EF0
  004099A2: 83 C4 04           add         esp,4
  004099A5: 89 1D C8 10 41 00  mov         dword ptr ds:[004110C8h],ebx
  004099AB: 89 1D CC 10 41 00  mov         dword ptr ds:[004110CCh],ebx
  004099B1: 89 1D D0 10 41 00  mov         dword ptr ds:[004110D0h],ebx
  004099B7: 83 C8 FF           or          eax,0FFFFFFFFh
  004099BA: 5F                 pop         edi
  004099BB: 5E                 pop         esi
  004099BC: 5B                 pop         ebx
  004099BD: C3                 ret
  004099BE: 8B 0D 20 0A 41 00  mov         ecx,dword ptr ds:[00410A20h]
  004099C4: 8B 01              mov         eax,dword ptr [ecx]
  004099C6: 3D E8 09 41 00     cmp         eax,4109E8h
  004099CB: 74 2D              je          004099FA
  004099CD: 50                 push        eax
  004099CE: E8 1D A5 FF FF     call        00403EF0
  004099D3: 8B 15 20 0A 41 00  mov         edx,dword ptr ds:[00410A20h]
  004099D9: 83 C4 04           add         esp,4
  004099DC: 8B 42 04           mov         eax,dword ptr [edx+4]
  004099DF: 50                 push        eax
  004099E0: E8 0B A5 FF FF     call        00403EF0
  004099E5: 8B 0D 20 0A 41 00  mov         ecx,dword ptr ds:[00410A20h]
  004099EB: 83 C4 04           add         esp,4
  004099EE: 8B 51 08           mov         edx,dword ptr [ecx+8]
  004099F1: 52                 push        edx
  004099F2: E8 F9 A4 FF FF     call        00403EF0
  004099F7: 83 C4 04           add         esp,4
  004099FA: 8B 0D 20 0A 41 00  mov         ecx,dword ptr ds:[00410A20h]
  00409A00: A1 C8 10 41 00     mov         eax,dword ptr ds:[004110C8h]
  00409A05: 89 01              mov         dword ptr [ecx],eax
  00409A07: 8B 15 20 0A 41 00  mov         edx,dword ptr ds:[00410A20h]
  00409A0D: A1 CC 10 41 00     mov         eax,dword ptr ds:[004110CCh]
  00409A12: 89 42 04           mov         dword ptr [edx+4],eax
  00409A15: 8B 0D 20 0A 41 00  mov         ecx,dword ptr ds:[00410A20h]
  00409A1B: 8B 15 D0 10 41 00  mov         edx,dword ptr ds:[004110D0h]
  00409A21: 89 51 08           mov         dword ptr [ecx+8],edx
  00409A24: E9 BE 00 00 00     jmp         00409AE7
  00409A29: A1 C8 10 41 00     mov         eax,dword ptr ds:[004110C8h]
  00409A2E: 50                 push        eax
  00409A2F: E8 BC A4 FF FF     call        00403EF0
  00409A34: 8B 0D CC 10 41 00  mov         ecx,dword ptr ds:[004110CCh]
  00409A3A: 83 C4 04           add         esp,4
  00409A3D: 51                 push        ecx
  00409A3E: E8 AD A4 FF FF     call        00403EF0
  00409A43: 8B 15 D0 10 41 00  mov         edx,dword ptr ds:[004110D0h]
  00409A49: 83 C4 04           add         esp,4
  00409A4C: 52                 push        edx
  00409A4D: E8 9E A4 FF FF     call        00403EF0
  00409A52: 83 C4 04           add         esp,4
  00409A55: 89 1D C8 10 41 00  mov         dword ptr ds:[004110C8h],ebx
  00409A5B: 89 1D CC 10 41 00  mov         dword ptr ds:[004110CCh],ebx
  00409A61: 89 1D D0 10 41 00  mov         dword ptr ds:[004110D0h],ebx
  00409A67: 6A 02              push        2
  00409A69: E8 F2 A4 FF FF     call        00403F60
  00409A6E: 8B 0D 20 0A 41 00  mov         ecx,dword ptr ds:[00410A20h]
  00409A74: 83 C4 04           add         esp,4
  00409A77: 89 01              mov         dword ptr [ecx],eax
  00409A79: 8B 15 20 0A 41 00  mov         edx,dword ptr ds:[00410A20h]
  00409A7F: 8B 02              mov         eax,dword ptr [edx]
  00409A81: 3B C3              cmp         eax,ebx
  00409A83: 75 07              jne         00409A8C
  00409A85: 83 C8 FF           or          eax,0FFFFFFFFh
  00409A88: 5F                 pop         edi
  00409A89: 5E                 pop         esi
  00409A8A: 5B                 pop         ebx
  00409A8B: C3                 ret
  00409A8C: 66 8B 0D 68 C4 40  mov         cx,word ptr ds:[0040C468h]
            00
  00409A93: 6A 02              push        2
  00409A95: 66 89 08           mov         word ptr [eax],cx
  00409A98: E8 C3 A4 FF FF     call        00403F60
  00409A9D: 8B 15 20 0A 41 00  mov         edx,dword ptr ds:[00410A20h]
  00409AA3: 83 C4 04           add         esp,4
  00409AA6: 89 42 04           mov         dword ptr [edx+4],eax
  00409AA9: A1 20 0A 41 00     mov         eax,dword ptr ds:[00410A20h]
  00409AAE: 8B 40 04           mov         eax,dword ptr [eax+4]
  00409AB1: 3B C3              cmp         eax,ebx
  00409AB3: 75 07              jne         00409ABC
  00409AB5: 83 C8 FF           or          eax,0FFFFFFFFh
  00409AB8: 5F                 pop         edi
  00409AB9: 5E                 pop         esi
  00409ABA: 5B                 pop         ebx
  00409ABB: C3                 ret
  00409ABC: 6A 02              push        2
  00409ABE: 88 18              mov         byte ptr [eax],bl
  00409AC0: E8 9B A4 FF FF     call        00403F60
  00409AC5: 8B 0D 20 0A 41 00  mov         ecx,dword ptr ds:[00410A20h]
  00409ACB: 83 C4 04           add         esp,4
  00409ACE: 89 41 08           mov         dword ptr [ecx+8],eax
  00409AD1: 8B 15 20 0A 41 00  mov         edx,dword ptr ds:[00410A20h]
  00409AD7: 8B 42 08           mov         eax,dword ptr [edx+8]
  00409ADA: 3B C3              cmp         eax,ebx
  00409ADC: 75 07              jne         00409AE5
  00409ADE: 83 C8 FF           or          eax,0FFFFFFFFh
  00409AE1: 5F                 pop         edi
  00409AE2: 5E                 pop         esi
  00409AE3: 5B                 pop         ebx
  00409AE4: C3                 ret
  00409AE5: 88 18              mov         byte ptr [eax],bl
  00409AE7: A1 20 0A 41 00     mov         eax,dword ptr ds:[00410A20h]
  00409AEC: 5F                 pop         edi
  00409AED: 5E                 pop         esi
  00409AEE: 5B                 pop         ebx
  00409AEF: 8B 08              mov         ecx,dword ptr [eax]
  00409AF1: 33 C0              xor         eax,eax
  00409AF3: 8A 11              mov         dl,byte ptr [ecx]
  00409AF5: C7 05 D4 FC 40 00  mov         dword ptr ds:[0040FCD4h],1
            01 00 00 00
  00409AFF: 88 15 D0 FC 40 00  mov         byte ptr ds:[0040FCD0h],dl
  00409B05: C3                 ret
  00409B06: 90                 nop
  00409B07: 90                 nop
  00409B08: 90                 nop
  00409B09: 90                 nop
  00409B0A: 90                 nop
  00409B0B: 90                 nop
  00409B0C: 90                 nop
  00409B0D: 90                 nop
  00409B0E: 90                 nop
  00409B0F: 90                 nop
  00409B10: 8B 4C 24 04        mov         ecx,dword ptr [esp+4]
  00409B14: 8A 01              mov         al,byte ptr [ecx]
  00409B16: 84 C0              test        al,al
  00409B18: 74 13              je          00409B2D
  00409B1A: 3C 30              cmp         al,30h
  00409B1C: 7C 10              jl          00409B2E
  00409B1E: 3C 39              cmp         al,39h
  00409B20: 7F 0C              jg          00409B2E
  00409B22: 2C 30              sub         al,30h
  00409B24: 88 01              mov         byte ptr [ecx],al
  00409B26: 41                 inc         ecx
  00409B27: 8A 01              mov         al,byte ptr [ecx]
  00409B29: 84 C0              test        al,al
  00409B2B: 75 ED              jne         00409B1A
  00409B2D: C3                 ret
  00409B2E: 3C 3B              cmp         al,3Bh
  00409B30: 75 F4              jne         00409B26
  00409B32: 8B C1              mov         eax,ecx
  00409B34: 8A 50 01           mov         dl,byte ptr [eax+1]
  00409B37: 88 10              mov         byte ptr [eax],dl
  00409B39: 8A 50 01           mov         dl,byte ptr [eax+1]
  00409B3C: 40                 inc         eax
  00409B3D: 84 D2              test        dl,dl
  00409B3F: 75 F3              jne         00409B34
  00409B41: EB E4              jmp         00409B27
  00409B43: 90                 nop
  00409B44: 90                 nop
  00409B45: 90                 nop
  00409B46: 90                 nop
  00409B47: 90                 nop
  00409B48: 90                 nop
  00409B49: 90                 nop
  00409B4A: 90                 nop
  00409B4B: 90                 nop
  00409B4C: 90                 nop
  00409B4D: 90                 nop
  00409B4E: 90                 nop
  00409B4F: 90                 nop
  00409B50: A1 9C 10 41 00     mov         eax,dword ptr ds:[0041109Ch]
  00409B55: 56                 push        esi
  00409B56: 85 C0              test        eax,eax
  00409B58: 0F 84 8D 00 00 00  je          00409BEB
  00409B5E: 6A 30              push        30h
  00409B60: 6A 01              push        1
  00409B62: E8 D9 A2 FF FF     call        00403E40
  00409B67: 8B F0              mov         esi,eax
  00409B69: 83 C4 08           add         esp,8
  00409B6C: 85 F6              test        esi,esi
  00409B6E: 75 07              jne         00409B77
  00409B70: B8 01 00 00 00     mov         eax,1
  00409B75: 5E                 pop         esi
  00409B76: C3                 ret
  00409B77: 56                 push        esi
  00409B78: E8 C3 00 00 00     call        00409C40
  00409B7D: 83 C4 04           add         esp,4
  00409B80: 85 C0              test        eax,eax
  00409B82: 74 19              je          00409B9D
  00409B84: 56                 push        esi
  00409B85: E8 06 02 00 00     call        00409D90
  00409B8A: 83 C4 04           add         esp,4
  00409B8D: 56                 push        esi
  00409B8E: E8 5D A3 FF FF     call        00403EF0
  00409B93: 83 C4 04           add         esp,4
  00409B96: B8 01 00 00 00     mov         eax,1
  00409B9B: 5E                 pop         esi
  00409B9C: C3                 ret
  00409B9D: A1 20 0A 41 00     mov         eax,dword ptr ds:[00410A20h]
  00409BA2: 8B 08              mov         ecx,dword ptr [eax]
  00409BA4: 89 0E              mov         dword ptr [esi],ecx
  00409BA6: 8B 15 20 0A 41 00  mov         edx,dword ptr ds:[00410A20h]
  00409BAC: 8B 42 04           mov         eax,dword ptr [edx+4]
  00409BAF: 89 46 04           mov         dword ptr [esi+4],eax
  00409BB2: 8B 0D 20 0A 41 00  mov         ecx,dword ptr ds:[00410A20h]
  00409BB8: 8B 51 08           mov         edx,dword ptr [ecx+8]
  00409BBB: 89 56 08           mov         dword ptr [esi+8],edx
  00409BBE: A1 D4 10 41 00     mov         eax,dword ptr ds:[004110D4h]
  00409BC3: 50                 push        eax
  00409BC4: 89 35 20 0A 41 00  mov         dword ptr ds:[00410A20h],esi
  00409BCA: E8 C1 01 00 00     call        00409D90
  00409BCF: 8B 0D D4 10 41 00  mov         ecx,dword ptr ds:[004110D4h]
  00409BD5: 83 C4 04           add         esp,4
  00409BD8: 51                 push        ecx
  00409BD9: E8 12 A3 FF FF     call        00403EF0
  00409BDE: 83 C4 04           add         esp,4
  00409BE1: 89 35 D4 10 41 00  mov         dword ptr ds:[004110D4h],esi
  00409BE7: 33 C0              xor         eax,eax
  00409BE9: 5E                 pop         esi
  00409BEA: C3                 ret
  00409BEB: A1 20 0A 41 00     mov         eax,dword ptr ds:[00410A20h]
  00409BF0: 8B 10              mov         edx,dword ptr [eax]
  00409BF2: 89 15 F0 09 41 00  mov         dword ptr ds:[004109F0h],edx
  00409BF8: 8B 48 04           mov         ecx,dword ptr [eax+4]
  00409BFB: 89 0D F4 09 41 00  mov         dword ptr ds:[004109F4h],ecx
  00409C01: 8B 50 08           mov         edx,dword ptr [eax+8]
  00409C04: A1 D4 10 41 00     mov         eax,dword ptr ds:[004110D4h]
  00409C09: 89 15 F8 09 41 00  mov         dword ptr ds:[004109F8h],edx
  00409C0F: 50                 push        eax
  00409C10: C7 05 20 0A 41 00  mov         dword ptr ds:[00410A20h],4109F0h
            F0 09 41 00
  00409C1A: E8 71 01 00 00     call        00409D90
  00409C1F: 8B 0D D4 10 41 00  mov         ecx,dword ptr ds:[004110D4h]
  00409C25: 83 C4 04           add         esp,4
  00409C28: 51                 push        ecx
  00409C29: E8 C2 A2 FF FF     call        00403EF0
  00409C2E: 83 C4 04           add         esp,4
  00409C31: C7 05 D4 10 41 00  mov         dword ptr ds:[004110D4h],0
            00 00 00 00
  00409C3B: 33 C0              xor         eax,eax
  00409C3D: 5E                 pop         esi
  00409C3E: C3                 ret
  00409C3F: 90                 nop
  00409C40: 53                 push        ebx
  00409C41: 8B 5C 24 08        mov         ebx,dword ptr [esp+8]
  00409C45: 56                 push        esi
  00409C46: 33 F6              xor         esi,esi
  00409C48: 66 8B 35 F4 10 41  mov         si,word ptr ds:[004110F4h]
            00
  00409C4F: 85 DB              test        ebx,ebx
  00409C51: 75 06              jne         00409C59
  00409C53: 83 C8 FF           or          eax,0FFFFFFFFh
  00409C56: 5E                 pop         esi
  00409C57: 5B                 pop         ebx
  00409C58: C3                 ret
  00409C59: 57                 push        edi
  00409C5A: 8D 43 0C           lea         eax,[ebx+0Ch]
  00409C5D: 55                 push        ebp
  00409C5E: 50                 push        eax
  00409C5F: 6A 15              push        15h
  00409C61: 56                 push        esi
  00409C62: 6A 01              push        1
  00409C64: E8 E7 06 00 00     call        0040A350
  00409C69: 83 C4 10           add         esp,10h
  00409C6C: 8D 4B 10           lea         ecx,[ebx+10h]
  00409C6F: 8B F8              mov         edi,eax
  00409C71: 51                 push        ecx
  00409C72: 6A 14              push        14h
  00409C74: 56                 push        esi
  00409C75: 6A 01              push        1
  00409C77: E8 D4 06 00 00     call        0040A350
  00409C7C: 83 C4 10           add         esp,10h
  00409C7F: 8D 53 14           lea         edx,[ebx+14h]
  00409C82: 0B F8              or          edi,eax
  00409C84: 52                 push        edx
  00409C85: 6A 16              push        16h
  00409C87: 56                 push        esi
  00409C88: 6A 01              push        1
  00409C8A: E8 C1 06 00 00     call        0040A350
  00409C8F: 83 C4 10           add         esp,10h
  00409C92: 0B F8              or          edi,eax
  00409C94: 8D 43 18           lea         eax,[ebx+18h]
  00409C97: 50                 push        eax
  00409C98: 6A 17              push        17h
  00409C9A: 56                 push        esi
  00409C9B: 6A 01              push        1
  00409C9D: E8 AE 06 00 00     call        0040A350
  00409CA2: 83 C4 10           add         esp,10h
  00409CA5: 8D 6B 1C           lea         ebp,[ebx+1Ch]
  00409CA8: 0B F8              or          edi,eax
  00409CAA: 55                 push        ebp
  00409CAB: 6A 18              push        18h
  00409CAD: 56                 push        esi
  00409CAE: 6A 01              push        1
  00409CB0: E8 9B 06 00 00     call        0040A350
  00409CB5: 8B 4D 00           mov         ecx,dword ptr [ebp]
  00409CB8: 83 C4 10           add         esp,10h
  00409CBB: 0B F8              or          edi,eax
  00409CBD: 51                 push        ecx
  00409CBE: E8 4D FE FF FF     call        00409B10
  00409CC3: 83 C4 04           add         esp,4
  00409CC6: 8D 53 20           lea         edx,[ebx+20h]
  00409CC9: 52                 push        edx
  00409CCA: 6A 50              push        50h
  00409CCC: 56                 push        esi
  00409CCD: 6A 01              push        1
  00409CCF: E8 7C 06 00 00     call        0040A350
  00409CD4: 83 C4 10           add         esp,10h
  00409CD7: 0B F8              or          edi,eax
  00409CD9: 8D 43 24           lea         eax,[ebx+24h]
  00409CDC: 50                 push        eax
  00409CDD: 6A 51              push        51h
  00409CDF: 56                 push        esi
  00409CE0: 6A 01              push        1
  00409CE2: E8 69 06 00 00     call        0040A350
  00409CE7: 83 C4 10           add         esp,10h
  00409CEA: 8D 4B 28           lea         ecx,[ebx+28h]
  00409CED: 0B F8              or          edi,eax
  00409CEF: 51                 push        ecx
  00409CF0: 6A 1A              push        1Ah
  00409CF2: 56                 push        esi
  00409CF3: 6A 00              push        0
  00409CF5: E8 56 06 00 00     call        0040A350
  00409CFA: 83 C4 10           add         esp,10h
  00409CFD: 8D 53 29           lea         edx,[ebx+29h]
  00409D00: 0B F8              or          edi,eax
  00409D02: 52                 push        edx
  00409D03: 6A 19              push        19h
  00409D05: 56                 push        esi
  00409D06: 6A 00              push        0
  00409D08: E8 43 06 00 00     call        0040A350
  00409D0D: 83 C4 10           add         esp,10h
  00409D10: 0B F8              or          edi,eax
  00409D12: 8D 43 2A           lea         eax,[ebx+2Ah]
  00409D15: 50                 push        eax
  00409D16: 6A 54              push        54h
  00409D18: 56                 push        esi
  00409D19: 6A 00              push        0
  00409D1B: E8 30 06 00 00     call        0040A350
  00409D20: 83 C4 10           add         esp,10h
  00409D23: 8D 4B 2B           lea         ecx,[ebx+2Bh]
  00409D26: 0B F8              or          edi,eax
  00409D28: 51                 push        ecx
  00409D29: 6A 55              push        55h
  00409D2B: 56                 push        esi
  00409D2C: 6A 00              push        0
  00409D2E: E8 1D 06 00 00     call        0040A350
  00409D33: 83 C4 10           add         esp,10h
  00409D36: 8D 53 2C           lea         edx,[ebx+2Ch]
  00409D39: 0B F8              or          edi,eax
  00409D3B: 52                 push        edx
  00409D3C: 6A 56              push        56h
  00409D3E: 56                 push        esi
  00409D3F: 6A 00              push        0
  00409D41: E8 0A 06 00 00     call        0040A350
  00409D46: 83 C4 10           add         esp,10h
  00409D49: 0B F8              or          edi,eax
  00409D4B: 8D 43 2D           lea         eax,[ebx+2Dh]
  00409D4E: 50                 push        eax
  00409D4F: 6A 57              push        57h
  00409D51: 56                 push        esi
  00409D52: 6A 00              push        0
  00409D54: E8 F7 05 00 00     call        0040A350
  00409D59: 83 C4 10           add         esp,10h
  00409D5C: 8D 4B 2E           lea         ecx,[ebx+2Eh]
  00409D5F: 0B F8              or          edi,eax
  00409D61: 51                 push        ecx
  00409D62: 6A 52              push        52h
  00409D64: 56                 push        esi
  00409D65: 6A 00              push        0
  00409D67: E8 E4 05 00 00     call        0040A350
  00409D6C: 83 C4 10           add         esp,10h
  00409D6F: 83 C3 2F           add         ebx,2Fh
  00409D72: 0B F8              or          edi,eax
  00409D74: 53                 push        ebx
  00409D75: 6A 53              push        53h
  00409D77: 56                 push        esi
  00409D78: 6A 00              push        0
  00409D7A: E8 D1 05 00 00     call        0040A350
  00409D7F: 83 C4 10           add         esp,10h
  00409D82: 0B F8              or          edi,eax
  00409D84: 8B C7              mov         eax,edi
  00409D86: 5D                 pop         ebp
  00409D87: 5F                 pop         edi
  00409D88: 5E                 pop         esi
  00409D89: 5B                 pop         ebx
  00409D8A: C3                 ret
  00409D8B: 90                 nop
  00409D8C: 90                 nop
  00409D8D: 90                 nop
  00409D8E: 90                 nop
  00409D8F: 90                 nop
  00409D90: 56                 push        esi
  00409D91: 8B 74 24 08        mov         esi,dword ptr [esp+8]
  00409D95: 85 F6              test        esi,esi
  00409D97: 74 5B              je          00409DF4
  00409D99: 8B 46 0C           mov         eax,dword ptr [esi+0Ch]
  00409D9C: 3D 18 11 41 00     cmp         eax,411118h
  00409DA1: 74 51              je          00409DF4
  00409DA3: 50                 push        eax
  00409DA4: E8 47 A1 FF FF     call        00403EF0
  00409DA9: 8B 46 10           mov         eax,dword ptr [esi+10h]
  00409DAC: 83 C4 04           add         esp,4
  00409DAF: 50                 push        eax
  00409DB0: E8 3B A1 FF FF     call        00403EF0
  00409DB5: 8B 4E 14           mov         ecx,dword ptr [esi+14h]
  00409DB8: 83 C4 04           add         esp,4
  00409DBB: 51                 push        ecx
  00409DBC: E8 2F A1 FF FF     call        00403EF0
  00409DC1: 8B 56 18           mov         edx,dword ptr [esi+18h]
  00409DC4: 83 C4 04           add         esp,4
  00409DC7: 52                 push        edx
  00409DC8: E8 23 A1 FF FF     call        00403EF0
  00409DCD: 8B 46 1C           mov         eax,dword ptr [esi+1Ch]
  00409DD0: 83 C4 04           add         esp,4
  00409DD3: 50                 push        eax
  00409DD4: E8 17 A1 FF FF     call        00403EF0
  00409DD9: 8B 4E 20           mov         ecx,dword ptr [esi+20h]
  00409DDC: 83 C4 04           add         esp,4
  00409DDF: 51                 push        ecx
  00409DE0: E8 0B A1 FF FF     call        00403EF0
  00409DE5: 8B 56 24           mov         edx,dword ptr [esi+24h]
  00409DE8: 83 C4 04           add         esp,4
  00409DEB: 52                 push        edx
  00409DEC: E8 FF A0 FF FF     call        00403EF0
  00409DF1: 83 C4 04           add         esp,4
  00409DF4: 5E                 pop         esi
  00409DF5: C3                 ret
  00409DF6: 90                 nop
  00409DF7: 90                 nop
  00409DF8: 90                 nop
  00409DF9: 90                 nop
  00409DFA: 90                 nop
  00409DFB: 90                 nop
  00409DFC: 90                 nop
  00409DFD: 90                 nop
  00409DFE: 90                 nop
  00409DFF: 90                 nop
  00409E00: A1 98 10 41 00     mov         eax,dword ptr ds:[00411098h]
  00409E05: 83 EC 20           sub         esp,20h
  00409E08: 53                 push        ebx
  00409E09: 55                 push        ebp
  00409E0A: 56                 push        esi
  00409E0B: 57                 push        edi
  00409E0C: 33 ED              xor         ebp,ebp
  00409E0E: 33 FF              xor         edi,edi
  00409E10: 33 DB              xor         ebx,ebx
  00409E12: 3B C5              cmp         eax,ebp
  00409E14: 0F 84 5E 02 00 00  je          0040A078
  00409E1A: 39 2D A8 10 41 00  cmp         dword ptr ds:[004110A8h],ebp
  00409E20: 75 21              jne         00409E43
  00409E22: 33 C0              xor         eax,eax
  00409E24: 68 A8 10 41 00     push        4110A8h
  00409E29: 66 A1 EC 10 41 00  mov         ax,word ptr ds:[004110ECh]
  00409E2F: 6A 0B              push        0Bh
  00409E31: 50                 push        eax
  00409E32: 55                 push        ebp
  00409E33: E8 18 05 00 00     call        0040A350
  00409E38: 83 C4 10           add         esp,10h
  00409E3B: 85 C0              test        eax,eax
  00409E3D: 0F 85 F6 01 00 00  jne         0040A039
  00409E43: 68 02 02 00 00     push        202h
  00409E48: E8 13 A1 FF FF     call        00403F60
  00409E4D: 83 C4 04           add         esp,4
  00409E50: 8B F0              mov         esi,eax
  00409E52: 89 74 24 18        mov         dword ptr [esp+18h],esi
  00409E56: 68 02 02 00 00     push        202h
  00409E5B: E8 00 A1 FF FF     call        00403F60
  00409E60: 83 C4 04           add         esp,4
  00409E63: 8B D8              mov         ebx,eax
  00409E65: 89 5C 24 14        mov         dword ptr [esp+14h],ebx
  00409E69: 68 01 01 00 00     push        101h
  00409E6E: E8 ED A0 FF FF     call        00403F60
  00409E73: 83 C4 04           add         esp,4
  00409E76: 8B F8              mov         edi,eax
  00409E78: 68 02 02 00 00     push        202h
  00409E7D: E8 DE A0 FF FF     call        00403F60
  00409E82: 83 C4 04           add         esp,4
  00409E85: 3B F5              cmp         esi,ebp
  00409E87: 89 44 24 10        mov         dword ptr [esp+10h],eax
  00409E8B: 0F 84 AE 01 00 00  je          0040A03F
  00409E91: 3B DD              cmp         ebx,ebp
  00409E93: 0F 84 A6 01 00 00  je          0040A03F
  00409E99: 3B FD              cmp         edi,ebp
  00409E9B: 0F 84 9E 01 00 00  je          0040A03F
  00409EA1: 3B C5              cmp         eax,ebp
  00409EA3: 0F 84 96 01 00 00  je          0040A03F
  00409EA9: 33 C0              xor         eax,eax
  00409EAB: 88 04 38           mov         byte ptr [eax+edi],al
  00409EAE: 40                 inc         eax
  00409EAF: 3D 00 01 00 00     cmp         eax,100h
  00409EB4: 7C F5              jl          00409EAB
  00409EB6: 8B 15 A8 10 41 00  mov         edx,dword ptr ds:[004110A8h]
  00409EBC: 8D 4C 24 1C        lea         ecx,[esp+1Ch]
  00409EC0: 51                 push        ecx
  00409EC1: 52                 push        edx
  00409EC2: FF 15 8C 33 41 00  call        dword ptr ds:[0041338Ch]
  00409EC8: 85 C0              test        eax,eax
  00409ECA: 0F 84 6F 01 00 00  je          0040A03F
  00409ED0: 8B 44 24 1C        mov         eax,dword ptr [esp+1Ch]
  00409ED4: 83 F8 02           cmp         eax,2
  00409ED7: 0F 87 62 01 00 00  ja          0040A03F
  00409EDD: 25 FF FF 00 00     and         eax,0FFFFh
  00409EE2: 83 F8 01           cmp         eax,1
  00409EE5: A3 CC FC 40 00     mov         dword ptr ds:[0040FCCCh],eax
  00409EEA: 7E 38              jle         00409F24
  00409EEC: 8A 44 24 22        mov         al,byte ptr [esp+22h]
  00409EF0: 84 C0              test        al,al
  00409EF2: 74 30              je          00409F24
  00409EF4: 8D 4C 24 23        lea         ecx,[esp+23h]
  00409EF8: 8A 11              mov         dl,byte ptr [ecx]
  00409EFA: 84 D2              test        dl,dl
  00409EFC: 74 26              je          00409F24
  00409EFE: 33 C0              xor         eax,eax
  00409F00: 81 E2 FF 00 00 00  and         edx,0FFh
  00409F06: 8A 41 FF           mov         al,byte ptr [ecx-1]
  00409F09: 3B C2              cmp         eax,edx
  00409F0B: 7F 0D              jg          00409F1A
  00409F0D: 33 D2              xor         edx,edx
  00409F0F: C6 04 38 00        mov         byte ptr [eax+edi],0
  00409F13: 8A 11              mov         dl,byte ptr [ecx]
  00409F15: 40                 inc         eax
  00409F16: 3B C2              cmp         eax,edx
  00409F18: 7E F3              jle         00409F0D
  00409F1A: 8A 41 01           mov         al,byte ptr [ecx+1]
  00409F1D: 83 C1 02           add         ecx,2
  00409F20: 84 C0              test        al,al
  00409F22: 75 D4              jne         00409EF8
  00409F24: 8D 5E 02           lea         ebx,[esi+2]
  00409F27: 55                 push        ebp
  00409F28: 55                 push        ebp
  00409F29: 53                 push        ebx
  00409F2A: 68 00 01 00 00     push        100h
  00409F2F: 57                 push        edi
  00409F30: 6A 01              push        1
  00409F32: E8 59 EA FF FF     call        00408990
  00409F37: 83 C4 18           add         esp,18h
  00409F3A: 85 C0              test        eax,eax
  00409F3C: 0F 84 FD 00 00 00  je          0040A03F
  00409F42: 8B 54 24 10        mov         edx,dword ptr [esp+10h]
  00409F46: 66 89 2E           mov         word ptr [esi],bp
  00409F49: 8B CA              mov         ecx,edx
  00409F4B: 33 C0              xor         eax,eax
  00409F4D: 66 89 01           mov         word ptr [ecx],ax
  00409F50: 83 C1 02           add         ecx,2
  00409F53: 40                 inc         eax
  00409F54: 3D 00 01 00 00     cmp         eax,100h
  00409F59: 7C F2              jl          00409F4D
  00409F5B: 8B 44 24 14        mov         eax,dword ptr [esp+14h]
  00409F5F: 6A 00              push        0
  00409F61: 6A 00              push        0
  00409F63: 8D 68 02           lea         ebp,[eax+2]
  00409F66: 55                 push        ebp
  00409F67: 68 00 01 00 00     push        100h
  00409F6C: 52                 push        edx
  00409F6D: 6A 01              push        1
  00409F6F: E8 8C E8 FF FF     call        00408800
  00409F74: 83 C4 18           add         esp,18h
  00409F77: 85 C0              test        eax,eax
  00409F79: 0F 84 C0 00 00 00  je          0040A03F
  00409F7F: 8B 4C 24 14        mov         ecx,dword ptr [esp+14h]
  00409F83: 66 C7 01 00 00     mov         word ptr [ecx],0
  00409F88: A1 CC FC 40 00     mov         eax,dword ptr ds:[0040FCCCh]
  00409F8D: 83 F8 01           cmp         eax,1
  00409F90: 7E 48              jle         00409FDA
  00409F92: 8A 44 24 22        mov         al,byte ptr [esp+22h]
  00409F96: 84 C0              test        al,al
  00409F98: 74 40              je          00409FDA
  00409F9A: 8D 74 24 23        lea         esi,[esp+23h]
  00409F9E: 8A 0E              mov         cl,byte ptr [esi]
  00409FA0: 84 C9              test        cl,cl
  00409FA2: 74 32              je          00409FD6
  00409FA4: 33 C0              xor         eax,eax
  00409FA6: 81 E1 FF 00 00 00  and         ecx,0FFh
  00409FAC: 8A 46 FF           mov         al,byte ptr [esi-1]
  00409FAF: 3B C1              cmp         eax,ecx
  00409FB1: 7F 19              jg          00409FCC
  00409FB3: 8B 54 24 18        mov         edx,dword ptr [esp+18h]
  00409FB7: 8D 4C 42 02        lea         ecx,[edx+eax*2+2]
  00409FBB: 33 D2              xor         edx,edx
  00409FBD: 66 C7 01 00 80     mov         word ptr [ecx],8000h
  00409FC2: 8A 16              mov         dl,byte ptr [esi]
  00409FC4: 40                 inc         eax
  00409FC5: 83 C1 02           add         ecx,2
  00409FC8: 3B C2              cmp         eax,edx
  00409FCA: 7E EF              jle         00409FBB
  00409FCC: 8A 46 01           mov         al,byte ptr [esi+1]
  00409FCF: 83 C6 02           add         esi,2
  00409FD2: 84 C0              test        al,al
  00409FD4: 75 C8              jne         00409F9E
  00409FD6: 8B 74 24 18        mov         esi,dword ptr [esp+18h]
  00409FDA: A1 D8 10 41 00     mov         eax,dword ptr ds:[004110D8h]
  00409FDF: 89 1D C0 FA 40 00  mov         dword ptr ds:[0040FAC0h],ebx
  00409FE5: 85 C0              test        eax,eax
  00409FE7: 89 2D C4 FA 40 00  mov         dword ptr ds:[0040FAC4h],ebp
  00409FED: 74 09              je          00409FF8
  00409FEF: 50                 push        eax
  00409FF0: E8 FB 9E FF FF     call        00403EF0
  00409FF5: 83 C4 04           add         esp,4
  00409FF8: A1 DC 10 41 00     mov         eax,dword ptr ds:[004110DCh]
  00409FFD: 89 35 D8 10 41 00  mov         dword ptr ds:[004110D8h],esi
  0040A003: 85 C0              test        eax,eax
  0040A005: 74 09              je          0040A010
  0040A007: 50                 push        eax
  0040A008: E8 E3 9E FF FF     call        00403EF0
  0040A00D: 83 C4 04           add         esp,4
  0040A010: 8B 44 24 14        mov         eax,dword ptr [esp+14h]
  0040A014: 57                 push        edi
  0040A015: A3 DC 10 41 00     mov         dword ptr ds:[004110DCh],eax
  0040A01A: E8 D1 9E FF FF     call        00403EF0
  0040A01F: 8B 4C 24 14        mov         ecx,dword ptr [esp+14h]
  0040A023: 83 C4 04           add         esp,4
  0040A026: 51                 push        ecx
  0040A027: E8 C4 9E FF FF     call        00403EF0
  0040A02C: 83 C4 04           add         esp,4
  0040A02F: 33 C0              xor         eax,eax
  0040A031: 5F                 pop         edi
  0040A032: 5E                 pop         esi
  0040A033: 5D                 pop         ebp
  0040A034: 5B                 pop         ebx
  0040A035: 83 C4 20           add         esp,20h
  0040A038: C3                 ret
  0040A039: 8B 74 24 18        mov         esi,dword ptr [esp+18h]
  0040A03D: EB 04              jmp         0040A043
  0040A03F: 8B 5C 24 10        mov         ebx,dword ptr [esp+10h]
  0040A043: 56                 push        esi
  0040A044: E8 A7 9E FF FF     call        00403EF0
  0040A049: 8B 54 24 18        mov         edx,dword ptr [esp+18h]
  0040A04D: 83 C4 04           add         esp,4
  0040A050: 52                 push        edx
  0040A051: E8 9A 9E FF FF     call        00403EF0
  0040A056: 83 C4 04           add         esp,4
  0040A059: 57                 push        edi
  0040A05A: E8 91 9E FF FF     call        00403EF0
  0040A05F: 83 C4 04           add         esp,4
  0040A062: 53                 push        ebx
  0040A063: E8 88 9E FF FF     call        00403EF0
  0040A068: 83 C4 04           add         esp,4
  0040A06B: B8 01 00 00 00     mov         eax,1
  0040A070: 5F                 pop         edi
  0040A071: 5E                 pop         esi
  0040A072: 5D                 pop         ebp
  0040A073: 5B                 pop         ebx
  0040A074: 83 C4 20           add         esp,20h
  0040A077: C3                 ret
  0040A078: B8 CA FA 40 00     mov         eax,40FACAh
  0040A07D: A3 C0 FA 40 00     mov         dword ptr ds:[0040FAC0h],eax
  0040A082: A3 C4 FA 40 00     mov         dword ptr ds:[0040FAC4h],eax
  0040A087: A1 D8 10 41 00     mov         eax,dword ptr ds:[004110D8h]
  0040A08C: 50                 push        eax
  0040A08D: E8 5E 9E FF FF     call        00403EF0
  0040A092: 8B 0D DC 10 41 00  mov         ecx,dword ptr ds:[004110DCh]
  0040A098: 83 C4 04           add         esp,4
  0040A09B: 51                 push        ecx
  0040A09C: E8 4F 9E FF FF     call        00403EF0
  0040A0A1: 83 C4 04           add         esp,4
  0040A0A4: 89 2D D8 10 41 00  mov         dword ptr ds:[004110D8h],ebp
  0040A0AA: 89 2D DC 10 41 00  mov         dword ptr ds:[004110DCh],ebp
  0040A0B0: 33 C0              xor         eax,eax
  0040A0B2: 5F                 pop         edi
  0040A0B3: 5E                 pop         esi
  0040A0B4: 5D                 pop         ebp
  0040A0B5: 5B                 pop         ebx
  0040A0B6: 83 C4 20           add         esp,20h
  0040A0B9: C3                 ret
  0040A0BA: 90                 nop
  0040A0BB: 90                 nop
  0040A0BC: 90                 nop
  0040A0BD: 90                 nop
  0040A0BE: 90                 nop
  0040A0BF: 90                 nop
  0040A0C0: 33 C0              xor         eax,eax
  0040A0C2: C3                 ret
  0040A0C3: 90                 nop
  0040A0C4: 90                 nop
  0040A0C5: 90                 nop
  0040A0C6: 90                 nop
  0040A0C7: 90                 nop
  0040A0C8: 90                 nop
  0040A0C9: 90                 nop
  0040A0CA: 90                 nop
  0040A0CB: 90                 nop
  0040A0CC: 90                 nop
  0040A0CD: 90                 nop
  0040A0CE: 90                 nop
  0040A0CF: 90                 nop
  0040A0D0: 55                 push        ebp
  0040A0D1: 8B EC              mov         ebp,esp
  0040A0D3: 56                 push        esi
  0040A0D4: 33 C0              xor         eax,eax
  0040A0D6: 50                 push        eax
  0040A0D7: 50                 push        eax
  0040A0D8: 50                 push        eax
  0040A0D9: 50                 push        eax
  0040A0DA: 50                 push        eax
  0040A0DB: 50                 push        eax
  0040A0DC: 50                 push        eax
  0040A0DD: 50                 push        eax
  0040A0DE: 8B 55 0C           mov         edx,dword ptr [ebp+0Ch]
  0040A0E1: 2E 8B C0           mov         eax,eax
  0040A0E4: 8A 02              mov         al,byte ptr [edx]
  0040A0E6: 0A C0              or          al,al
  0040A0E8: 74 07              je          0040A0F1
  0040A0EA: 42                 inc         edx
  0040A0EB: 0F AB 04 24        bts         dword ptr [esp],eax
  0040A0EF: EB F3              jmp         0040A0E4
  0040A0F1: 8B 75 08           mov         esi,dword ptr [ebp+8]
  0040A0F4: 83 C9 FF           or          ecx,0FFFFFFFFh
  0040A0F7: 90                 nop
  0040A0F8: 41                 inc         ecx
  0040A0F9: 8A 06              mov         al,byte ptr [esi]
  0040A0FB: 0A C0              or          al,al
  0040A0FD: 74 07              je          0040A106
  0040A0FF: 46                 inc         esi
  0040A100: 0F A3 04 24        bt          dword ptr [esp],eax
  0040A104: 73 F2              jae         0040A0F8
  0040A106: 8B C1              mov         eax,ecx
  0040A108: 83 C4 20           add         esp,20h
  0040A10B: 5E                 pop         esi
  0040A10C: C9                 leave
  0040A10D: C3                 ret
  0040A10E: CC                 int         3
  0040A10F: CC                 int         3
  0040A110: 55                 push        ebp
  0040A111: 8B EC              mov         ebp,esp
  0040A113: 56                 push        esi
  0040A114: 33 C0              xor         eax,eax
  0040A116: 50                 push        eax
  0040A117: 50                 push        eax
  0040A118: 50                 push        eax
  0040A119: 50                 push        eax
  0040A11A: 50                 push        eax
  0040A11B: 50                 push        eax
  0040A11C: 50                 push        eax
  0040A11D: 50                 push        eax
  0040A11E: 8B 55 0C           mov         edx,dword ptr [ebp+0Ch]
  0040A121: 2E 8B C0           mov         eax,eax
  0040A124: 8A 02              mov         al,byte ptr [edx]
  0040A126: 0A C0              or          al,al
  0040A128: 74 07              je          0040A131
  0040A12A: 42                 inc         edx
  0040A12B: 0F AB 04 24        bts         dword ptr [esp],eax
  0040A12F: EB F3              jmp         0040A124
  0040A131: 8B 75 08           mov         esi,dword ptr [ebp+8]
  0040A134: 8A 06              mov         al,byte ptr [esi]
  0040A136: 0A C0              or          al,al
  0040A138: 74 0A              je          0040A144
  0040A13A: 46                 inc         esi
  0040A13B: 0F A3 04 24        bt          dword ptr [esp],eax
  0040A13F: 73 F3              jae         0040A134
  0040A141: 8D 46 FF           lea         eax,[esi-1]
  0040A144: 83 C4 20           add         esp,20h
  0040A147: 5E                 pop         esi
  0040A148: C9                 leave
  0040A149: C3                 ret
  0040A14A: CC                 int         3
  0040A14B: CC                 int         3
  0040A14C: CC                 int         3
  0040A14D: CC                 int         3
  0040A14E: CC                 int         3
  0040A14F: CC                 int         3
  0040A150: A1 60 12 41 00     mov         eax,dword ptr ds:[00411260h]
  0040A155: 56                 push        esi
  0040A156: 8B 74 24 08        mov         esi,dword ptr [esp+8]
  0040A15A: 57                 push        edi
  0040A15B: 3B F0              cmp         esi,eax
  0040A15D: 73 3D              jae         0040A19C
  0040A15F: 8B C6              mov         eax,esi
  0040A161: 8B CE              mov         ecx,esi
  0040A163: 83 E0 1F           and         eax,1Fh
  0040A166: C1 F9 05           sar         ecx,5
  0040A169: 8D 14 C0           lea         edx,[eax+eax*8]
  0040A16C: 8B 04 8D 60 11 41  mov         eax,dword ptr [ecx*4+00411160h]
            00
  0040A173: F6 44 90 04 01     test        byte ptr [eax+edx*4+4],1
  0040A178: 74 22              je          0040A19C
  0040A17A: 56                 push        esi
  0040A17B: E8 E0 EA FF FF     call        00408C60
  0040A180: 83 C4 04           add         esp,4
  0040A183: 56                 push        esi
  0040A184: E8 37 00 00 00     call        0040A1C0
  0040A189: 83 C4 04           add         esp,4
  0040A18C: 8B F8              mov         edi,eax
  0040A18E: 56                 push        esi
  0040A18F: E8 3C EB FF FF     call        00408CD0
  0040A194: 83 C4 04           add         esp,4
  0040A197: 8B C7              mov         eax,edi
  0040A199: 5F                 pop         edi
  0040A19A: 5E                 pop         esi
  0040A19B: C3                 ret
  0040A19C: E8 1F C2 FF FF     call        004063C0
  0040A1A1: C7 00 09 00 00 00  mov         dword ptr [eax],9
  0040A1A7: E8 24 C2 FF FF     call        004063D0
  0040A1AC: C7 00 00 00 00 00  mov         dword ptr [eax],0
  0040A1B2: 5F                 pop         edi
  0040A1B3: 83 C8 FF           or          eax,0FFFFFFFFh
  0040A1B6: 5E                 pop         esi
  0040A1B7: C3                 ret
  0040A1B8: 90                 nop
  0040A1B9: 90                 nop
  0040A1BA: 90                 nop
  0040A1BB: 90                 nop
  0040A1BC: 90                 nop
  0040A1BD: 90                 nop
  0040A1BE: 90                 nop
  0040A1BF: 90                 nop
  0040A1C0: 56                 push        esi
  0040A1C1: 8B 74 24 08        mov         esi,dword ptr [esp+8]
  0040A1C5: 57                 push        edi
  0040A1C6: 56                 push        esi
  0040A1C7: E8 44 EA FF FF     call        00408C10
  0040A1CC: 83 C4 04           add         esp,4
  0040A1CF: 83 F8 FF           cmp         eax,0FFFFFFFFh
  0040A1D2: 74 42              je          0040A216
  0040A1D4: 83 FE 01           cmp         esi,1
  0040A1D7: 74 05              je          0040A1DE
  0040A1D9: 83 FE 02           cmp         esi,2
  0040A1DC: 75 1A              jne         0040A1F8
  0040A1DE: 6A 01              push        1
  0040A1E0: E8 2B EA FF FF     call        00408C10
  0040A1E5: 83 C4 04           add         esp,4
  0040A1E8: 8B F8              mov         edi,eax
  0040A1EA: 6A 02              push        2
  0040A1EC: E8 1F EA FF FF     call        00408C10
  0040A1F1: 83 C4 04           add         esp,4
  0040A1F4: 3B F8              cmp         edi,eax
  0040A1F6: 74 1E              je          0040A216
  0040A1F8: 56                 push        esi
  0040A1F9: E8 12 EA FF FF     call        00408C10
  0040A1FE: 83 C4 04           add         esp,4
  0040A201: 50                 push        eax
  0040A202: FF 15 3C 33 41 00  call        dword ptr ds:[0041333Ch]
  0040A208: 85 C0              test        eax,eax
  0040A20A: 75 0A              jne         0040A216
  0040A20C: FF 15 3C 34 41 00  call        dword ptr ds:[0041343Ch]
  0040A212: 8B F8              mov         edi,eax
  0040A214: EB 02              jmp         0040A218
  0040A216: 33 FF              xor         edi,edi
  0040A218: 56                 push        esi
  0040A219: E8 52 E9 FF FF     call        00408B70
  0040A21E: 8B C6              mov         eax,esi
  0040A220: 83 E6 1F           and         esi,1Fh
  0040A223: C1 F8 05           sar         eax,5
  0040A226: 8D 0C F6           lea         ecx,[esi+esi*8]
  0040A229: 83 C4 04           add         esp,4
  0040A22C: 8B 14 85 60 11 41  mov         edx,dword ptr [eax*4+00411160h]
            00
  0040A233: 85 FF              test        edi,edi
  0040A235: C6 44 8A 04 00     mov         byte ptr [edx+ecx*4+4],0
  0040A23A: 74 0F              je          0040A24B
  0040A23C: 57                 push        edi
  0040A23D: E8 FE C0 FF FF     call        00406340
  0040A242: 83 C4 04           add         esp,4
  0040A245: 83 C8 FF           or          eax,0FFFFFFFFh
  0040A248: 5F                 pop         edi
  0040A249: 5E                 pop         esi
  0040A24A: C3                 ret
  0040A24B: 5F                 pop         edi
  0040A24C: 33 C0              xor         eax,eax
  0040A24E: 5E                 pop         esi
  0040A24F: C3                 ret
  0040A250: 56                 push        esi
  0040A251: 8B 74 24 08        mov         esi,dword ptr [esp+8]
  0040A255: 8B 46 0C           mov         eax,dword ptr [esi+0Ch]
  0040A258: A8 83              test        al,83h
  0040A25A: 74 25              je          0040A281
  0040A25C: A8 08              test        al,8
  0040A25E: 74 21              je          0040A281
  0040A260: 8B 46 08           mov         eax,dword ptr [esi+8]
  0040A263: 50                 push        eax
  0040A264: E8 87 9C FF FF     call        00403EF0
  0040A269: 8B 46 0C           mov         eax,dword ptr [esi+0Ch]
  0040A26C: 83 C4 04           add         esp,4
  0040A26F: 25 F7 FB FF FF     and         eax,0FFFFFBF7h
  0040A274: 89 46 0C           mov         dword ptr [esi+0Ch],eax
  0040A277: 33 C0              xor         eax,eax
  0040A279: 89 06              mov         dword ptr [esi],eax
  0040A27B: 89 46 08           mov         dword ptr [esi+8],eax
  0040A27E: 89 46 04           mov         dword ptr [esi+4],eax
  0040A281: 5E                 pop         esi
  0040A282: C3                 ret
  0040A283: 90                 nop
  0040A284: 90                 nop
  0040A285: 90                 nop
  0040A286: 90                 nop
  0040A287: 90                 nop
  0040A288: 90                 nop
  0040A289: 90                 nop
  0040A28A: 90                 nop
  0040A28B: 90                 nop
  0040A28C: 90                 nop
  0040A28D: 90                 nop
  0040A28E: 90                 nop
  0040A28F: 90                 nop
  0040A290: 8B 44 24 0C        mov         eax,dword ptr [esp+0Ch]
  0040A294: 85 C0              test        eax,eax
  0040A296: 75 01              jne         0040A299
  0040A298: C3                 ret
  0040A299: 8B 0D A4 0F 41 00  mov         ecx,dword ptr ds:[00410FA4h]
  0040A29F: 8B 54 24 08        mov         edx,dword ptr [esp+8]
  0040A2A3: 51                 push        ecx
  0040A2A4: 8B 0D A8 0F 41 00  mov         ecx,dword ptr ds:[00410FA8h]
  0040A2AA: 50                 push        eax
  0040A2AB: 52                 push        edx
  0040A2AC: 50                 push        eax
  0040A2AD: 8B 44 24 14        mov         eax,dword ptr [esp+14h]
  0040A2B1: 50                 push        eax
  0040A2B2: 6A 01              push        1
  0040A2B4: 51                 push        ecx
  0040A2B5: E8 86 05 00 00     call        0040A840
  0040A2BA: 83 C4 1C           add         esp,1Ch
  0040A2BD: 85 C0              test        eax,eax
  0040A2BF: 75 06              jne         0040A2C7
  0040A2C1: B8 FF FF FF 7F     mov         eax,7FFFFFFFh
  0040A2C6: C3                 ret
  0040A2C7: 83 C0 FE           add         eax,0FFFFFFFEh
  0040A2CA: C3                 ret
  0040A2CB: 90                 nop
  0040A2CC: 90                 nop
  0040A2CD: 90                 nop
  0040A2CE: 90                 nop
  0040A2CF: 90                 nop
  0040A2D0: 53                 push        ebx
  0040A2D1: 8B 1D 74 0D 41 00  mov         ebx,dword ptr ds:[00410D74h]
  0040A2D7: 55                 push        ebp
  0040A2D8: 56                 push        esi
  0040A2D9: 8B 03              mov         eax,dword ptr [ebx]
  0040A2DB: 57                 push        edi
  0040A2DC: 85 C0              test        eax,eax
  0040A2DE: 74 63              je          0040A343
  0040A2E0: 8B 2D 90 33 41 00  mov         ebp,dword ptr ds:[00413390h]
  0040A2E6: 6A 00              push        0
  0040A2E8: 6A 00              push        0
  0040A2EA: 6A 00              push        0
  0040A2EC: 6A 00              push        0
  0040A2EE: 6A FF              push        0FFFFFFFFh
  0040A2F0: 50                 push        eax
  0040A2F1: 6A 00              push        0
  0040A2F3: 6A 01              push        1
  0040A2F5: FF D5              call        ebp
  0040A2F7: 8B F0              mov         esi,eax
  0040A2F9: 85 F6              test        esi,esi
  0040A2FB: 74 3E              je          0040A33B
  0040A2FD: 56                 push        esi
  0040A2FE: E8 5D 9C FF FF     call        00403F60
  0040A303: 8B F8              mov         edi,eax
  0040A305: 83 C4 04           add         esp,4
  0040A308: 85 FF              test        edi,edi
  0040A30A: 74 2F              je          0040A33B
  0040A30C: 8B 03              mov         eax,dword ptr [ebx]
  0040A30E: 6A 00              push        0
  0040A310: 6A 00              push        0
  0040A312: 56                 push        esi
  0040A313: 57                 push        edi
  0040A314: 6A FF              push        0FFFFFFFFh
  0040A316: 50                 push        eax
  0040A317: 6A 00              push        0
  0040A319: 6A 01              push        1
  0040A31B: FF D5              call        ebp
  0040A31D: 85 C0              test        eax,eax
  0040A31F: 74 1A              je          0040A33B
  0040A321: 6A 00              push        0
  0040A323: 57                 push        edi
  0040A324: E8 E7 07 00 00     call        0040AB10
  0040A329: 8B 43 04           mov         eax,dword ptr [ebx+4]
  0040A32C: 83 C3 04           add         ebx,4
  0040A32F: 83 C4 08           add         esp,8
  0040A332: 85 C0              test        eax,eax
  0040A334: 75 B0              jne         0040A2E6
  0040A336: 5F                 pop         edi
  0040A337: 5E                 pop         esi
  0040A338: 5D                 pop         ebp
  0040A339: 5B                 pop         ebx
  0040A33A: C3                 ret
  0040A33B: 83 C8 FF           or          eax,0FFFFFFFFh
  0040A33E: 5F                 pop         edi
  0040A33F: 5E                 pop         esi
  0040A340: 5D                 pop         ebp
  0040A341: 5B                 pop         ebx
  0040A342: C3                 ret
  0040A343: 5F                 pop         edi
  0040A344: 5E                 pop         esi
  0040A345: 5D                 pop         ebp
  0040A346: 33 C0              xor         eax,eax
  0040A348: 5B                 pop         ebx
  0040A349: C3                 ret
  0040A34A: 90                 nop
  0040A34B: 90                 nop
  0040A34C: 90                 nop
  0040A34D: 90                 nop
  0040A34E: 90                 nop
  0040A34F: 90                 nop
  0040A350: 8B 44 24 04        mov         eax,dword ptr [esp+4]
  0040A354: 81 EC 84 00 00 00  sub         esp,84h
  0040A35A: 53                 push        ebx
  0040A35B: 55                 push        ebp
  0040A35C: BD 01 00 00 00     mov         ebp,1
  0040A361: 56                 push        esi
  0040A362: 3B C5              cmp         eax,ebp
  0040A364: 57                 push        edi
  0040A365: 0F 85 E5 00 00 00  jne         0040A450
  0040A36B: 8B 9C 24 A0 00 00  mov         ebx,dword ptr [esp+000000A0h]
            00
  0040A372: 8B AC 24 9C 00 00  mov         ebp,dword ptr [esp+0000009Ch]
            00
  0040A379: 6A 00              push        0
  0040A37B: 8D 44 24 18        lea         eax,[esp+18h]
  0040A37F: 68 80 00 00 00     push        80h
  0040A384: 50                 push        eax
  0040A385: 53                 push        ebx
  0040A386: 55                 push        ebp
  0040A387: 8D 7C 24 28        lea         edi,[esp+28h]
  0040A38B: C7 44 24 24 00 00  mov         dword ptr [esp+24h],0
            00 00
  0040A393: E8 98 02 00 00     call        0040A630
  0040A398: 8B F0              mov         esi,eax
  0040A39A: 83 C4 14           add         esp,14h
  0040A39D: 85 F6              test        esi,esi
  0040A39F: 75 49              jne         0040A3EA
  0040A3A1: FF 15 3C 34 41 00  call        dword ptr ds:[0041343Ch]
  0040A3A7: 83 F8 7A           cmp         eax,7Ah
  0040A3AA: 75 54              jne         0040A400
  0040A3AC: 56                 push        esi
  0040A3AD: 56                 push        esi
  0040A3AE: 56                 push        esi
  0040A3AF: 53                 push        ebx
  0040A3B0: 55                 push        ebp
  0040A3B1: E8 7A 02 00 00     call        0040A630
  0040A3B6: 8B F0              mov         esi,eax
  0040A3B8: 83 C4 14           add         esp,14h
  0040A3BB: 85 F6              test        esi,esi
  0040A3BD: 74 41              je          0040A400
  0040A3BF: 56                 push        esi
  0040A3C0: E8 9B 9B FF FF     call        00403F60
  0040A3C5: 8B F8              mov         edi,eax
  0040A3C7: 83 C4 04           add         esp,4
  0040A3CA: 85 FF              test        edi,edi
  0040A3CC: 74 32              je          0040A400
  0040A3CE: 6A 00              push        0
  0040A3D0: 56                 push        esi
  0040A3D1: 57                 push        edi
  0040A3D2: 53                 push        ebx
  0040A3D3: 55                 push        ebp
  0040A3D4: C7 44 24 24 01 00  mov         dword ptr [esp+24h],1
            00 00
  0040A3DC: E8 4F 02 00 00     call        0040A630
  0040A3E1: 8B F0              mov         esi,eax
  0040A3E3: 83 C4 14           add         esp,14h
  0040A3E6: 85 F6              test        esi,esi
  0040A3E8: 74 16              je          0040A400
  0040A3EA: 56                 push        esi
  0040A3EB: E8 70 9B FF FF     call        00403F60
  0040A3F0: 8B 8C 24 A8 00 00  mov         ecx,dword ptr [esp+000000A8h]
            00
  0040A3F7: 83 C4 04           add         esp,4
  0040A3FA: 85 C0              test        eax,eax
  0040A3FC: 89 01              mov         dword ptr [ecx],eax
  0040A3FE: 75 23              jne         0040A423
  0040A400: 8B 44 24 10        mov         eax,dword ptr [esp+10h]
  0040A404: 85 C0              test        eax,eax
  0040A406: 0F 84 E2 00 00 00  je          0040A4EE
  0040A40C: 57                 push        edi
  0040A40D: E8 DE 9A FF FF     call        00403EF0
  0040A412: 83 C4 04           add         esp,4
  0040A415: 83 C8 FF           or          eax,0FFFFFFFFh
  0040A418: 5F                 pop         edi
  0040A419: 5E                 pop         esi
  0040A41A: 5D                 pop         ebp
  0040A41B: 5B                 pop         ebx
  0040A41C: 81 C4 84 00 00 00  add         esp,84h
  0040A422: C3                 ret
  0040A423: 56                 push        esi
  0040A424: 57                 push        edi
  0040A425: 50                 push        eax
  0040A426: E8 05 A3 FF FF     call        00404730
  0040A42B: 8B 44 24 1C        mov         eax,dword ptr [esp+1Ch]
  0040A42F: 83 C4 0C           add         esp,0Ch
  0040A432: 85 C0              test        eax,eax
  0040A434: 0F 84 A7 00 00 00  je          0040A4E1
  0040A43A: 57                 push        edi
  0040A43B: E8 B0 9A FF FF     call        00403EF0
  0040A440: 83 C4 04           add         esp,4
  0040A443: 33 C0              xor         eax,eax
  0040A445: 5F                 pop         edi
  0040A446: 5E                 pop         esi
  0040A447: 5D                 pop         ebp
  0040A448: 5B                 pop         ebx
  0040A449: 81 C4 84 00 00 00  add         esp,84h
  0040A44F: C3                 ret
  0040A450: 85 C0              test        eax,eax
  0040A452: 0F 85 96 00 00 00  jne         0040A4EE
  0040A458: 8B 94 24 A0 00 00  mov         edx,dword ptr [esp+000000A0h]
            00
  0040A45F: 50                 push        eax
  0040A460: 8B 84 24 A0 00 00  mov         eax,dword ptr [esp+000000A0h]
            00
  0040A467: 6A 04              push        4
  0040A469: 68 10 11 41 00     push        411110h
  0040A46E: 52                 push        edx
  0040A46F: 50                 push        eax
  0040A470: E8 8B 00 00 00     call        0040A500
  0040A475: 83 C4 14           add         esp,14h
  0040A478: 85 C0              test        eax,eax
  0040A47A: 74 72              je          0040A4EE
  0040A47C: 8B BC 24 A4 00 00  mov         edi,dword ptr [esp+000000A4h]
            00
  0040A483: BE 10 11 41 00     mov         esi,411110h
  0040A488: C6 07 00           mov         byte ptr [edi],0
  0040A48B: A1 CC FC 40 00     mov         eax,dword ptr ds:[0040FCCCh]
  0040A490: 8A 1E              mov         bl,byte ptr [esi]
  0040A492: 3B C5              cmp         eax,ebp
  0040A494: 88 5C 24 10        mov         byte ptr [esp+10h],bl
  0040A498: 7E 17              jle         0040A4B1
  0040A49A: 8B 4C 24 10        mov         ecx,dword ptr [esp+10h]
  0040A49E: 6A 04              push        4
  0040A4A0: 81 E1 FF 00 00 00  and         ecx,0FFh
  0040A4A6: 51                 push        ecx
  0040A4A7: E8 54 C6 FF FF     call        00406B00
  0040A4AC: 83 C4 08           add         esp,8
  0040A4AF: EB 15              jmp         0040A4C6
  0040A4B1: 8B 54 24 10        mov         edx,dword ptr [esp+10h]
  0040A4B5: A1 C0 FA 40 00     mov         eax,dword ptr ds:[0040FAC0h]
  0040A4BA: 81 E2 FF 00 00 00  and         edx,0FFh
  0040A4C0: 8A 04 50           mov         al,byte ptr [eax+edx*2]
  0040A4C3: 83 E0 04           and         eax,4
  0040A4C6: 85 C0              test        eax,eax
  0040A4C8: 74 17              je          0040A4E1
  0040A4CA: 8A 07              mov         al,byte ptr [edi]
  0040A4CC: B1 0A              mov         cl,0Ah
  0040A4CE: F6 E9              imul        cl
  0040A4D0: 02 C3              add         al,bl
  0040A4D2: 83 C6 02           add         esi,2
  0040A4D5: 2C 30              sub         al,30h
  0040A4D7: 81 FE 18 11 41 00  cmp         esi,411118h
  0040A4DD: 88 07              mov         byte ptr [edi],al
  0040A4DF: 7C AA              jl          0040A48B
  0040A4E1: 33 C0              xor         eax,eax
  0040A4E3: 5F                 pop         edi
  0040A4E4: 5E                 pop         esi
  0040A4E5: 5D                 pop         ebp
  0040A4E6: 5B                 pop         ebx
  0040A4E7: 81 C4 84 00 00 00  add         esp,84h
  0040A4ED: C3                 ret
  0040A4EE: 5F                 pop         edi
  0040A4EF: 5E                 pop         esi
  0040A4F0: 5D                 pop         ebp
  0040A4F1: 83 C8 FF           or          eax,0FFFFFFFFh
  0040A4F4: 5B                 pop         ebx
  0040A4F5: 81 C4 84 00 00 00  add         esp,84h
  0040A4FB: C3                 ret
  0040A4FC: 90                 nop
  0040A4FD: 90                 nop
  0040A4FE: 90                 nop
  0040A4FF: 90                 nop
  0040A500: A1 1C 11 41 00     mov         eax,dword ptr ds:[0041111Ch]
  0040A505: 53                 push        ebx
  0040A506: 55                 push        ebp
  0040A507: 56                 push        esi
  0040A508: 8B 35 50 33 41 00  mov         esi,dword ptr ds:[00413350h]
  0040A50E: 57                 push        edi
  0040A50F: 85 C0              test        eax,eax
  0040A511: 75 35              jne         0040A548
  0040A513: 6A 00              push        0
  0040A515: 6A 00              push        0
  0040A517: 6A 01              push        1
  0040A519: 6A 00              push        0
  0040A51B: FF D6              call        esi
  0040A51D: 85 C0              test        eax,eax
  0040A51F: 74 07              je          0040A528
  0040A521: B8 01 00 00 00     mov         eax,1
  0040A526: EB 1B              jmp         0040A543
  0040A528: 6A 00              push        0
  0040A52A: 6A 00              push        0
  0040A52C: 6A 01              push        1
  0040A52E: 6A 00              push        0
  0040A530: FF 15 54 33 41 00  call        dword ptr ds:[00413354h]
  0040A536: 85 C0              test        eax,eax
  0040A538: 0F 84 DB 00 00 00  je          0040A619
  0040A53E: B8 02 00 00 00     mov         eax,2
  0040A543: A3 1C 11 41 00     mov         dword ptr ds:[0041111Ch],eax
  0040A548: 83 F8 01           cmp         eax,1
  0040A54B: 75 1B              jne         0040A568
  0040A54D: 8B 44 24 20        mov         eax,dword ptr [esp+20h]
  0040A551: 8B 4C 24 1C        mov         ecx,dword ptr [esp+1Ch]
  0040A555: 8B 54 24 18        mov         edx,dword ptr [esp+18h]
  0040A559: 50                 push        eax
  0040A55A: 8B 44 24 18        mov         eax,dword ptr [esp+18h]
  0040A55E: 51                 push        ecx
  0040A55F: 52                 push        edx
  0040A560: 50                 push        eax
  0040A561: FF D6              call        esi
  0040A563: 5F                 pop         edi
  0040A564: 5E                 pop         esi
  0040A565: 5D                 pop         ebp
  0040A566: 5B                 pop         ebx
  0040A567: C3                 ret
  0040A568: 83 F8 02           cmp         eax,2
  0040A56B: 0F 85 BA 00 00 00  jne         0040A62B
  0040A571: 8B 44 24 24        mov         eax,dword ptr [esp+24h]
  0040A575: 85 C0              test        eax,eax
  0040A577: 75 0A              jne         0040A583
  0040A579: 8B 0D A8 10 41 00  mov         ecx,dword ptr ds:[004110A8h]
  0040A57F: 89 4C 24 24        mov         dword ptr [esp+24h],ecx
  0040A583: 8B 5C 24 18        mov         ebx,dword ptr [esp+18h]
  0040A587: 8B 6C 24 14        mov         ebp,dword ptr [esp+14h]
  0040A58B: 6A 00              push        0
  0040A58D: 6A 00              push        0
  0040A58F: 53                 push        ebx
  0040A590: 55                 push        ebp
  0040A591: FF 15 54 33 41 00  call        dword ptr ds:[00413354h]
  0040A597: 8B F0              mov         esi,eax
  0040A599: 85 F6              test        esi,esi
  0040A59B: 75 05              jne         0040A5A2
  0040A59D: 5F                 pop         edi
  0040A59E: 5E                 pop         esi
  0040A59F: 5D                 pop         ebp
  0040A5A0: 5B                 pop         ebx
  0040A5A1: C3                 ret
  0040A5A2: 56                 push        esi
  0040A5A3: E8 B8 99 FF FF     call        00403F60
  0040A5A8: 8B F8              mov         edi,eax
  0040A5AA: 83 C4 04           add         esp,4
  0040A5AD: 85 FF              test        edi,edi
  0040A5AF: 75 05              jne         0040A5B6
  0040A5B1: 5F                 pop         edi
  0040A5B2: 5E                 pop         esi
  0040A5B3: 5D                 pop         ebp
  0040A5B4: 5B                 pop         ebx
  0040A5B5: C3                 ret
  0040A5B6: 56                 push        esi
  0040A5B7: 57                 push        edi
  0040A5B8: 53                 push        ebx
  0040A5B9: 55                 push        ebp
  0040A5BA: FF 15 54 33 41 00  call        dword ptr ds:[00413354h]
  0040A5C0: 85 C0              test        eax,eax
  0040A5C2: 74 4C              je          0040A610
  0040A5C4: 8B 44 24 20        mov         eax,dword ptr [esp+20h]
  0040A5C8: 85 C0              test        eax,eax
  0040A5CA: 75 28              jne         0040A5F4
  0040A5CC: 8B 54 24 24        mov         edx,dword ptr [esp+24h]
  0040A5D0: 50                 push        eax
  0040A5D1: 50                 push        eax
  0040A5D2: 6A FF              push        0FFFFFFFFh
  0040A5D4: 57                 push        edi
  0040A5D5: 6A 01              push        1
  0040A5D7: 52                 push        edx
  0040A5D8: FF 15 A0 33 41 00  call        dword ptr ds:[004133A0h]
  0040A5DE: 8B F0              mov         esi,eax
  0040A5E0: 85 F6              test        esi,esi
  0040A5E2: 74 2C              je          0040A610
  0040A5E4: 57                 push        edi
  0040A5E5: E8 06 99 FF FF     call        00403EF0
  0040A5EA: 83 C4 04           add         esp,4
  0040A5ED: 8B C6              mov         eax,esi
  0040A5EF: 5F                 pop         edi
  0040A5F0: 5E                 pop         esi
  0040A5F1: 5D                 pop         ebp
  0040A5F2: 5B                 pop         ebx
  0040A5F3: C3                 ret
  0040A5F4: 8B 4C 24 24        mov         ecx,dword ptr [esp+24h]
  0040A5F8: 50                 push        eax
  0040A5F9: 8B 44 24 20        mov         eax,dword ptr [esp+20h]
  0040A5FD: 50                 push        eax
  0040A5FE: 6A FF              push        0FFFFFFFFh
  0040A600: 57                 push        edi
  0040A601: 6A 01              push        1
  0040A603: 51                 push        ecx
  0040A604: FF 15 A0 33 41 00  call        dword ptr ds:[004133A0h]
  0040A60A: 8B F0              mov         esi,eax
  0040A60C: 85 F6              test        esi,esi
  0040A60E: 75 10              jne         0040A620
  0040A610: 57                 push        edi
  0040A611: E8 DA 98 FF FF     call        00403EF0
  0040A616: 83 C4 04           add         esp,4
  0040A619: 33 C0              xor         eax,eax
  0040A61B: 5F                 pop         edi
  0040A61C: 5E                 pop         esi
  0040A61D: 5D                 pop         ebp
  0040A61E: 5B                 pop         ebx
  0040A61F: C3                 ret
  0040A620: 57                 push        edi
  0040A621: E8 CA 98 FF FF     call        00403EF0
  0040A626: 83 C4 04           add         esp,4
  0040A629: 8B C6              mov         eax,esi
  0040A62B: 5F                 pop         edi
  0040A62C: 5E                 pop         esi
  0040A62D: 5D                 pop         ebp
  0040A62E: 5B                 pop         ebx
  0040A62F: C3                 ret
  0040A630: A1 20 11 41 00     mov         eax,dword ptr ds:[00411120h]
  0040A635: 53                 push        ebx
  0040A636: 55                 push        ebp
  0040A637: 56                 push        esi
  0040A638: 8B 35 54 33 41 00  mov         esi,dword ptr ds:[00413354h]
  0040A63E: 57                 push        edi
  0040A63F: 85 C0              test        eax,eax
  0040A641: 75 35              jne         0040A678
  0040A643: 6A 00              push        0
  0040A645: 6A 00              push        0
  0040A647: 6A 01              push        1
  0040A649: 6A 00              push        0
  0040A64B: FF D6              call        esi
  0040A64D: 85 C0              test        eax,eax
  0040A64F: 74 07              je          0040A658
  0040A651: B8 02 00 00 00     mov         eax,2
  0040A656: EB 1B              jmp         0040A673
  0040A658: 6A 00              push        0
  0040A65A: 6A 00              push        0
  0040A65C: 6A 01              push        1
  0040A65E: 6A 00              push        0
  0040A660: FF 15 50 33 41 00  call        dword ptr ds:[00413350h]
  0040A666: 85 C0              test        eax,eax
  0040A668: 0F 84 EA 00 00 00  je          0040A758
  0040A66E: B8 01 00 00 00     mov         eax,1
  0040A673: A3 20 11 41 00     mov         dword ptr ds:[00411120h],eax
  0040A678: 83 F8 02           cmp         eax,2
  0040A67B: 75 1B              jne         0040A698
  0040A67D: 8B 44 24 20        mov         eax,dword ptr [esp+20h]
  0040A681: 8B 4C 24 1C        mov         ecx,dword ptr [esp+1Ch]
  0040A685: 8B 54 24 18        mov         edx,dword ptr [esp+18h]
  0040A689: 50                 push        eax
  0040A68A: 8B 44 24 18        mov         eax,dword ptr [esp+18h]
  0040A68E: 51                 push        ecx
  0040A68F: 52                 push        edx
  0040A690: 50                 push        eax
  0040A691: FF D6              call        esi
  0040A693: 5F                 pop         edi
  0040A694: 5E                 pop         esi
  0040A695: 5D                 pop         ebp
  0040A696: 5B                 pop         ebx
  0040A697: C3                 ret
  0040A698: 83 F8 01           cmp         eax,1
  0040A69B: 0F 85 C9 00 00 00  jne         0040A76A
  0040A6A1: 8B 44 24 24        mov         eax,dword ptr [esp+24h]
  0040A6A5: 85 C0              test        eax,eax
  0040A6A7: 75 0A              jne         0040A6B3
  0040A6A9: 8B 0D A8 10 41 00  mov         ecx,dword ptr ds:[004110A8h]
  0040A6AF: 89 4C 24 24        mov         dword ptr [esp+24h],ecx
  0040A6B3: 8B 5C 24 18        mov         ebx,dword ptr [esp+18h]
  0040A6B7: 8B 6C 24 14        mov         ebp,dword ptr [esp+14h]
  0040A6BB: 6A 00              push        0
  0040A6BD: 6A 00              push        0
  0040A6BF: 53                 push        ebx
  0040A6C0: 55                 push        ebp
  0040A6C1: FF 15 50 33 41 00  call        dword ptr ds:[00413350h]
  0040A6C7: 8B F8              mov         edi,eax
  0040A6C9: 85 FF              test        edi,edi
  0040A6CB: 75 05              jne         0040A6D2
  0040A6CD: 5F                 pop         edi
  0040A6CE: 5E                 pop         esi
  0040A6CF: 5D                 pop         ebp
  0040A6D0: 5B                 pop         ebx
  0040A6D1: C3                 ret
  0040A6D2: 8D 14 3F           lea         edx,[edi+edi]
  0040A6D5: 52                 push        edx
  0040A6D6: E8 85 98 FF FF     call        00403F60
  0040A6DB: 8B F0              mov         esi,eax
  0040A6DD: 83 C4 04           add         esp,4
  0040A6E0: 85 F6              test        esi,esi
  0040A6E2: 75 05              jne         0040A6E9
  0040A6E4: 5F                 pop         edi
  0040A6E5: 5E                 pop         esi
  0040A6E6: 5D                 pop         ebp
  0040A6E7: 5B                 pop         ebx
  0040A6E8: C3                 ret
  0040A6E9: 57                 push        edi
  0040A6EA: 56                 push        esi
  0040A6EB: 53                 push        ebx
  0040A6EC: 55                 push        ebp
  0040A6ED: FF 15 50 33 41 00  call        dword ptr ds:[00413350h]
  0040A6F3: 85 C0              test        eax,eax
  0040A6F5: 74 58              je          0040A74F
  0040A6F7: 8B 44 24 20        mov         eax,dword ptr [esp+20h]
  0040A6FB: 6A 00              push        0
  0040A6FD: 85 C0              test        eax,eax
  0040A6FF: 6A 00              push        0
  0040A701: 75 2D              jne         0040A730
  0040A703: 8B 44 24 2C        mov         eax,dword ptr [esp+2Ch]
  0040A707: 6A 00              push        0
  0040A709: 6A 00              push        0
  0040A70B: 6A FF              push        0FFFFFFFFh
  0040A70D: 56                 push        esi
  0040A70E: 68 20 02 00 00     push        220h
  0040A713: 50                 push        eax
  0040A714: FF 15 90 33 41 00  call        dword ptr ds:[00413390h]
  0040A71A: 8B F8              mov         edi,eax
  0040A71C: 85 FF              test        edi,edi
  0040A71E: 74 2F              je          0040A74F
  0040A720: 56                 push        esi
  0040A721: E8 CA 97 FF FF     call        00403EF0
  0040A726: 83 C4 04           add         esp,4
  0040A729: 8B C7              mov         eax,edi
  0040A72B: 5F                 pop         edi
  0040A72C: 5E                 pop         esi
  0040A72D: 5D                 pop         ebp
  0040A72E: 5B                 pop         ebx
  0040A72F: C3                 ret
  0040A730: 8B 4C 24 24        mov         ecx,dword ptr [esp+24h]
  0040A734: 8B 54 24 2C        mov         edx,dword ptr [esp+2Ch]
  0040A738: 50                 push        eax
  0040A739: 51                 push        ecx
  0040A73A: 6A FF              push        0FFFFFFFFh
  0040A73C: 56                 push        esi
  0040A73D: 68 20 02 00 00     push        220h
  0040A742: 52                 push        edx
  0040A743: FF 15 90 33 41 00  call        dword ptr ds:[00413390h]
  0040A749: 8B F8              mov         edi,eax
  0040A74B: 85 FF              test        edi,edi
  0040A74D: 75 10              jne         0040A75F
  0040A74F: 56                 push        esi
  0040A750: E8 9B 97 FF FF     call        00403EF0
  0040A755: 83 C4 04           add         esp,4
  0040A758: 33 C0              xor         eax,eax
  0040A75A: 5F                 pop         edi
  0040A75B: 5E                 pop         esi
  0040A75C: 5D                 pop         ebp
  0040A75D: 5B                 pop         ebx
  0040A75E: C3                 ret
  0040A75F: 56                 push        esi
  0040A760: E8 8B 97 FF FF     call        00403EF0
  0040A765: 83 C4 04           add         esp,4
  0040A768: 8B C7              mov         eax,edi
  0040A76A: 5F                 pop         edi
  0040A76B: 5E                 pop         esi
  0040A76C: 5D                 pop         ebp
  0040A76D: 5B                 pop         ebx
  0040A76E: C3                 ret
  0040A76F: 90                 nop
  0040A770: 55                 push        ebp
  0040A771: 8B EC              mov         ebp,esp
  0040A773: 57                 push        edi
  0040A774: 56                 push        esi
  0040A775: 53                 push        ebx
  0040A776: 8B 75 0C           mov         esi,dword ptr [ebp+0Ch]
  0040A779: 8B 7D 08           mov         edi,dword ptr [ebp+8]
  0040A77C: 8D 05 90 10 41 00  lea         eax,ds:[00411090h]
  0040A782: 83 78 08 00        cmp         dword ptr [eax+8],0
  0040A786: 75 3B              jne         0040A7C3
  0040A788: B0 FF              mov         al,0FFh
  0040A78A: 8B C0              mov         eax,eax
  0040A78C: 0A C0              or          al,al
  0040A78E: 74 2E              je          0040A7BE
  0040A790: 8A 06              mov         al,byte ptr [esi]
  0040A792: 46                 inc         esi
  0040A793: 8A 27              mov         ah,byte ptr [edi]
  0040A795: 47                 inc         edi
  0040A796: 38 C4              cmp         ah,al
  0040A798: 74 F2              je          0040A78C
  0040A79A: 2C 41              sub         al,41h
  0040A79C: 3C 1A              cmp         al,1Ah
  0040A79E: 1A C9              sbb         cl,cl
  0040A7A0: 80 E1 20           and         cl,20h
  0040A7A3: 02 C1              add         al,cl
  0040A7A5: 04 41              add         al,41h
  0040A7A7: 86 E0              xchg        ah,al
  0040A7A9: 2C 41              sub         al,41h
  0040A7AB: 3C 1A              cmp         al,1Ah
  0040A7AD: 1A C9              sbb         cl,cl
  0040A7AF: 80 E1 20           and         cl,20h
  0040A7B2: 02 C1              add         al,cl
  0040A7B4: 04 41              add         al,41h
  0040A7B6: 38 E0              cmp         al,ah
  0040A7B8: 74 D2              je          0040A78C
  0040A7BA: 1A C0              sbb         al,al
  0040A7BC: 1C FF              sbb         al,0FFh
  0040A7BE: 0F BE C0           movsx       eax,al
  0040A7C1: EB 78              jmp         0040A83B
  0040A7C3: F0 FF 05 48 11 41  lock inc    dword ptr ds:[00411148h]
            00
  0040A7CA: 83 3D 44 11 41 00  cmp         dword ptr ds:[00411144h],0
            00
  0040A7D1: 7F 04              jg          0040A7D7
  0040A7D3: 6A 00              push        0
  0040A7D5: EB 15              jmp         0040A7EC
  0040A7D7: F0 FF 0D 48 11 41  lock dec    dword ptr ds:[00411148h]
            00
  0040A7DE: 6A 13              push        13h
  0040A7E0: E8 0B B1 FF FF     call        004058F0
  0040A7E5: C7 04 24 01 00 00  mov         dword ptr [esp],1
            00
  0040A7EC: B8 FF 00 00 00     mov         eax,0FFh
  0040A7F1: 33 DB              xor         ebx,ebx
  0040A7F3: 90                 nop
  0040A7F4: 0A C0              or          al,al
  0040A7F6: 74 27              je          0040A81F
  0040A7F8: 8A 06              mov         al,byte ptr [esi]
  0040A7FA: 46                 inc         esi
  0040A7FB: 8A 1F              mov         bl,byte ptr [edi]
  0040A7FD: 47                 inc         edi
  0040A7FE: 38 D8              cmp         al,bl
  0040A800: 74 F2              je          0040A7F4
  0040A802: 50                 push        eax
  0040A803: 53                 push        ebx
  0040A804: E8 07 06 00 00     call        0040AE10
  0040A809: 8B D8              mov         ebx,eax
  0040A80B: 83 C4 04           add         esp,4
  0040A80E: E8 FD 05 00 00     call        0040AE10
  0040A813: 83 C4 04           add         esp,4
  0040A816: 38 C3              cmp         bl,al
  0040A818: 74 DA              je          0040A7F4
  0040A81A: 1B C0              sbb         eax,eax
  0040A81C: 83 D8 FF           sbb         eax,0FFFFFFFFh
  0040A81F: 8B D8              mov         ebx,eax
  0040A821: 58                 pop         eax
  0040A822: 0B C0              or          eax,eax
  0040A824: 75 09              jne         0040A82F
  0040A826: F0 FF 0D 48 11 41  lock dec    dword ptr ds:[00411148h]
            00
  0040A82D: EB 0A              jmp         0040A839
  0040A82F: 6A 13              push        13h
  0040A831: E8 3A B1 FF FF     call        00405970
  0040A836: 83 C4 04           add         esp,4
  0040A839: 8B C3              mov         eax,ebx
  0040A83B: 5B                 pop         ebx
  0040A83C: 5E                 pop         esi
  0040A83D: 5F                 pop         edi
  0040A83E: C9                 leave
  0040A83F: C3                 ret
  0040A840: A1 28 11 41 00     mov         eax,dword ptr ds:[00411128h]
  0040A845: 83 EC 18           sub         esp,18h
  0040A848: 85 C0              test        eax,eax
  0040A84A: 53                 push        ebx
  0040A84B: 8B 1D 4C 33 41 00  mov         ebx,dword ptr ds:[0041334Ch]
  0040A851: 55                 push        ebp
  0040A852: 56                 push        esi
  0040A853: 57                 push        edi
  0040A854: 75 4E              jne         0040A8A4
  0040A856: 6A 01              push        1
  0040A858: 68 E4 C3 40 00     push        40C3E4h
  0040A85D: 6A 01              push        1
  0040A85F: 68 E4 C3 40 00     push        40C3E4h
  0040A864: 6A 00              push        0
  0040A866: 6A 00              push        0
  0040A868: FF D3              call        ebx
  0040A86A: 85 C0              test        eax,eax
  0040A86C: 74 0C              je          0040A87A
  0040A86E: C7 05 28 11 41 00  mov         dword ptr ds:[00411128h],2
            02 00 00 00
  0040A878: EB 2A              jmp         0040A8A4
  0040A87A: 6A 01              push        1
  0040A87C: 68 E8 C3 40 00     push        40C3E8h
  0040A881: 6A 01              push        1
  0040A883: 68 E8 C3 40 00     push        40C3E8h
  0040A888: 6A 00              push        0
  0040A88A: 6A 00              push        0
  0040A88C: FF 15 48 33 41 00  call        dword ptr ds:[00413348h]
  0040A892: 85 C0              test        eax,eax
  0040A894: 0F 84 C6 01 00 00  je          0040AA60
  0040A89A: C7 05 28 11 41 00  mov         dword ptr ds:[00411128h],1
            01 00 00 00
  0040A8A4: 8B 74 24 38        mov         esi,dword ptr [esp+38h]
  0040A8A8: 85 F6              test        esi,esi
  0040A8AA: 7E 12              jle         0040A8BE
  0040A8AC: 8B 6C 24 34        mov         ebp,dword ptr [esp+34h]
  0040A8B0: 56                 push        esi
  0040A8B1: 55                 push        ebp
  0040A8B2: E8 49 0B 00 00     call        0040B400
  0040A8B7: 83 C4 08           add         esp,8
  0040A8BA: 8B F0              mov         esi,eax
  0040A8BC: EB 04              jmp         0040A8C2
  0040A8BE: 8B 6C 24 34        mov         ebp,dword ptr [esp+34h]
  0040A8C2: 8B 7C 24 40        mov         edi,dword ptr [esp+40h]
  0040A8C6: 85 FF              test        edi,edi
  0040A8C8: 7E 14              jle         0040A8DE
  0040A8CA: 8B 44 24 3C        mov         eax,dword ptr [esp+3Ch]
  0040A8CE: 57                 push        edi
  0040A8CF: 50                 push        eax
  0040A8D0: E8 2B 0B 00 00     call        0040B400
  0040A8D5: 83 C4 08           add         esp,8
  0040A8D8: 89 44 24 40        mov         dword ptr [esp+40h],eax
  0040A8DC: 8B F8              mov         edi,eax
  0040A8DE: A1 28 11 41 00     mov         eax,dword ptr ds:[00411128h]
  0040A8E3: 83 F8 02           cmp         eax,2
  0040A8E6: 75 1C              jne         0040A904
  0040A8E8: 8B 4C 24 3C        mov         ecx,dword ptr [esp+3Ch]
  0040A8EC: 8B 54 24 30        mov         edx,dword ptr [esp+30h]
  0040A8F0: 8B 44 24 2C        mov         eax,dword ptr [esp+2Ch]
  0040A8F4: 57                 push        edi
  0040A8F5: 51                 push        ecx
  0040A8F6: 56                 push        esi
  0040A8F7: 55                 push        ebp
  0040A8F8: 52                 push        edx
  0040A8F9: 50                 push        eax
  0040A8FA: FF D3              call        ebx
  0040A8FC: 5F                 pop         edi
  0040A8FD: 5E                 pop         esi
  0040A8FE: 5D                 pop         ebp
  0040A8FF: 5B                 pop         ebx
  0040A900: 83 C4 18           add         esp,18h
  0040A903: C3                 ret
  0040A904: 83 F8 01           cmp         eax,1
  0040A907: 0F 85 F0 01 00 00  jne         0040AAFD
  0040A90D: 8B 5C 24 44        mov         ebx,dword ptr [esp+44h]
  0040A911: 33 C0              xor         eax,eax
  0040A913: 85 DB              test        ebx,ebx
  0040A915: 89 44 24 10        mov         dword ptr [esp+10h],eax
  0040A919: 89 44 24 38        mov         dword ptr [esp+38h],eax
  0040A91D: 75 06              jne         0040A925
  0040A91F: 8B 1D A8 10 41 00  mov         ebx,dword ptr ds:[004110A8h]
  0040A925: 85 F6              test        esi,esi
  0040A927: 74 08              je          0040A931
  0040A929: 85 FF              test        edi,edi
  0040A92B: 0F 85 FB 00 00 00  jne         0040AA2C
  0040A931: 3B F7              cmp         esi,edi
  0040A933: 75 0D              jne         0040A942
  0040A935: B8 02 00 00 00     mov         eax,2
  0040A93A: 5F                 pop         edi
  0040A93B: 5E                 pop         esi
  0040A93C: 5D                 pop         ebp
  0040A93D: 5B                 pop         ebx
  0040A93E: 83 C4 18           add         esp,18h
  0040A941: C3                 ret
  0040A942: 83 FF 01           cmp         edi,1
  0040A945: 7E 0D              jle         0040A954
  0040A947: B8 01 00 00 00     mov         eax,1
  0040A94C: 5F                 pop         edi
  0040A94D: 5E                 pop         esi
  0040A94E: 5D                 pop         ebp
  0040A94F: 5B                 pop         ebx
  0040A950: 83 C4 18           add         esp,18h
  0040A953: C3                 ret
  0040A954: 83 FE 01           cmp         esi,1
  0040A957: 7E 0D              jle         0040A966
  0040A959: B8 03 00 00 00     mov         eax,3
  0040A95E: 5F                 pop         edi
  0040A95F: 5E                 pop         esi
  0040A960: 5D                 pop         ebp
  0040A961: 5B                 pop         ebx
  0040A962: 83 C4 18           add         esp,18h
  0040A965: C3                 ret
  0040A966: 8D 4C 24 14        lea         ecx,[esp+14h]
  0040A96A: 51                 push        ecx
  0040A96B: 53                 push        ebx
  0040A96C: FF 15 8C 33 41 00  call        dword ptr ds:[0041338Ch]
  0040A972: 85 C0              test        eax,eax
  0040A974: 75 08              jne         0040A97E
  0040A976: 5F                 pop         edi
  0040A977: 5E                 pop         esi
  0040A978: 5D                 pop         ebp
  0040A979: 5B                 pop         ebx
  0040A97A: 83 C4 18           add         esp,18h
  0040A97D: C3                 ret
  0040A97E: 85 F6              test        esi,esi
  0040A980: 7E 4B              jle         0040A9CD
  0040A982: 83 7C 24 14 02     cmp         dword ptr [esp+14h],2
  0040A987: 73 0D              jae         0040A996
  0040A989: B8 03 00 00 00     mov         eax,3
  0040A98E: 5F                 pop         edi
  0040A98F: 5E                 pop         esi
  0040A990: 5D                 pop         ebp
  0040A991: 5B                 pop         ebx
  0040A992: 83 C4 18           add         esp,18h
  0040A995: C3                 ret
  0040A996: 8A 4C 24 1A        mov         cl,byte ptr [esp+1Ah]
  0040A99A: 8D 44 24 1A        lea         eax,[esp+1Ah]
  0040A99E: 84 C9              test        cl,cl
  0040A9A0: 74 1E              je          0040A9C0
  0040A9A2: 8A 50 01           mov         dl,byte ptr [eax+1]
  0040A9A5: 84 D2              test        dl,dl
  0040A9A7: 74 17              je          0040A9C0
  0040A9A9: 8A 4D 00           mov         cl,byte ptr [ebp]
  0040A9AC: 8A 18              mov         bl,byte ptr [eax]
  0040A9AE: 3A CB              cmp         cl,bl
  0040A9B0: 72 04              jb          0040A9B6
  0040A9B2: 3A CA              cmp         cl,dl
  0040A9B4: 76 69              jbe         0040AA1F
  0040A9B6: 8A 48 02           mov         cl,byte ptr [eax+2]
  0040A9B9: 83 C0 02           add         eax,2
  0040A9BC: 84 C9              test        cl,cl
  0040A9BE: 75 E2              jne         0040A9A2
  0040A9C0: B8 03 00 00 00     mov         eax,3
  0040A9C5: 5F                 pop         edi
  0040A9C6: 5E                 pop         esi
  0040A9C7: 5D                 pop         ebp
  0040A9C8: 5B                 pop         ebx
  0040A9C9: 83 C4 18           add         esp,18h
  0040A9CC: C3                 ret
  0040A9CD: 85 FF              test        edi,edi
  0040A9CF: 7E 5B              jle         0040AA2C
  0040A9D1: 83 7C 24 14 02     cmp         dword ptr [esp+14h],2
  0040A9D6: 73 0D              jae         0040A9E5
  0040A9D8: B8 01 00 00 00     mov         eax,1
  0040A9DD: 5F                 pop         edi
  0040A9DE: 5E                 pop         esi
  0040A9DF: 5D                 pop         ebp
  0040A9E0: 5B                 pop         ebx
  0040A9E1: 83 C4 18           add         esp,18h
  0040A9E4: C3                 ret
  0040A9E5: 8A 4C 24 1A        mov         cl,byte ptr [esp+1Ah]
  0040A9E9: 8D 44 24 1A        lea         eax,[esp+1Ah]
  0040A9ED: 84 C9              test        cl,cl
  0040A9EF: 74 21              je          0040AA12
  0040A9F1: 8A 50 01           mov         dl,byte ptr [eax+1]
  0040A9F4: 84 D2              test        dl,dl
  0040A9F6: 74 1A              je          0040AA12
  0040A9F8: 8B 4C 24 3C        mov         ecx,dword ptr [esp+3Ch]
  0040A9FC: 8A 18              mov         bl,byte ptr [eax]
  0040A9FE: 8A 09              mov         cl,byte ptr [ecx]
  0040AA00: 3A CB              cmp         cl,bl
  0040AA02: 72 04              jb          0040AA08
  0040AA04: 3A CA              cmp         cl,dl
  0040AA06: 76 17              jbe         0040AA1F
  0040AA08: 8A 48 02           mov         cl,byte ptr [eax+2]
  0040AA0B: 83 C0 02           add         eax,2
  0040AA0E: 84 C9              test        cl,cl
  0040AA10: 75 DF              jne         0040A9F1
  0040AA12: B8 01 00 00 00     mov         eax,1
  0040AA17: 5F                 pop         edi
  0040AA18: 5E                 pop         esi
  0040AA19: 5D                 pop         ebp
  0040AA1A: 5B                 pop         ebx
  0040AA1B: 83 C4 18           add         esp,18h
  0040AA1E: C3                 ret
  0040AA1F: B8 02 00 00 00     mov         eax,2
  0040AA24: 5F                 pop         edi
  0040AA25: 5E                 pop         esi
  0040AA26: 5D                 pop         ebp
  0040AA27: 5B                 pop         ebx
  0040AA28: 83 C4 18           add         esp,18h
  0040AA2B: C3                 ret
  0040AA2C: 8B 3D A0 33 41 00  mov         edi,dword ptr ds:[004133A0h]
  0040AA32: 6A 00              push        0
  0040AA34: 6A 00              push        0
  0040AA36: 56                 push        esi
  0040AA37: 55                 push        ebp
  0040AA38: 6A 09              push        9
  0040AA3A: 53                 push        ebx
  0040AA3B: FF D7              call        edi
  0040AA3D: 8B E8              mov         ebp,eax
  0040AA3F: 85 ED              test        ebp,ebp
  0040AA41: 75 08              jne         0040AA4B
  0040AA43: 5F                 pop         edi
  0040AA44: 5E                 pop         esi
  0040AA45: 5D                 pop         ebp
  0040AA46: 5B                 pop         ebx
  0040AA47: 83 C4 18           add         esp,18h
  0040AA4A: C3                 ret
  0040AA4B: 8D 54 2D 00        lea         edx,[ebp+ebp]
  0040AA4F: 52                 push        edx
  0040AA50: E8 0B 95 FF FF     call        00403F60
  0040AA55: 83 C4 04           add         esp,4
  0040AA58: 89 44 24 44        mov         dword ptr [esp+44h],eax
  0040AA5C: 85 C0              test        eax,eax
  0040AA5E: 75 0A              jne         0040AA6A
  0040AA60: 33 C0              xor         eax,eax
  0040AA62: 5F                 pop         edi
  0040AA63: 5E                 pop         esi
  0040AA64: 5D                 pop         ebp
  0040AA65: 5B                 pop         ebx
  0040AA66: 83 C4 18           add         esp,18h
  0040AA69: C3                 ret
  0040AA6A: 55                 push        ebp
  0040AA6B: 50                 push        eax
  0040AA6C: 8B 44 24 3C        mov         eax,dword ptr [esp+3Ch]
  0040AA70: 56                 push        esi
  0040AA71: 50                 push        eax
  0040AA72: 6A 01              push        1
  0040AA74: 53                 push        ebx
  0040AA75: FF D7              call        edi
  0040AA77: 85 C0              test        eax,eax
  0040AA79: 74 62              je          0040AADD
  0040AA7B: 8B 4C 24 40        mov         ecx,dword ptr [esp+40h]
  0040AA7F: 8B 54 24 3C        mov         edx,dword ptr [esp+3Ch]
  0040AA83: 6A 00              push        0
  0040AA85: 6A 00              push        0
  0040AA87: 51                 push        ecx
  0040AA88: 52                 push        edx
  0040AA89: 6A 09              push        9
  0040AA8B: 53                 push        ebx
  0040AA8C: FF D7              call        edi
  0040AA8E: 8B F0              mov         esi,eax
  0040AA90: 85 F6              test        esi,esi
  0040AA92: 74 49              je          0040AADD
  0040AA94: 8D 04 36           lea         eax,[esi+esi]
  0040AA97: 50                 push        eax
  0040AA98: E8 C3 94 FF FF     call        00403F60
  0040AA9D: 83 C4 04           add         esp,4
  0040AAA0: 89 44 24 38        mov         dword ptr [esp+38h],eax
  0040AAA4: 85 C0              test        eax,eax
  0040AAA6: 74 35              je          0040AADD
  0040AAA8: 8B 4C 24 40        mov         ecx,dword ptr [esp+40h]
  0040AAAC: 8B 54 24 3C        mov         edx,dword ptr [esp+3Ch]
  0040AAB0: 56                 push        esi
  0040AAB1: 50                 push        eax
  0040AAB2: 51                 push        ecx
  0040AAB3: 52                 push        edx
  0040AAB4: 6A 01              push        1
  0040AAB6: 53                 push        ebx
  0040AAB7: FF D7              call        edi
  0040AAB9: 85 C0              test        eax,eax
  0040AABB: 74 20              je          0040AADD
  0040AABD: 8B 44 24 38        mov         eax,dword ptr [esp+38h]
  0040AAC1: 8B 4C 24 44        mov         ecx,dword ptr [esp+44h]
  0040AAC5: 8B 54 24 30        mov         edx,dword ptr [esp+30h]
  0040AAC9: 56                 push        esi
  0040AACA: 50                 push        eax
  0040AACB: 8B 44 24 34        mov         eax,dword ptr [esp+34h]
  0040AACF: 55                 push        ebp
  0040AAD0: 51                 push        ecx
  0040AAD1: 52                 push        edx
  0040AAD2: 50                 push        eax
  0040AAD3: FF 15 48 33 41 00  call        dword ptr ds:[00413348h]
  0040AAD9: 8B F0              mov         esi,eax
  0040AADB: EB 04              jmp         0040AAE1
  0040AADD: 8B 74 24 10        mov         esi,dword ptr [esp+10h]
  0040AAE1: 8B 4C 24 44        mov         ecx,dword ptr [esp+44h]
  0040AAE5: 51                 push        ecx
  0040AAE6: E8 05 94 FF FF     call        00403EF0
  0040AAEB: 8B 54 24 3C        mov         edx,dword ptr [esp+3Ch]
  0040AAEF: 83 C4 04           add         esp,4
  0040AAF2: 52                 push        edx
  0040AAF3: E8 F8 93 FF FF     call        00403EF0
  0040AAF8: 83 C4 04           add         esp,4
  0040AAFB: 8B C6              mov         eax,esi
  0040AAFD: 5F                 pop         edi
  0040AAFE: 5E                 pop         esi
  0040AAFF: 5D                 pop         ebp
  0040AB00: 5B                 pop         ebx
  0040AB01: 83 C4 18           add         esp,18h
  0040AB04: C3                 ret
  0040AB05: 90                 nop
  0040AB06: 90                 nop
  0040AB07: 90                 nop
  0040AB08: 90                 nop
  0040AB09: 90                 nop
  0040AB0A: 90                 nop
  0040AB0B: 90                 nop
  0040AB0C: 90                 nop
  0040AB0D: 90                 nop
  0040AB0E: 90                 nop
  0040AB0F: 90                 nop
  0040AB10: 51                 push        ecx
  0040AB11: 53                 push        ebx
  0040AB12: 55                 push        ebp
  0040AB13: 56                 push        esi
  0040AB14: 57                 push        edi
  0040AB15: 8B 7C 24 18        mov         edi,dword ptr [esp+18h]
  0040AB19: 85 FF              test        edi,edi
  0040AB1B: 0F 84 AD 01 00 00  je          0040ACCE
  0040AB21: 6A 3D              push        3Dh
  0040AB23: 57                 push        edi
  0040AB24: E8 97 05 00 00     call        0040B0C0
  0040AB29: 8B F0              mov         esi,eax
  0040AB2B: 83 C4 08           add         esp,8
  0040AB2E: 85 F6              test        esi,esi
  0040AB30: 0F 84 98 01 00 00  je          0040ACCE
  0040AB36: 3B FE              cmp         edi,esi
  0040AB38: 0F 84 90 01 00 00  je          0040ACCE
  0040AB3E: 8A 56 01           mov         dl,byte ptr [esi+1]
  0040AB41: 8B 0D 70 0D 41 00  mov         ecx,dword ptr ds:[00410D70h]
  0040AB47: 33 C0              xor         eax,eax
  0040AB49: 84 D2              test        dl,dl
  0040AB4B: 0F 94 C0           sete        al
  0040AB4E: 8B E8              mov         ebp,eax
  0040AB50: A1 6C 0D 41 00     mov         eax,dword ptr ds:[00410D6Ch]
  0040AB55: 3B C1              cmp         eax,ecx
  0040AB57: 75 0E              jne         0040AB67
  0040AB59: 50                 push        eax
  0040AB5A: E8 41 02 00 00     call        0040ADA0
  0040AB5F: 83 C4 04           add         esp,4
  0040AB62: A3 6C 0D 41 00     mov         dword ptr ds:[00410D6Ch],eax
  0040AB67: 85 C0              test        eax,eax
  0040AB69: 75 77              jne         0040ABE2
  0040AB6B: 8B 44 24 1C        mov         eax,dword ptr [esp+1Ch]
  0040AB6F: 85 C0              test        eax,eax
  0040AB71: 74 1B              je          0040AB8E
  0040AB73: A1 74 0D 41 00     mov         eax,dword ptr ds:[00410D74h]
  0040AB78: 85 C0              test        eax,eax
  0040AB7A: 74 12              je          0040AB8E
  0040AB7C: E8 4F F7 FF FF     call        0040A2D0
  0040AB81: 85 C0              test        eax,eax
  0040AB83: 74 58              je          0040ABDD
  0040AB85: 83 C8 FF           or          eax,0FFFFFFFFh
  0040AB88: 5F                 pop         edi
  0040AB89: 5E                 pop         esi
  0040AB8A: 5D                 pop         ebp
  0040AB8B: 5B                 pop         ebx
  0040AB8C: 59                 pop         ecx
  0040AB8D: C3                 ret
  0040AB8E: 85 ED              test        ebp,ebp
  0040AB90: 74 08              je          0040AB9A
  0040AB92: 33 C0              xor         eax,eax
  0040AB94: 5F                 pop         edi
  0040AB95: 5E                 pop         esi
  0040AB96: 5D                 pop         ebp
  0040AB97: 5B                 pop         ebx
  0040AB98: 59                 pop         ecx
  0040AB99: C3                 ret
  0040AB9A: 6A 04              push        4
  0040AB9C: E8 BF 93 FF FF     call        00403F60
  0040ABA1: 83 C4 04           add         esp,4
  0040ABA4: A3 6C 0D 41 00     mov         dword ptr ds:[00410D6Ch],eax
  0040ABA9: 85 C0              test        eax,eax
  0040ABAB: 0F 84 1D 01 00 00  je          0040ACCE
  0040ABB1: C7 00 00 00 00 00  mov         dword ptr [eax],0
  0040ABB7: A1 74 0D 41 00     mov         eax,dword ptr ds:[00410D74h]
  0040ABBC: 85 C0              test        eax,eax
  0040ABBE: 75 1D              jne         0040ABDD
  0040ABC0: 6A 04              push        4
  0040ABC2: E8 99 93 FF FF     call        00403F60
  0040ABC7: 83 C4 04           add         esp,4
  0040ABCA: A3 74 0D 41 00     mov         dword ptr ds:[00410D74h],eax
  0040ABCF: 85 C0              test        eax,eax
  0040ABD1: 0F 84 F7 00 00 00  je          0040ACCE
  0040ABD7: C7 00 00 00 00 00  mov         dword ptr [eax],0
  0040ABDD: A1 6C 0D 41 00     mov         eax,dword ptr ds:[00410D6Ch]
  0040ABE2: 8B D8              mov         ebx,eax
  0040ABE4: 8B C6              mov         eax,esi
  0040ABE6: 2B C7              sub         eax,edi
  0040ABE8: 50                 push        eax
  0040ABE9: 57                 push        edi
  0040ABEA: 89 44 24 18        mov         dword ptr [esp+18h],eax
  0040ABEE: E8 2D 01 00 00     call        0040AD20
  0040ABF3: 8B F0              mov         esi,eax
  0040ABF5: 83 C4 08           add         esp,8
  0040ABF8: 85 F6              test        esi,esi
  0040ABFA: 0F 8C DF 00 00 00  jl          0040ACDF
  0040AC00: 83 3B 00           cmp         dword ptr [ebx],0
  0040AC03: 0F 84 D6 00 00 00  je          0040ACDF
  0040AC09: 85 ED              test        ebp,ebp
  0040AC0B: 0F 84 C6 00 00 00  je          0040ACD7
  0040AC11: 8B 0C B3           mov         ecx,dword ptr [ebx+esi*4]
  0040AC14: 8D 3C B3           lea         edi,[ebx+esi*4]
  0040AC17: 51                 push        ecx
  0040AC18: E8 D3 92 FF FF     call        00403EF0
  0040AC1D: 8B 07              mov         eax,dword ptr [edi]
  0040AC1F: 83 C4 04           add         esp,4
  0040AC22: 85 C0              test        eax,eax
  0040AC24: 74 13              je          0040AC39
  0040AC26: 8B C7              mov         eax,edi
  0040AC28: 8B 50 04           mov         edx,dword ptr [eax+4]
  0040AC2B: 83 C0 04           add         eax,4
  0040AC2E: 89 17              mov         dword ptr [edi],edx
  0040AC30: 46                 inc         esi
  0040AC31: 8B 08              mov         ecx,dword ptr [eax]
  0040AC33: 8B F8              mov         edi,eax
  0040AC35: 85 C9              test        ecx,ecx
  0040AC37: 75 EF              jne         0040AC28
  0040AC39: 8D 04 B5 00 00 00  lea         eax,[esi*4+00000000h]
            00
  0040AC40: 50                 push        eax
  0040AC41: 53                 push        ebx
  0040AC42: E8 C9 02 00 00     call        0040AF10
  0040AC47: 83 C4 08           add         esp,8
  0040AC4A: 85 C0              test        eax,eax
  0040AC4C: 74 05              je          0040AC53
  0040AC4E: A3 6C 0D 41 00     mov         dword ptr ds:[00410D6Ch],eax
  0040AC53: 8B 7C 24 18        mov         edi,dword ptr [esp+18h]
  0040AC57: 8B 44 24 1C        mov         eax,dword ptr [esp+1Ch]
  0040AC5B: 85 C0              test        eax,eax
  0040AC5D: 74 67              je          0040ACC6
  0040AC5F: 83 C9 FF           or          ecx,0FFFFFFFFh
  0040AC62: 33 C0              xor         eax,eax
  0040AC64: F2 AE              repne scas  byte ptr es:[edi]
  0040AC66: F7 D1              not         ecx
  0040AC68: 41                 inc         ecx
  0040AC69: 51                 push        ecx
  0040AC6A: E8 F1 92 FF FF     call        00403F60
  0040AC6F: 8B D8              mov         ebx,eax
  0040AC71: 83 C4 04           add         esp,4
  0040AC74: 85 DB              test        ebx,ebx
  0040AC76: 74 4E              je          0040ACC6
  0040AC78: 8B 7C 24 18        mov         edi,dword ptr [esp+18h]
  0040AC7C: 83 C9 FF           or          ecx,0FFFFFFFFh
  0040AC7F: 33 C0              xor         eax,eax
  0040AC81: F2 AE              repne scas  byte ptr es:[edi]
  0040AC83: F7 D1              not         ecx
  0040AC85: 2B F9              sub         edi,ecx
  0040AC87: 8B 44 24 10        mov         eax,dword ptr [esp+10h]
  0040AC8B: 8B D1              mov         edx,ecx
  0040AC8D: 8B F7              mov         esi,edi
  0040AC8F: 8B FB              mov         edi,ebx
  0040AC91: C1 E9 02           shr         ecx,2
  0040AC94: F3 A5              rep movs    dword ptr es:[edi],dword ptr [esi]
  0040AC96: 8B CA              mov         ecx,edx
  0040AC98: 83 E1 03           and         ecx,3
  0040AC9B: F7 DD              neg         ebp
  0040AC9D: F3 A4              rep movs    byte ptr es:[edi],byte ptr [esi]
  0040AC9F: 1B ED              sbb         ebp,ebp
  0040ACA1: C6 04 03 00        mov         byte ptr [ebx+eax],0
  0040ACA5: 8D 44 03 01        lea         eax,[ebx+eax+1]
  0040ACA9: F7 D5              not         ebp
  0040ACAB: 23 E8              and         ebp,eax
  0040ACAD: 55                 push        ebp
  0040ACAE: 53                 push        ebx
  0040ACAF: FF 15 44 33 41 00  call        dword ptr ds:[00413344h]
  0040ACB5: 53                 push        ebx
  0040ACB6: E8 35 92 FF FF     call        00403EF0
  0040ACBB: 83 C4 04           add         esp,4
  0040ACBE: 33 C0              xor         eax,eax
  0040ACC0: 5F                 pop         edi
  0040ACC1: 5E                 pop         esi
  0040ACC2: 5D                 pop         ebp
  0040ACC3: 5B                 pop         ebx
  0040ACC4: 59                 pop         ecx
  0040ACC5: C3                 ret
  0040ACC6: 33 C0              xor         eax,eax
  0040ACC8: 5F                 pop         edi
  0040ACC9: 5E                 pop         esi
  0040ACCA: 5D                 pop         ebp
  0040ACCB: 5B                 pop         ebx
  0040ACCC: 59                 pop         ecx
  0040ACCD: C3                 ret
  0040ACCE: 5F                 pop         edi
  0040ACCF: 5E                 pop         esi
  0040ACD0: 5D                 pop         ebp
  0040ACD1: 83 C8 FF           or          eax,0FFFFFFFFh
  0040ACD4: 5B                 pop         ebx
  0040ACD5: 59                 pop         ecx
  0040ACD6: C3                 ret
  0040ACD7: 89 3C B3           mov         dword ptr [ebx+esi*4],edi
  0040ACDA: E9 78 FF FF FF     jmp         0040AC57
  0040ACDF: 85 ED              test        ebp,ebp
  0040ACE1: 75 E3              jne         0040ACC6
  0040ACE3: 85 F6              test        esi,esi
  0040ACE5: 7D 02              jge         0040ACE9
  0040ACE7: F7 DE              neg         esi
  0040ACE9: 8D 0C B5 08 00 00  lea         ecx,[esi*4+00000008h]
            00
  0040ACF0: 51                 push        ecx
  0040ACF1: 53                 push        ebx
  0040ACF2: E8 19 02 00 00     call        0040AF10
  0040ACF7: 83 C4 08           add         esp,8
  0040ACFA: 85 C0              test        eax,eax
  0040ACFC: 74 D0              je          0040ACCE
  0040ACFE: 89 3C B0           mov         dword ptr [eax+esi*4],edi
  0040AD01: C7 44 B0 04 00 00  mov         dword ptr [eax+esi*4+4],0
            00 00
  0040AD09: A3 6C 0D 41 00     mov         dword ptr ds:[00410D6Ch],eax
  0040AD0E: E9 44 FF FF FF     jmp         0040AC57
  0040AD13: 90                 nop
  0040AD14: 90                 nop
  0040AD15: 90                 nop
  0040AD16: 90                 nop
  0040AD17: 90                 nop
  0040AD18: 90                 nop
  0040AD19: 90                 nop
  0040AD1A: 90                 nop
  0040AD1B: 90                 nop
  0040AD1C: 90                 nop
  0040AD1D: 90                 nop
  0040AD1E: 90                 nop
  0040AD1F: 90                 nop
  0040AD20: 53                 push        ebx
  0040AD21: 56                 push        esi
  0040AD22: 8B 35 6C 0D 41 00  mov         esi,dword ptr ds:[00410D6Ch]
  0040AD28: 57                 push        edi
  0040AD29: 8B 06              mov         eax,dword ptr [esi]
  0040AD2B: 85 C0              test        eax,eax
  0040AD2D: 74 52              je          0040AD81
  0040AD2F: 8B 7C 24 14        mov         edi,dword ptr [esp+14h]
  0040AD33: 8B 5C 24 10        mov         ebx,dword ptr [esp+10h]
  0040AD37: 57                 push        edi
  0040AD38: 50                 push        eax
  0040AD39: 53                 push        ebx
  0040AD3A: E8 51 F5 FF FF     call        0040A290
  0040AD3F: 83 C4 0C           add         esp,0Ch
  0040AD42: 85 C0              test        eax,eax
  0040AD44: 75 0D              jne         0040AD53
  0040AD46: 8B 06              mov         eax,dword ptr [esi]
  0040AD48: 8A 04 38           mov         al,byte ptr [eax+edi]
  0040AD4B: 3C 3D              cmp         al,3Dh
  0040AD4D: 74 21              je          0040AD70
  0040AD4F: 84 C0              test        al,al
  0040AD51: 74 1D              je          0040AD70
  0040AD53: 8B 46 04           mov         eax,dword ptr [esi+4]
  0040AD56: 83 C6 04           add         esi,4
  0040AD59: 85 C0              test        eax,eax
  0040AD5B: 75 DA              jne         0040AD37
  0040AD5D: 8B C6              mov         eax,esi
  0040AD5F: 8B 35 6C 0D 41 00  mov         esi,dword ptr ds:[00410D6Ch]
  0040AD65: 2B C6              sub         eax,esi
  0040AD67: C1 F8 02           sar         eax,2
  0040AD6A: F7 D8              neg         eax
  0040AD6C: 5F                 pop         edi
  0040AD6D: 5E                 pop         esi
  0040AD6E: 5B                 pop         ebx
  0040AD6F: C3                 ret
  0040AD70: 8B 15 6C 0D 41 00  mov         edx,dword ptr ds:[00410D6Ch]
  0040AD76: 8B C6              mov         eax,esi
  0040AD78: 2B C2              sub         eax,edx
  0040AD7A: C1 F8 02           sar         eax,2
  0040AD7D: 5F                 pop         edi
  0040AD7E: 5E                 pop         esi
  0040AD7F: 5B                 pop         ebx
  0040AD80: C3                 ret
  0040AD81: 8B C6              mov         eax,esi
  0040AD83: 8B 35 6C 0D 41 00  mov         esi,dword ptr ds:[00410D6Ch]
  0040AD89: 2B C6              sub         eax,esi
  0040AD8B: 5F                 pop         edi
  0040AD8C: C1 F8 02           sar         eax,2
  0040AD8F: 5E                 pop         esi
  0040AD90: 5B                 pop         ebx
  0040AD91: F7 D8              neg         eax
  0040AD93: C3                 ret
  0040AD94: 90                 nop
  0040AD95: 90                 nop
  0040AD96: 90                 nop
  0040AD97: 90                 nop
  0040AD98: 90                 nop
  0040AD99: 90                 nop
  0040AD9A: 90                 nop
  0040AD9B: 90                 nop
  0040AD9C: 90                 nop
  0040AD9D: 90                 nop
  0040AD9E: 90                 nop
  0040AD9F: 90                 nop
  0040ADA0: 57                 push        edi
  0040ADA1: 8B 7C 24 08        mov         edi,dword ptr [esp+8]
  0040ADA5: 33 C9              xor         ecx,ecx
  0040ADA7: 85 FF              test        edi,edi
  0040ADA9: 75 04              jne         0040ADAF
  0040ADAB: 33 C0              xor         eax,eax
  0040ADAD: 5F                 pop         edi
  0040ADAE: C3                 ret
  0040ADAF: 8B 17              mov         edx,dword ptr [edi]
  0040ADB1: 56                 push        esi
  0040ADB2: 85 D2              test        edx,edx
  0040ADB4: 53                 push        ebx
  0040ADB5: 8D 47 04           lea         eax,[edi+4]
  0040ADB8: 74 0A              je          0040ADC4
  0040ADBA: 8B 10              mov         edx,dword ptr [eax]
  0040ADBC: 41                 inc         ecx
  0040ADBD: 83 C0 04           add         eax,4
  0040ADC0: 85 D2              test        edx,edx
  0040ADC2: 75 F6              jne         0040ADBA
  0040ADC4: 8D 04 8D 04 00 00  lea         eax,[ecx*4+00000004h]
            00
  0040ADCB: 50                 push        eax
  0040ADCC: E8 8F 91 FF FF     call        00403F60
  0040ADD1: 8B F0              mov         esi,eax
  0040ADD3: 83 C4 04           add         esp,4
  0040ADD6: 85 F6              test        esi,esi
  0040ADD8: 8B DE              mov         ebx,esi
  0040ADDA: 75 0A              jne         0040ADE6
  0040ADDC: 6A 09              push        9
  0040ADDE: E8 5D 9E FF FF     call        00404C40
  0040ADE3: 83 C4 04           add         esp,4
  0040ADE6: 8B 07              mov         eax,dword ptr [edi]
  0040ADE8: 85 C0              test        eax,eax
  0040ADEA: 74 17              je          0040AE03
  0040ADEC: 50                 push        eax
  0040ADED: 83 C7 04           add         edi,4
  0040ADF0: E8 9B 03 00 00     call        0040B190
  0040ADF5: 89 06              mov         dword ptr [esi],eax
  0040ADF7: 8B 07              mov         eax,dword ptr [edi]
  0040ADF9: 83 C4 04           add         esp,4
  0040ADFC: 83 C6 04           add         esi,4
  0040ADFF: 85 C0              test        eax,eax
  0040AE01: 75 E9              jne         0040ADEC
  0040AE03: 8B C3              mov         eax,ebx
  0040AE05: C7 06 00 00 00 00  mov         dword ptr [esi],0
  0040AE0B: 5B                 pop         ebx
  0040AE0C: 5E                 pop         esi
  0040AE0D: 5F                 pop         edi
  0040AE0E: C3                 ret
  0040AE0F: 90                 nop
  0040AE10: A1 98 10 41 00     mov         eax,dword ptr ds:[00411098h]
  0040AE15: 83 EC 08           sub         esp,8
  0040AE18: 85 C0              test        eax,eax
  0040AE1A: 53                 push        ebx
  0040AE1B: 75 1E              jne         0040AE3B
  0040AE1D: 8B 44 24 10        mov         eax,dword ptr [esp+10h]
  0040AE21: 83 F8 41           cmp         eax,41h
  0040AE24: 0F 8C DD 00 00 00  jl          0040AF07
  0040AE2A: 83 F8 5A           cmp         eax,5Ah
  0040AE2D: 0F 8F D4 00 00 00  jg          0040AF07
  0040AE33: 83 C0 20           add         eax,20h
  0040AE36: 5B                 pop         ebx
  0040AE37: 83 C4 08           add         esp,8
  0040AE3A: C3                 ret
  0040AE3B: 8B 5C 24 10        mov         ebx,dword ptr [esp+10h]
  0040AE3F: 81 FB 00 01 00 00  cmp         ebx,100h
  0040AE45: 7D 2C              jge         0040AE73
  0040AE47: 83 3D CC FC 40 00  cmp         dword ptr ds:[0040FCCCh],1
            01
  0040AE4E: 7E 0D              jle         0040AE5D
  0040AE50: 6A 01              push        1
  0040AE52: 53                 push        ebx
  0040AE53: E8 A8 BC FF FF     call        00406B00
  0040AE58: 83 C4 08           add         esp,8
  0040AE5B: EB 0B              jmp         0040AE68
  0040AE5D: A1 C0 FA 40 00     mov         eax,dword ptr ds:[0040FAC0h]
  0040AE62: 8A 04 58           mov         al,byte ptr [eax+ebx*2]
  0040AE65: 83 E0 01           and         eax,1
  0040AE68: 85 C0              test        eax,eax
  0040AE6A: 75 07              jne         0040AE73
  0040AE6C: 8B C3              mov         eax,ebx
  0040AE6E: 5B                 pop         ebx
  0040AE6F: 83 C4 08           add         esp,8
  0040AE72: C3                 ret
  0040AE73: 8B 15 C0 FA 40 00  mov         edx,dword ptr ds:[0040FAC0h]
  0040AE79: 8B C3              mov         eax,ebx
  0040AE7B: C1 F8 08           sar         eax,8
  0040AE7E: 8B C8              mov         ecx,eax
  0040AE80: 81 E1 FF 00 00 00  and         ecx,0FFh
  0040AE86: F6 44 4A 01 80     test        byte ptr [edx+ecx*2+1],80h
  0040AE8B: 74 14              je          0040AEA1
  0040AE8D: 88 44 24 10        mov         byte ptr [esp+10h],al
  0040AE91: 88 5C 24 11        mov         byte ptr [esp+11h],bl
  0040AE95: C6 44 24 12 00     mov         byte ptr [esp+12h],0
  0040AE9A: B8 02 00 00 00     mov         eax,2
  0040AE9F: EB 0E              jmp         0040AEAF
  0040AEA1: 88 5C 24 10        mov         byte ptr [esp+10h],bl
  0040AEA5: C6 44 24 11 00     mov         byte ptr [esp+11h],0
  0040AEAA: B8 01 00 00 00     mov         eax,1
  0040AEAF: 6A 00              push        0
  0040AEB1: 8D 4C 24 08        lea         ecx,[esp+8]
  0040AEB5: 6A 03              push        3
  0040AEB7: 51                 push        ecx
  0040AEB8: 8D 54 24 1C        lea         edx,[esp+1Ch]
  0040AEBC: 50                 push        eax
  0040AEBD: A1 98 10 41 00     mov         eax,dword ptr ds:[00411098h]
  0040AEC2: 52                 push        edx
  0040AEC3: 68 00 01 00 00     push        100h
  0040AEC8: 50                 push        eax
  0040AEC9: E8 12 03 00 00     call        0040B1E0
  0040AECE: 83 C4 1C           add         esp,1Ch
  0040AED1: 85 C0              test        eax,eax
  0040AED3: 75 07              jne         0040AEDC
  0040AED5: 8B C3              mov         eax,ebx
  0040AED7: 5B                 pop         ebx
  0040AED8: 83 C4 08           add         esp,8
  0040AEDB: C3                 ret
  0040AEDC: 83 F8 01           cmp         eax,1
  0040AEDF: 75 0E              jne         0040AEEF
  0040AEE1: 8B 44 24 04        mov         eax,dword ptr [esp+4]
  0040AEE5: 25 FF 00 00 00     and         eax,0FFh
  0040AEEA: 5B                 pop         ebx
  0040AEEB: 83 C4 08           add         esp,8
  0040AEEE: C3                 ret
  0040AEEF: 8B 44 24 05        mov         eax,dword ptr [esp+5]
  0040AEF3: 8B 4C 24 04        mov         ecx,dword ptr [esp+4]
  0040AEF7: 25 FF 00 00 00     and         eax,0FFh
  0040AEFC: 81 E1 FF 00 00 00  and         ecx,0FFh
  0040AF02: C1 E0 08           shl         eax,8
  0040AF05: 0B C1              or          eax,ecx
  0040AF07: 5B                 pop         ebx
  0040AF08: 83 C4 08           add         esp,8
  0040AF0B: C3                 ret
  0040AF0C: 90                 nop
  0040AF0D: 90                 nop
  0040AF0E: 90                 nop
  0040AF0F: 90                 nop
  0040AF10: 83 EC 08           sub         esp,8
  0040AF13: 53                 push        ebx
  0040AF14: 55                 push        ebp
  0040AF15: 56                 push        esi
  0040AF16: 8B 74 24 18        mov         esi,dword ptr [esp+18h]
  0040AF1A: 85 F6              test        esi,esi
  0040AF1C: 57                 push        edi
  0040AF1D: 75 15              jne         0040AF34
  0040AF1F: 8B 44 24 20        mov         eax,dword ptr [esp+20h]
  0040AF23: 50                 push        eax
  0040AF24: E8 37 90 FF FF     call        00403F60
  0040AF29: 83 C4 04           add         esp,4
  0040AF2C: 5F                 pop         edi
  0040AF2D: 5E                 pop         esi
  0040AF2E: 5D                 pop         ebp
  0040AF2F: 5B                 pop         ebx
  0040AF30: 83 C4 08           add         esp,8
  0040AF33: C3                 ret
  0040AF34: 8B 7C 24 20        mov         edi,dword ptr [esp+20h]
  0040AF38: 85 FF              test        edi,edi
  0040AF3A: 75 13              jne         0040AF4F
  0040AF3C: 56                 push        esi
  0040AF3D: E8 AE 8F FF FF     call        00403EF0
  0040AF42: 83 C4 04           add         esp,4
  0040AF45: 33 C0              xor         eax,eax
  0040AF47: 5F                 pop         edi
  0040AF48: 5E                 pop         esi
  0040AF49: 5D                 pop         ebp
  0040AF4A: 5B                 pop         ebx
  0040AF4B: 83 C4 08           add         esp,8
  0040AF4E: C3                 ret
  0040AF4F: 83 FF E0           cmp         edi,0FFFFFFE0h
  0040AF52: 77 1C              ja          0040AF70
  0040AF54: 85 FF              test        edi,edi
  0040AF56: 76 0C              jbe         0040AF64
  0040AF58: 83 C7 0F           add         edi,0Fh
  0040AF5B: 83 E7 F0           and         edi,0FFFFFFF0h
  0040AF5E: 89 7C 24 20        mov         dword ptr [esp+20h],edi
  0040AF62: EB 08              jmp         0040AF6C
  0040AF64: C7 44 24 20 10 00  mov         dword ptr [esp+20h],10h
            00 00
  0040AF6C: 8B 7C 24 20        mov         edi,dword ptr [esp+20h]
  0040AF70: 33 DB              xor         ebx,ebx
  0040AF72: 83 FF E0           cmp         edi,0FFFFFFE0h
  0040AF75: 0F 87 15 01 00 00  ja          0040B090
  0040AF7B: 6A 09              push        9
  0040AF7D: E8 6E A9 FF FF     call        004058F0
  0040AF82: 83 C4 04           add         esp,4
  0040AF85: 8D 4C 24 10        lea         ecx,[esp+10h]
  0040AF89: 8D 54 24 14        lea         edx,[esp+14h]
  0040AF8D: 51                 push        ecx
  0040AF8E: 52                 push        edx
  0040AF8F: 56                 push        esi
  0040AF90: E8 7B AD FF FF     call        00405D10
  0040AF95: 8B E8              mov         ebp,eax
  0040AF97: 83 C4 0C           add         esp,0Ch
  0040AF9A: 85 ED              test        ebp,ebp
  0040AF9C: 0F 84 D2 00 00 00  je          0040B074
  0040AFA2: 3B 3D 3C F6 40 00  cmp         edi,dword ptr ds:[0040F63Ch]
  0040AFA8: 73 6B              jae         0040B015
  0040AFAA: 8B 44 24 10        mov         eax,dword ptr [esp+10h]
  0040AFAE: 8B 4C 24 14        mov         ecx,dword ptr [esp+14h]
  0040AFB2: 8B DF              mov         ebx,edi
  0040AFB4: C1 EB 04           shr         ebx,4
  0040AFB7: 53                 push        ebx
  0040AFB8: 55                 push        ebp
  0040AFB9: 50                 push        eax
  0040AFBA: 51                 push        ecx
  0040AFBB: E8 D0 B1 FF FF     call        00406190
  0040AFC0: 83 C4 10           add         esp,10h
  0040AFC3: 85 C0              test        eax,eax
  0040AFC5: 74 04              je          0040AFCB
  0040AFC7: 8B DE              mov         ebx,esi
  0040AFC9: EB 4A              jmp         0040B015
  0040AFCB: 53                 push        ebx
  0040AFCC: E8 FF AD FF FF     call        00405DD0
  0040AFD1: 8B D8              mov         ebx,eax
  0040AFD3: 83 C4 04           add         esp,4
  0040AFD6: 85 DB              test        ebx,ebx
  0040AFD8: 74 3F              je          0040B019
  0040AFDA: 33 C0              xor         eax,eax
  0040AFDC: 8A 45 00           mov         al,byte ptr [ebp]
  0040AFDF: C1 E0 04           shl         eax,4
  0040AFE2: 3B C7              cmp         eax,edi
  0040AFE4: 72 02              jb          0040AFE8
  0040AFE6: 8B C7              mov         eax,edi
  0040AFE8: 8B C8              mov         ecx,eax
  0040AFEA: 8B FB              mov         edi,ebx
  0040AFEC: 8B D1              mov         edx,ecx
  0040AFEE: 55                 push        ebp
  0040AFEF: C1 E9 02           shr         ecx,2
  0040AFF2: F3 A5              rep movs    dword ptr es:[edi],dword ptr [esi]
  0040AFF4: 8B CA              mov         ecx,edx
  0040AFF6: 83 E1 03           and         ecx,3
  0040AFF9: F3 A4              rep movs    byte ptr es:[edi],byte ptr [esi]
  0040AFFB: 8B 44 24 14        mov         eax,dword ptr [esp+14h]
  0040AFFF: 8B 4C 24 18        mov         ecx,dword ptr [esp+18h]
  0040B003: 50                 push        eax
  0040B004: 51                 push        ecx
  0040B005: E8 66 AD FF FF     call        00405D70
  0040B00A: 8B 7C 24 2C        mov         edi,dword ptr [esp+2Ch]
  0040B00E: 8B 74 24 28        mov         esi,dword ptr [esp+28h]
  0040B012: 83 C4 0C           add         esp,0Ch
  0040B015: 85 DB              test        ebx,ebx
  0040B017: 75 4F              jne         0040B068
  0040B019: 8B 15 84 22 41 00  mov         edx,dword ptr ds:[00412284h]
  0040B01F: 57                 push        edi
  0040B020: 6A 00              push        0
  0040B022: 52                 push        edx
  0040B023: FF 15 68 34 41 00  call        dword ptr ds:[00413468h]
  0040B029: 8B D8              mov         ebx,eax
  0040B02B: 85 DB              test        ebx,ebx
  0040B02D: 74 39              je          0040B068
  0040B02F: 33 C0              xor         eax,eax
  0040B031: 8A 45 00           mov         al,byte ptr [ebp]
  0040B034: C1 E0 04           shl         eax,4
  0040B037: 3B C7              cmp         eax,edi
  0040B039: 72 02              jb          0040B03D
  0040B03B: 8B C7              mov         eax,edi
  0040B03D: 8B C8              mov         ecx,eax
  0040B03F: 8B FB              mov         edi,ebx
  0040B041: C1 E9 02           shr         ecx,2
  0040B044: F3 A5              rep movs    dword ptr es:[edi],dword ptr [esi]
  0040B046: 8B C8              mov         ecx,eax
  0040B048: 55                 push        ebp
  0040B049: 83 E1 03           and         ecx,3
  0040B04C: F3 A4              rep movs    byte ptr es:[edi],byte ptr [esi]
  0040B04E: 8B 4C 24 14        mov         ecx,dword ptr [esp+14h]
  0040B052: 8B 54 24 18        mov         edx,dword ptr [esp+18h]
  0040B056: 51                 push        ecx
  0040B057: 52                 push        edx
  0040B058: E8 13 AD FF FF     call        00405D70
  0040B05D: 8B 7C 24 2C        mov         edi,dword ptr [esp+2Ch]
  0040B061: 8B 74 24 28        mov         esi,dword ptr [esp+28h]
  0040B065: 83 C4 0C           add         esp,0Ch
  0040B068: 6A 09              push        9
  0040B06A: E8 01 A9 FF FF     call        00405970
  0040B06F: 83 C4 04           add         esp,4
  0040B072: EB 1C              jmp         0040B090
  0040B074: 6A 09              push        9
  0040B076: E8 F5 A8 FF FF     call        00405970
  0040B07B: A1 84 22 41 00     mov         eax,dword ptr ds:[00412284h]
  0040B080: 83 C4 04           add         esp,4
  0040B083: 57                 push        edi
  0040B084: 56                 push        esi
  0040B085: 6A 00              push        0
  0040B087: 50                 push        eax
  0040B088: FF 15 F0 33 41 00  call        dword ptr ds:[004133F0h]
  0040B08E: 8B D8              mov         ebx,eax
  0040B090: 85 DB              test        ebx,ebx
  0040B092: 75 22              jne         0040B0B6
  0040B094: A1 D0 0C 41 00     mov         eax,dword ptr ds:[00410CD0h]
  0040B099: 85 C0              test        eax,eax
  0040B09B: 74 19              je          0040B0B6
  0040B09D: 57                 push        edi
  0040B09E: E8 BD A7 FF FF     call        00405860
  0040B0A3: 83 C4 04           add         esp,4
  0040B0A6: 85 C0              test        eax,eax
  0040B0A8: 0F 85 C2 FE FF FF  jne         0040AF70
  0040B0AE: 5F                 pop         edi
  0040B0AF: 5E                 pop         esi
  0040B0B0: 5D                 pop         ebp
  0040B0B1: 5B                 pop         ebx
  0040B0B2: 83 C4 08           add         esp,8
  0040B0B5: C3                 ret
  0040B0B6: 5F                 pop         edi
  0040B0B7: 5E                 pop         esi
  0040B0B8: 8B C3              mov         eax,ebx
  0040B0BA: 5D                 pop         ebp
  0040B0BB: 5B                 pop         ebx
  0040B0BC: 83 C4 08           add         esp,8
  0040B0BF: C3                 ret
  0040B0C0: A1 A4 0F 41 00     mov         eax,dword ptr ds:[00410FA4h]
  0040B0C5: 53                 push        ebx
  0040B0C6: 56                 push        esi
  0040B0C7: 57                 push        edi
  0040B0C8: 85 C0              test        eax,eax
  0040B0CA: 75 16              jne         0040B0E2
  0040B0CC: 8B 44 24 14        mov         eax,dword ptr [esp+14h]
  0040B0D0: 8B 4C 24 10        mov         ecx,dword ptr [esp+10h]
  0040B0D4: 50                 push        eax
  0040B0D5: 51                 push        ecx
  0040B0D6: E8 75 B8 FF FF     call        00406950
  0040B0DB: 83 C4 08           add         esp,8
  0040B0DE: 5F                 pop         edi
  0040B0DF: 5E                 pop         esi
  0040B0E0: 5B                 pop         ebx
  0040B0E1: C3                 ret
  0040B0E2: 6A 19              push        19h
  0040B0E4: E8 07 A8 FF FF     call        004058F0
  0040B0E9: 8B 7C 24 14        mov         edi,dword ptr [esp+14h]
  0040B0ED: 8B 5C 24 18        mov         ebx,dword ptr [esp+18h]
  0040B0F1: 83 C4 04           add         esp,4
  0040B0F4: 66 0F B6 37        movzx       si,byte ptr [edi]
  0040B0F8: 66 85 F6           test        si,si
  0040B0FB: 74 46              je          0040B143
  0040B0FD: B1 04              mov         cl,4
  0040B0FF: 8B D6              mov         edx,esi
  0040B101: 81 E2 FF 00 00 00  and         edx,0FFh
  0040B107: 84 8A A1 0E 41 00  test        byte ptr [edx+00410EA1h],cl
  0040B10D: 74 1E              je          0040B12D
  0040B10F: 8A 47 01           mov         al,byte ptr [edi+1]
  0040B112: 47                 inc         edi
  0040B113: 84 C0              test        al,al
  0040B115: 74 4A              je          0040B161
  0040B117: 81 E6 FF FF 00 00  and         esi,0FFFFh
  0040B11D: 25 FF 00 00 00     and         eax,0FFh
  0040B122: C1 E6 08           shl         esi,8
  0040B125: 0B F0              or          esi,eax
  0040B127: 3B DE              cmp         ebx,esi
  0040B129: 74 46              je          0040B171
  0040B12B: EB 0B              jmp         0040B138
  0040B12D: 8B C6              mov         eax,esi
  0040B12F: 25 FF FF 00 00     and         eax,0FFFFh
  0040B134: 3B D8              cmp         ebx,eax
  0040B136: 74 0B              je          0040B143
  0040B138: 66 0F B6 77 01     movzx       si,byte ptr [edi+1]
  0040B13D: 47                 inc         edi
  0040B13E: 66 85 F6           test        si,si
  0040B141: 75 BC              jne         0040B0FF
  0040B143: 6A 19              push        19h
  0040B145: E8 26 A8 FF FF     call        00405970
  0040B14A: 81 E6 FF FF 00 00  and         esi,0FFFFh
  0040B150: 83 C4 04           add         esp,4
  0040B153: 33 C0              xor         eax,eax
  0040B155: 3B DE              cmp         ebx,esi
  0040B157: 0F 95 C0           setne       al
  0040B15A: 48                 dec         eax
  0040B15B: 23 C7              and         eax,edi
  0040B15D: 5F                 pop         edi
  0040B15E: 5E                 pop         esi
  0040B15F: 5B                 pop         ebx
  0040B160: C3                 ret
  0040B161: 6A 19              push        19h
  0040B163: E8 08 A8 FF FF     call        00405970
  0040B168: 83 C4 04           add         esp,4
  0040B16B: 33 C0              xor         eax,eax
  0040B16D: 5F                 pop         edi
  0040B16E: 5E                 pop         esi
  0040B16F: 5B                 pop         ebx
  0040B170: C3                 ret
  0040B171: 6A 19              push        19h
  0040B173: E8 F8 A7 FF FF     call        00405970
  0040B178: 83 C4 04           add         esp,4
  0040B17B: 8D 47 FF           lea         eax,[edi-1]
  0040B17E: 5F                 pop         edi
  0040B17F: 5E                 pop         esi
  0040B180: 5B                 pop         ebx
  0040B181: C3                 ret
  0040B182: 90                 nop
  0040B183: 90                 nop
  0040B184: 90                 nop
  0040B185: 90                 nop
  0040B186: 90                 nop
  0040B187: 90                 nop
  0040B188: 90                 nop
  0040B189: 90                 nop
  0040B18A: 90                 nop
  0040B18B: 90                 nop
  0040B18C: 90                 nop
  0040B18D: 90                 nop
  0040B18E: 90                 nop
  0040B18F: 90                 nop
  0040B190: 53                 push        ebx
  0040B191: 56                 push        esi
  0040B192: 8B 74 24 0C        mov         esi,dword ptr [esp+0Ch]
  0040B196: 57                 push        edi
  0040B197: 85 F6              test        esi,esi
  0040B199: 74 3F              je          0040B1DA
  0040B19B: 8B FE              mov         edi,esi
  0040B19D: 83 C9 FF           or          ecx,0FFFFFFFFh
  0040B1A0: 33 C0              xor         eax,eax
  0040B1A2: F2 AE              repne scas  byte ptr es:[edi]
  0040B1A4: F7 D1              not         ecx
  0040B1A6: 51                 push        ecx
  0040B1A7: E8 B4 8D FF FF     call        00403F60
  0040B1AC: 8B D0              mov         edx,eax
  0040B1AE: 83 C4 04           add         esp,4
  0040B1B1: 85 D2              test        edx,edx
  0040B1B3: 74 25              je          0040B1DA
  0040B1B5: 8B FE              mov         edi,esi
  0040B1B7: 83 C9 FF           or          ecx,0FFFFFFFFh
  0040B1BA: 33 C0              xor         eax,eax
  0040B1BC: F2 AE              repne scas  byte ptr es:[edi]
  0040B1BE: F7 D1              not         ecx
  0040B1C0: 2B F9              sub         edi,ecx
  0040B1C2: 8B F7              mov         esi,edi
  0040B1C4: 8B D9              mov         ebx,ecx
  0040B1C6: 8B FA              mov         edi,edx
  0040B1C8: 8B C7              mov         eax,edi
  0040B1CA: C1 E9 02           shr         ecx,2
  0040B1CD: F3 A5              rep movs    dword ptr es:[edi],dword ptr [esi]
  0040B1CF: 8B CB              mov         ecx,ebx
  0040B1D1: 83 E1 03           and         ecx,3
  0040B1D4: F3 A4              rep movs    byte ptr es:[edi],byte ptr [esi]
  0040B1D6: 5F                 pop         edi
  0040B1D7: 5E                 pop         esi
  0040B1D8: 5B                 pop         ebx
  0040B1D9: C3                 ret
  0040B1DA: 5F                 pop         edi
  0040B1DB: 5E                 pop         esi
  0040B1DC: 33 C0              xor         eax,eax
  0040B1DE: 5B                 pop         ebx
  0040B1DF: C3                 ret
  0040B1E0: A1 30 11 41 00     mov         eax,dword ptr ds:[00411130h]
  0040B1E5: 53                 push        ebx
  0040B1E6: 8B 1D EC 33 41 00  mov         ebx,dword ptr ds:[004133ECh]
  0040B1EC: 55                 push        ebp
  0040B1ED: 56                 push        esi
  0040B1EE: 57                 push        edi
  0040B1EF: 85 C0              test        eax,eax
  0040B1F1: 75 49              jne         0040B23C
  0040B1F3: 6A 00              push        0
  0040B1F5: 6A 00              push        0
  0040B1F7: 6A 01              push        1
  0040B1F9: 68 E4 C3 40 00     push        40C3E4h
  0040B1FE: 68 00 01 00 00     push        100h
  0040B203: 6A 00              push        0
  0040B205: FF D3              call        ebx
  0040B207: 85 C0              test        eax,eax
  0040B209: 74 07              je          0040B212
  0040B20B: B8 02 00 00 00     mov         eax,2
  0040B210: EB 25              jmp         0040B237
  0040B212: 6A 00              push        0
  0040B214: 6A 00              push        0
  0040B216: 6A 01              push        1
  0040B218: 68 E8 C3 40 00     push        40C3E8h
  0040B21D: 68 00 01 00 00     push        100h
  0040B222: 6A 00              push        0
  0040B224: FF 15 E8 33 41 00  call        dword ptr ds:[004133E8h]
  0040B22A: 85 C0              test        eax,eax
  0040B22C: 0F 84 C3 01 00 00  je          0040B3F5
  0040B232: B8 01 00 00 00     mov         eax,1
  0040B237: A3 30 11 41 00     mov         dword ptr ds:[00411130h],eax
  0040B23C: 8B 74 24 20        mov         esi,dword ptr [esp+20h]
  0040B240: 85 F6              test        esi,esi
  0040B242: 7E 17              jle         0040B25B
  0040B244: 8B 7C 24 1C        mov         edi,dword ptr [esp+1Ch]
  0040B248: 56                 push        esi
  0040B249: 57                 push        edi
  0040B24A: E8 B1 01 00 00     call        0040B400
  0040B24F: 8B F0              mov         esi,eax
  0040B251: A1 30 11 41 00     mov         eax,dword ptr ds:[00411130h]
  0040B256: 83 C4 08           add         esp,8
  0040B259: EB 04              jmp         0040B25F
  0040B25B: 8B 7C 24 1C        mov         edi,dword ptr [esp+1Ch]
  0040B25F: 83 F8 02           cmp         eax,2
  0040B262: 75 1D              jne         0040B281
  0040B264: 8B 44 24 28        mov         eax,dword ptr [esp+28h]
  0040B268: 8B 4C 24 24        mov         ecx,dword ptr [esp+24h]
  0040B26C: 8B 54 24 18        mov         edx,dword ptr [esp+18h]
  0040B270: 50                 push        eax
  0040B271: 8B 44 24 18        mov         eax,dword ptr [esp+18h]
  0040B275: 51                 push        ecx
  0040B276: 56                 push        esi
  0040B277: 57                 push        edi
  0040B278: 52                 push        edx
  0040B279: 50                 push        eax
  0040B27A: FF D3              call        ebx
  0040B27C: 5F                 pop         edi
  0040B27D: 5E                 pop         esi
  0040B27E: 5D                 pop         ebp
  0040B27F: 5B                 pop         ebx
  0040B280: C3                 ret
  0040B281: 83 F8 01           cmp         eax,1
  0040B284: 0F 85 D2 00 00 00  jne         0040B35C
  0040B28A: 8B 6C 24 2C        mov         ebp,dword ptr [esp+2Ch]
  0040B28E: C7 44 24 20 00 00  mov         dword ptr [esp+20h],0
            00 00
  0040B296: 85 ED              test        ebp,ebp
  0040B298: 75 0C              jne         0040B2A6
  0040B29A: 8B 0D A8 10 41 00  mov         ecx,dword ptr ds:[004110A8h]
  0040B2A0: 89 4C 24 2C        mov         dword ptr [esp+2Ch],ecx
  0040B2A4: 8B E9              mov         ebp,ecx
  0040B2A6: 6A 00              push        0
  0040B2A8: 6A 00              push        0
  0040B2AA: 56                 push        esi
  0040B2AB: 57                 push        edi
  0040B2AC: 6A 09              push        9
  0040B2AE: 55                 push        ebp
  0040B2AF: FF 15 A0 33 41 00  call        dword ptr ds:[004133A0h]
  0040B2B5: 8B F8              mov         edi,eax
  0040B2B7: 85 FF              test        edi,edi
  0040B2B9: 75 05              jne         0040B2C0
  0040B2BB: 5F                 pop         edi
  0040B2BC: 5E                 pop         esi
  0040B2BD: 5D                 pop         ebp
  0040B2BE: 5B                 pop         ebx
  0040B2BF: C3                 ret
  0040B2C0: 8D 14 3F           lea         edx,[edi+edi]
  0040B2C3: 52                 push        edx
  0040B2C4: E8 97 8C FF FF     call        00403F60
  0040B2C9: 8B D8              mov         ebx,eax
  0040B2CB: 83 C4 04           add         esp,4
  0040B2CE: 85 DB              test        ebx,ebx
  0040B2D0: 75 05              jne         0040B2D7
  0040B2D2: 5F                 pop         edi
  0040B2D3: 5E                 pop         esi
  0040B2D4: 5D                 pop         ebp
  0040B2D5: 5B                 pop         ebx
  0040B2D6: C3                 ret
  0040B2D7: 8B 44 24 1C        mov         eax,dword ptr [esp+1Ch]
  0040B2DB: 57                 push        edi
  0040B2DC: 53                 push        ebx
  0040B2DD: 56                 push        esi
  0040B2DE: 50                 push        eax
  0040B2DF: 6A 01              push        1
  0040B2E1: 55                 push        ebp
  0040B2E2: FF 15 A0 33 41 00  call        dword ptr ds:[004133A0h]
  0040B2E8: 85 C0              test        eax,eax
  0040B2EA: 0F 84 EF 00 00 00  je          0040B3DF
  0040B2F0: 8B 6C 24 18        mov         ebp,dword ptr [esp+18h]
  0040B2F4: 8B 4C 24 14        mov         ecx,dword ptr [esp+14h]
  0040B2F8: 6A 00              push        0
  0040B2FA: 6A 00              push        0
  0040B2FC: 57                 push        edi
  0040B2FD: 53                 push        ebx
  0040B2FE: 55                 push        ebp
  0040B2FF: 51                 push        ecx
  0040B300: FF 15 E8 33 41 00  call        dword ptr ds:[004133E8h]
  0040B306: 8B F0              mov         esi,eax
  0040B308: 85 F6              test        esi,esi
  0040B30A: 0F 84 CF 00 00 00  je          0040B3DF
  0040B310: F7 C5 00 04 00 00  test        ebp,400h
  0040B316: 74 49              je          0040B361
  0040B318: 8B 44 24 28        mov         eax,dword ptr [esp+28h]
  0040B31C: 85 C0              test        eax,eax
  0040B31E: 74 24              je          0040B344
  0040B320: 3B F0              cmp         esi,eax
  0040B322: 0F 8F B7 00 00 00  jg          0040B3DF
  0040B328: 8B 54 24 24        mov         edx,dword ptr [esp+24h]
  0040B32C: 50                 push        eax
  0040B32D: 8B 44 24 18        mov         eax,dword ptr [esp+18h]
  0040B331: 52                 push        edx
  0040B332: 57                 push        edi
  0040B333: 53                 push        ebx
  0040B334: 55                 push        ebp
  0040B335: 50                 push        eax
  0040B336: FF 15 E8 33 41 00  call        dword ptr ds:[004133E8h]
  0040B33C: 85 C0              test        eax,eax
  0040B33E: 0F 84 9B 00 00 00  je          0040B3DF
  0040B344: 53                 push        ebx
  0040B345: E8 A6 8B FF FF     call        00403EF0
  0040B34A: 8B 4C 24 24        mov         ecx,dword ptr [esp+24h]
  0040B34E: 83 C4 04           add         esp,4
  0040B351: 51                 push        ecx
  0040B352: E8 99 8B FF FF     call        00403EF0
  0040B357: 83 C4 04           add         esp,4
  0040B35A: 8B C6              mov         eax,esi
  0040B35C: 5F                 pop         edi
  0040B35D: 5E                 pop         esi
  0040B35E: 5D                 pop         ebp
  0040B35F: 5B                 pop         ebx
  0040B360: C3                 ret
  0040B361: 8D 0C 36           lea         ecx,[esi+esi]
  0040B364: 51                 push        ecx
  0040B365: E8 F6 8B FF FF     call        00403F60
  0040B36A: 83 C4 04           add         esp,4
  0040B36D: 89 44 24 20        mov         dword ptr [esp+20h],eax
  0040B371: 85 C0              test        eax,eax
  0040B373: 74 6A              je          0040B3DF
  0040B375: 8B D0              mov         edx,eax
  0040B377: 8B 44 24 14        mov         eax,dword ptr [esp+14h]
  0040B37B: 56                 push        esi
  0040B37C: 52                 push        edx
  0040B37D: 57                 push        edi
  0040B37E: 53                 push        ebx
  0040B37F: 55                 push        ebp
  0040B380: 50                 push        eax
  0040B381: FF 15 E8 33 41 00  call        dword ptr ds:[004133E8h]
  0040B387: 85 C0              test        eax,eax
  0040B389: 74 54              je          0040B3DF
  0040B38B: 8B 44 24 28        mov         eax,dword ptr [esp+28h]
  0040B38F: 6A 00              push        0
  0040B391: 85 C0              test        eax,eax
  0040B393: 6A 00              push        0
  0040B395: 75 22              jne         0040B3B9
  0040B397: 8B 4C 24 28        mov         ecx,dword ptr [esp+28h]
  0040B39B: 8B 54 24 34        mov         edx,dword ptr [esp+34h]
  0040B39F: 6A 00              push        0
  0040B3A1: 6A 00              push        0
  0040B3A3: 56                 push        esi
  0040B3A4: 51                 push        ecx
  0040B3A5: 68 20 02 00 00     push        220h
  0040B3AA: 52                 push        edx
  0040B3AB: FF 15 90 33 41 00  call        dword ptr ds:[00413390h]
  0040B3B1: 8B F0              mov         esi,eax
  0040B3B3: 85 F6              test        esi,esi
  0040B3B5: 74 28              je          0040B3DF
  0040B3B7: EB 8B              jmp         0040B344
  0040B3B9: 8B 4C 24 28        mov         ecx,dword ptr [esp+28h]
  0040B3BD: 8B 54 24 34        mov         edx,dword ptr [esp+34h]
  0040B3C1: 50                 push        eax
  0040B3C2: 8B 44 24 30        mov         eax,dword ptr [esp+30h]
  0040B3C6: 50                 push        eax
  0040B3C7: 56                 push        esi
  0040B3C8: 51                 push        ecx
  0040B3C9: 68 20 02 00 00     push        220h
  0040B3CE: 52                 push        edx
  0040B3CF: FF 15 90 33 41 00  call        dword ptr ds:[00413390h]
  0040B3D5: 8B F0              mov         esi,eax
  0040B3D7: 85 F6              test        esi,esi
  0040B3D9: 0F 85 65 FF FF FF  jne         0040B344
  0040B3DF: 53                 push        ebx
  0040B3E0: E8 0B 8B FF FF     call        00403EF0
  0040B3E5: 8B 44 24 24        mov         eax,dword ptr [esp+24h]
  0040B3E9: 83 C4 04           add         esp,4
  0040B3EC: 50                 push        eax
  0040B3ED: E8 FE 8A FF FF     call        00403EF0
  0040B3F2: 83 C4 04           add         esp,4
  0040B3F5: 5F                 pop         edi
  0040B3F6: 5E                 pop         esi
  0040B3F7: 5D                 pop         ebp
  0040B3F8: 33 C0              xor         eax,eax
  0040B3FA: 5B                 pop         ebx
  0040B3FB: C3                 ret
  0040B3FC: 90                 nop
  0040B3FD: 90                 nop
  0040B3FE: 90                 nop
  0040B3FF: 90                 nop
  0040B400: 8B 54 24 08        mov         edx,dword ptr [esp+8]
  0040B404: 56                 push        esi
  0040B405: 8B 74 24 08        mov         esi,dword ptr [esp+8]
  0040B409: 85 D2              test        edx,edx
  0040B40B: 57                 push        edi
  0040B40C: 8B C6              mov         eax,esi
  0040B40E: 8D 4A FF           lea         ecx,[edx-1]
  0040B411: 74 0D              je          0040B420
  0040B413: 80 38 00           cmp         byte ptr [eax],0
  0040B416: 74 08              je          0040B420
  0040B418: 40                 inc         eax
  0040B419: 8B F9              mov         edi,ecx
  0040B41B: 49                 dec         ecx
  0040B41C: 85 FF              test        edi,edi
  0040B41E: 75 F3              jne         0040B413
  0040B420: 80 38 00           cmp         byte ptr [eax],0
  0040B423: 75 05              jne         0040B42A
  0040B425: 2B C6              sub         eax,esi
  0040B427: 5F                 pop         edi
  0040B428: 5E                 pop         esi
  0040B429: C3                 ret
  0040B42A: 5F                 pop         edi
  0040B42B: 5E                 pop         esi
  0040B42C: 8B C2              mov         eax,edx
  0040B42E: C3                 ret
  0040B42F: 90                 nop
  0040B430: FF 25 0C 34 41 00  jmp         dword ptr ds:[0041340Ch]
  0040B436: CC                 int         3
  0040B437: CC                 int         3
  0040B438: CC                 int         3
  0040B439: CC                 int         3
  0040B43A: CC                 int         3
  0040B43B: CC                 int         3
  0040B43C: CC                 int         3
  0040B43D: CC                 int         3
  0040B43E: CC                 int         3
  0040B43F: CC                 int         3
  0040B440: 55                 push        ebp
  0040B441: 8B EC              mov         ebp,esp
  0040B443: 57                 push        edi
  0040B444: 56                 push        esi
  0040B445: 53                 push        ebx
  0040B446: 8B 4D 10           mov         ecx,dword ptr [ebp+10h]
  0040B449: 0B C9              or          ecx,ecx
  0040B44B: 0F 84 E9 00 00 00  je          0040B53A
  0040B451: 8B 75 08           mov         esi,dword ptr [ebp+8]
  0040B454: 8B 7D 0C           mov         edi,dword ptr [ebp+0Ch]
  0040B457: 8D 05 90 10 41 00  lea         eax,ds:[00411090h]
  0040B45D: 83 78 08 00        cmp         dword ptr [eax+8],0
  0040B461: 75 4E              jne         0040B4B1
  0040B463: B7 41              mov         bh,41h
  0040B465: B3 5A              mov         bl,5Ah
  0040B467: B6 20              mov         dh,20h
  0040B469: 2E 8B C0           mov         eax,eax
  0040B46C: 8A 26              mov         ah,byte ptr [esi]
  0040B46E: 0A E4              or          ah,ah
  0040B470: 8A 07              mov         al,byte ptr [edi]
  0040B472: 74 21              je          0040B495
  0040B474: 0A C0              or          al,al
  0040B476: 74 1D              je          0040B495
  0040B478: 46                 inc         esi
  0040B479: 47                 inc         edi
  0040B47A: 38 FC              cmp         ah,bh
  0040B47C: 72 06              jb          0040B484
  0040B47E: 38 DC              cmp         ah,bl
  0040B480: 77 02              ja          0040B484
  0040B482: 02 E6              add         ah,dh
  0040B484: 38 F8              cmp         al,bh
  0040B486: 72 06              jb          0040B48E
  0040B488: 38 D8              cmp         al,bl
  0040B48A: 77 02              ja          0040B48E
  0040B48C: 02 C6              add         al,dh
  0040B48E: 38 C4              cmp         ah,al
  0040B490: 75 0D              jne         0040B49F
  0040B492: 49                 dec         ecx
  0040B493: 75 D7              jne         0040B46C
  0040B495: 33 C9              xor         ecx,ecx
  0040B497: 38 C4              cmp         ah,al
  0040B499: 0F 84 9B 00 00 00  je          0040B53A
  0040B49F: B9 FF FF FF FF     mov         ecx,0FFFFFFFFh
  0040B4A4: 0F 82 90 00 00 00  jb          0040B53A
  0040B4AA: F7 D9              neg         ecx
  0040B4AC: E9 89 00 00 00     jmp         0040B53A
  0040B4B1: F0 FF 05 48 11 41  lock inc    dword ptr ds:[00411148h]
            00
  0040B4B8: 83 3D 44 11 41 00  cmp         dword ptr ds:[00411144h],0
            00
  0040B4BF: 7F 04              jg          0040B4C5
  0040B4C1: 6A 00              push        0
  0040B4C3: EB 19              jmp         0040B4DE
  0040B4C5: F0 FF 0D 48 11 41  lock dec    dword ptr ds:[00411148h]
            00
  0040B4CC: 8B D9              mov         ebx,ecx
  0040B4CE: 6A 13              push        13h
  0040B4D0: E8 1B A4 FF FF     call        004058F0
  0040B4D5: C7 04 24 01 00 00  mov         dword ptr [esp],1
            00
  0040B4DC: 8B CB              mov         ecx,ebx
  0040B4DE: 33 C0              xor         eax,eax
  0040B4E0: 33 DB              xor         ebx,ebx
  0040B4E2: 8B C0              mov         eax,eax
  0040B4E4: 8A 06              mov         al,byte ptr [esi]
  0040B4E6: 0B C0              or          eax,eax
  0040B4E8: 8A 1F              mov         bl,byte ptr [edi]
  0040B4EA: 74 23              je          0040B50F
  0040B4EC: 0B DB              or          ebx,ebx
  0040B4EE: 74 1F              je          0040B50F
  0040B4F0: 46                 inc         esi
  0040B4F1: 47                 inc         edi
  0040B4F2: 51                 push        ecx
  0040B4F3: 50                 push        eax
  0040B4F4: 53                 push        ebx
  0040B4F5: E8 16 F9 FF FF     call        0040AE10
  0040B4FA: 8B D8              mov         ebx,eax
  0040B4FC: 83 C4 04           add         esp,4
  0040B4FF: E8 0C F9 FF FF     call        0040AE10
  0040B504: 83 C4 04           add         esp,4
  0040B507: 59                 pop         ecx
  0040B508: 3B C3              cmp         eax,ebx
  0040B50A: 75 09              jne         0040B515
  0040B50C: 49                 dec         ecx
  0040B50D: 75 D5              jne         0040B4E4
  0040B50F: 33 C9              xor         ecx,ecx
  0040B511: 3B C3              cmp         eax,ebx
  0040B513: 74 09              je          0040B51E
  0040B515: B9 FF FF FF FF     mov         ecx,0FFFFFFFFh
  0040B51A: 72 02              jb          0040B51E
  0040B51C: F7 D9              neg         ecx
  0040B51E: 58                 pop         eax
  0040B51F: 0B C0              or          eax,eax
  0040B521: 75 09              jne         0040B52C
  0040B523: F0 FF 0D 48 11 41  lock dec    dword ptr ds:[00411148h]
            00
  0040B52A: EB 0E              jmp         0040B53A
  0040B52C: 8B D9              mov         ebx,ecx
  0040B52E: 6A 13              push        13h
  0040B530: E8 3B A4 FF FF     call        00405970
  0040B535: 83 C4 04           add         esp,4
  0040B538: 8B CB              mov         ecx,ebx
  0040B53A: 8B C1              mov         eax,ecx
  0040B53C: 5B                 pop         ebx
  0040B53D: 5E                 pop         esi
  0040B53E: 5F                 pop         edi
  0040B53F: C9                 leave
  0040B540: C3                 ret

  Summary

        6000 .data
        1000 .idata
        1000 .rdata
        2000 .reloc
        3000 .rsrc
        B000 .text
